TI ARM Assembler PC v15.12.1 Thu Oct 27 14:03:10 2016

Tools Copyright (c) 1996-2015 Texas Instruments Incorporated
Main_Base.asm                                                        PAGE    1

       1                    ;******************************************************************************
       2                    ;* TI ARM C/C++ Codegen                                       PC v15.12.1.LTS *
       3                    ;* Date/Time created: Thu Oct 27 14:03:10 2016                                *
       4                    ;******************************************************************************
       5                            .compiler_opts --abi=eabi --arm_vmrs_si_workaround=off --code_state=16 --diag_wrap=off --disab
       6 00000000                   .thumb
       7                    
       8                    $C$DW$CU        .dwtag  DW_TAG_compile_unit
       9                            .dwattr $C$DW$CU, DW_AT_name("../Main_Base.c")
      10                            .dwattr $C$DW$CU, DW_AT_producer("TI TI ARM C/C++ Codegen PC v15.12.1.LTS Copyright (c) 1996-2
      11                            .dwattr $C$DW$CU, DW_AT_TI_version(0x01)
      12                            .dwattr $C$DW$CU, DW_AT_comp_dir("C:\TI_ARM_Tiva_Projects\Proj2_Magnetometer\Debug")
      13                    
      14                    $C$DW$1 .dwtag  DW_TAG_subprogram
      15                            .dwattr $C$DW$1, DW_AT_name("Processor_Initialization")
      16                            .dwattr $C$DW$1, DW_AT_TI_symbol_name("Processor_Initialization")
      17                            .dwattr $C$DW$1, DW_AT_type(*$C$DW$T$24)
      18                            .dwattr $C$DW$1, DW_AT_declaration
      19                            .dwattr $C$DW$1, DW_AT_external
      20                            .dwattr $C$DW$1, DW_AT_decl_file("..\Drivers/Processor_Initialization.h")
      21                            .dwattr $C$DW$1, DW_AT_decl_line(0x28)
      22                            .dwattr $C$DW$1, DW_AT_decl_column(0x11)
      23                            .dwendtag $C$DW$1
      24                    
      25                    
      26                    $C$DW$2 .dwtag  DW_TAG_subprogram
      27                            .dwattr $C$DW$2, DW_AT_name("UART_Initialization")
      28                            .dwattr $C$DW$2, DW_AT_TI_symbol_name("UART_Initialization")
      29                            .dwattr $C$DW$2, DW_AT_type(*$C$DW$T$24)
      30                            .dwattr $C$DW$2, DW_AT_declaration
      31                            .dwattr $C$DW$2, DW_AT_external
      32                            .dwattr $C$DW$2, DW_AT_decl_file("..\Drivers/Processor_Initialization.h")
      33                            .dwattr $C$DW$2, DW_AT_decl_line(0x29)
      34                            .dwattr $C$DW$2, DW_AT_decl_column(0x11)
      35                            .dwendtag $C$DW$2
      36                    
      37                    
      38                    $C$DW$3 .dwtag  DW_TAG_subprogram
      39                            .dwattr $C$DW$3, DW_AT_name("UARTprintf")
      40                            .dwattr $C$DW$3, DW_AT_TI_symbol_name("UARTprintf")
      41                            .dwattr $C$DW$3, DW_AT_declaration
      42                            .dwattr $C$DW$3, DW_AT_external
      43                            .dwattr $C$DW$3, DW_AT_decl_file("..\Drivers/uartstdio.h")
      44                            .dwattr $C$DW$3, DW_AT_decl_line(0x41)
      45                            .dwattr $C$DW$3, DW_AT_decl_column(0x0d)
      46                    $C$DW$4 .dwtag  DW_TAG_formal_parameter
      47                            .dwattr $C$DW$4, DW_AT_type(*$C$DW$T$72)
      48                    
      49                    $C$DW$5 .dwtag  DW_TAG_unspecified_parameters
      50                    
      51                            .dwendtag $C$DW$3
      52                    
      53                    
      54                    $C$DW$6 .dwtag  DW_TAG_subprogram
      55                            .dwattr $C$DW$6, DW_AT_name("vTaskStartScheduler")
TI ARM Assembler PC v15.12.1 Thu Oct 27 14:03:10 2016

Tools Copyright (c) 1996-2015 Texas Instruments Incorporated
Main_Base.asm                                                        PAGE    2

      56                            .dwattr $C$DW$6, DW_AT_TI_symbol_name("vTaskStartScheduler")
      57                            .dwattr $C$DW$6, DW_AT_declaration
      58                            .dwattr $C$DW$6, DW_AT_external
      59                            .dwattr $C$DW$6, DW_AT_decl_file("C:/TI_ARM_Tiva_Projects/Source/include/task.h")
      60                            .dwattr $C$DW$6, DW_AT_decl_line(0x37b)
      61                            .dwattr $C$DW$6, DW_AT_decl_column(0x06)
      62                            .dwendtag $C$DW$6
      63                    
      64                    
      65                    $C$DW$7 .dwtag  DW_TAG_subprogram
      66                            .dwattr $C$DW$7, DW_AT_name("xTaskGenericCreate")
      67                            .dwattr $C$DW$7, DW_AT_TI_symbol_name("xTaskGenericCreate")
      68                            .dwattr $C$DW$7, DW_AT_type(*$C$DW$T$84)
      69                            .dwattr $C$DW$7, DW_AT_declaration
      70                            .dwattr $C$DW$7, DW_AT_external
      71                            .dwattr $C$DW$7, DW_AT_decl_file("C:/TI_ARM_Tiva_Projects/Source/include/task.h")
      72                            .dwattr $C$DW$7, DW_AT_decl_line(0x7c2)
      73                            .dwattr $C$DW$7, DW_AT_decl_column(0x0c)
      74                    $C$DW$8 .dwtag  DW_TAG_formal_parameter
      75                            .dwattr $C$DW$8, DW_AT_type(*$C$DW$T$69)
      76                    
      77                    $C$DW$9 .dwtag  DW_TAG_formal_parameter
      78                            .dwattr $C$DW$9, DW_AT_type(*$C$DW$T$73)
      79                    
      80                    $C$DW$10        .dwtag  DW_TAG_formal_parameter
      81                            .dwattr $C$DW$10, DW_AT_type(*$C$DW$T$111)
      82                    
      83                    $C$DW$11        .dwtag  DW_TAG_formal_parameter
      84                            .dwattr $C$DW$11, DW_AT_type(*$C$DW$T$99)
      85                    
      86                    $C$DW$12        .dwtag  DW_TAG_formal_parameter
      87                            .dwattr $C$DW$12, DW_AT_type(*$C$DW$T$57)
      88                    
      89                    $C$DW$13        .dwtag  DW_TAG_formal_parameter
      90                            .dwattr $C$DW$13, DW_AT_type(*$C$DW$T$98)
      91                    
      92                    $C$DW$14        .dwtag  DW_TAG_formal_parameter
      93                            .dwattr $C$DW$14, DW_AT_type(*$C$DW$T$115)
      94                    
      95                    $C$DW$15        .dwtag  DW_TAG_formal_parameter
      96                            .dwattr $C$DW$15, DW_AT_type(*$C$DW$T$118)
      97                    
      98                            .dwendtag $C$DW$7
      99                    
     100                    
     101                    $C$DW$16        .dwtag  DW_TAG_subprogram
     102                            .dwattr $C$DW$16, DW_AT_name("Task_Magnetometer")
     103                            .dwattr $C$DW$16, DW_AT_TI_symbol_name("Task_Magnetometer")
     104                            .dwattr $C$DW$16, DW_AT_declaration
     105                            .dwattr $C$DW$16, DW_AT_external
     106                            .dwattr $C$DW$16, DW_AT_decl_file("..\Tasks/Magnetometer.h")
     107                            .dwattr $C$DW$16, DW_AT_decl_line(0x10)
     108                            .dwattr $C$DW$16, DW_AT_decl_column(0x0d)
     109                    $C$DW$17        .dwtag  DW_TAG_formal_parameter
     110                            .dwattr $C$DW$17, DW_AT_type(*$C$DW$T$3)
TI ARM Assembler PC v15.12.1 Thu Oct 27 14:03:10 2016

Tools Copyright (c) 1996-2015 Texas Instruments Incorporated
Main_Base.asm                                                        PAGE    3

     111                    
     112                            .dwendtag $C$DW$16
     113                    
     114                    
     115                    $C$DW$18        .dwtag  DW_TAG_subprogram
     116                            .dwattr $C$DW$18, DW_AT_name("I2CMCommand")
     117                            .dwattr $C$DW$18, DW_AT_TI_symbol_name("I2CMCommand")
     118                            .dwattr $C$DW$18, DW_AT_type(*$C$DW$T$25)
     119                            .dwattr $C$DW$18, DW_AT_declaration
     120                            .dwattr $C$DW$18, DW_AT_external
     121                            .dwattr $C$DW$18, DW_AT_decl_file("C:/TI_CodeComposer/TivaWare/sensorlib/i2cm_drv.h")
     122                            .dwattr $C$DW$18, DW_AT_decl_line(0x196)
     123                            .dwattr $C$DW$18, DW_AT_decl_column(0x15)
     124                    $C$DW$19        .dwtag  DW_TAG_formal_parameter
     125                            .dwattr $C$DW$19, DW_AT_type(*$C$DW$T$34)
     126                    
     127                    $C$DW$20        .dwtag  DW_TAG_formal_parameter
     128                            .dwattr $C$DW$20, DW_AT_type(*$C$DW$T$25)
     129                    
     130                    $C$DW$21        .dwtag  DW_TAG_formal_parameter
     131                            .dwattr $C$DW$21, DW_AT_type(*$C$DW$T$21)
     132                    
     133                    $C$DW$22        .dwtag  DW_TAG_formal_parameter
     134                            .dwattr $C$DW$22, DW_AT_type(*$C$DW$T$135)
     135                    
     136                    $C$DW$23        .dwtag  DW_TAG_formal_parameter
     137                            .dwattr $C$DW$23, DW_AT_type(*$C$DW$T$135)
     138                    
     139                    $C$DW$24        .dwtag  DW_TAG_formal_parameter
     140                            .dwattr $C$DW$24, DW_AT_type(*$C$DW$T$23)
     141                    
     142                    $C$DW$25        .dwtag  DW_TAG_formal_parameter
     143                            .dwattr $C$DW$25, DW_AT_type(*$C$DW$T$135)
     144                    
     145                    $C$DW$26        .dwtag  DW_TAG_formal_parameter
     146                            .dwattr $C$DW$26, DW_AT_type(*$C$DW$T$135)
     147                    
     148                    $C$DW$27        .dwtag  DW_TAG_formal_parameter
     149                            .dwattr $C$DW$27, DW_AT_type(*$C$DW$T$28)
     150                    
     151                    $C$DW$28        .dwtag  DW_TAG_formal_parameter
     152                            .dwattr $C$DW$28, DW_AT_type(*$C$DW$T$3)
     153                    
     154                            .dwendtag $C$DW$18
     155                    
     156                    
     157                    $C$DW$29        .dwtag  DW_TAG_subprogram
     158                            .dwattr $C$DW$29, DW_AT_name("I2CMReadModifyWrite16LE")
     159                            .dwattr $C$DW$29, DW_AT_TI_symbol_name("I2CMReadModifyWrite16LE")
     160                            .dwattr $C$DW$29, DW_AT_type(*$C$DW$T$25)
     161                            .dwattr $C$DW$29, DW_AT_declaration
     162                            .dwattr $C$DW$29, DW_AT_external
     163                            .dwattr $C$DW$29, DW_AT_decl_file("C:/TI_CodeComposer/TivaWare/sensorlib/i2cm_drv.h")
     164                            .dwattr $C$DW$29, DW_AT_decl_line(0x1a9)
     165                            .dwattr $C$DW$29, DW_AT_decl_column(0x15)
TI ARM Assembler PC v15.12.1 Thu Oct 27 14:03:10 2016

Tools Copyright (c) 1996-2015 Texas Instruments Incorporated
Main_Base.asm                                                        PAGE    4

     166                    $C$DW$30        .dwtag  DW_TAG_formal_parameter
     167                            .dwattr $C$DW$30, DW_AT_type(*$C$DW$T$91)
     168                    
     169                    $C$DW$31        .dwtag  DW_TAG_formal_parameter
     170                            .dwattr $C$DW$31, DW_AT_type(*$C$DW$T$34)
     171                    
     172                    $C$DW$32        .dwtag  DW_TAG_formal_parameter
     173                            .dwattr $C$DW$32, DW_AT_type(*$C$DW$T$25)
     174                    
     175                    $C$DW$33        .dwtag  DW_TAG_formal_parameter
     176                            .dwattr $C$DW$33, DW_AT_type(*$C$DW$T$25)
     177                    
     178                    $C$DW$34        .dwtag  DW_TAG_formal_parameter
     179                            .dwattr $C$DW$34, DW_AT_type(*$C$DW$T$135)
     180                    
     181                    $C$DW$35        .dwtag  DW_TAG_formal_parameter
     182                            .dwattr $C$DW$35, DW_AT_type(*$C$DW$T$135)
     183                    
     184                    $C$DW$36        .dwtag  DW_TAG_formal_parameter
     185                            .dwattr $C$DW$36, DW_AT_type(*$C$DW$T$28)
     186                    
     187                    $C$DW$37        .dwtag  DW_TAG_formal_parameter
     188                            .dwattr $C$DW$37, DW_AT_type(*$C$DW$T$3)
     189                    
     190                            .dwendtag $C$DW$29
     191                    
     192                    
     193                    $C$DW$38        .dwtag  DW_TAG_subprogram
     194                            .dwattr $C$DW$38, DW_AT_name("Task_gyro")
     195                            .dwattr $C$DW$38, DW_AT_TI_symbol_name("Task_gyro")
     196                            .dwattr $C$DW$38, DW_AT_declaration
     197                            .dwattr $C$DW$38, DW_AT_external
     198                            .dwattr $C$DW$38, DW_AT_decl_file("..\Tasks/Task_gyro.h")
     199                            .dwattr $C$DW$38, DW_AT_decl_line(0x1b)
     200                            .dwattr $C$DW$38, DW_AT_decl_column(0x0d)
     201                    $C$DW$39        .dwtag  DW_TAG_formal_parameter
     202                            .dwattr $C$DW$39, DW_AT_type(*$C$DW$T$3)
     203                    
     204                            .dwendtag $C$DW$38
     205                    
     206                    
     207                    $C$DW$40        .dwtag  DW_TAG_subprogram
     208                            .dwattr $C$DW$40, DW_AT_name("Task_Blink_LED_D1")
     209                            .dwattr $C$DW$40, DW_AT_TI_symbol_name("Task_Blink_LED_D1")
     210                            .dwattr $C$DW$40, DW_AT_declaration
     211                            .dwattr $C$DW$40, DW_AT_external
     212                            .dwattr $C$DW$40, DW_AT_decl_file("../Main_Base.c")
     213                            .dwattr $C$DW$40, DW_AT_decl_line(0x1d)
     214                            .dwattr $C$DW$40, DW_AT_decl_column(0x0d)
     215                    $C$DW$41        .dwtag  DW_TAG_formal_parameter
     216                            .dwattr $C$DW$41, DW_AT_type(*$C$DW$T$3)
     217                    
     218                            .dwendtag $C$DW$40
     219                    
     220                    
TI ARM Assembler PC v15.12.1 Thu Oct 27 14:03:10 2016

Tools Copyright (c) 1996-2015 Texas Instruments Incorporated
Main_Base.asm                                                        PAGE    5

     221                    $C$DW$42        .dwtag  DW_TAG_subprogram
     222                            .dwattr $C$DW$42, DW_AT_name("Task_ReportData")
     223                            .dwattr $C$DW$42, DW_AT_TI_symbol_name("Task_ReportData")
     224                            .dwattr $C$DW$42, DW_AT_declaration
     225                            .dwattr $C$DW$42, DW_AT_external
     226                            .dwattr $C$DW$42, DW_AT_decl_file("../Main_Base.c")
     227                            .dwattr $C$DW$42, DW_AT_decl_line(0x1f)
     228                            .dwattr $C$DW$42, DW_AT_decl_column(0x0d)
     229                    $C$DW$43        .dwtag  DW_TAG_formal_parameter
     230                            .dwattr $C$DW$43, DW_AT_type(*$C$DW$T$3)
     231                    
     232                            .dwendtag $C$DW$42
     233                    
     234                            .global isMPU9150Initialized
     235 00000000                   .data
     236                            .align  1
     237                            .elfsym isMPU9150Initialized,SYM_SIZE(1)
     238 00000000           isMPU9150Initialized:
     239 00000000 00000000          .bits   0,8                     ; isMPU9150Initialized @ 0
     240                    
     241                    $C$DW$44        .dwtag  DW_TAG_variable
     242                            .dwattr $C$DW$44, DW_AT_name("isMPU9150Initialized")
     243                            .dwattr $C$DW$44, DW_AT_TI_symbol_name("isMPU9150Initialized")
     244                            .dwattr $C$DW$44, DW_AT_location[DW_OP_addr isMPU9150Initialized]
     245                            .dwattr $C$DW$44, DW_AT_type(*$C$DW$T$160)
     246                            .dwattr $C$DW$44, DW_AT_external
     247                            .dwattr $C$DW$44, DW_AT_decl_file("../Main_Base.c")
     248                            .dwattr $C$DW$44, DW_AT_decl_line(0x21)
     249                            .dwattr $C$DW$44, DW_AT_decl_column(0x0d)
     250                    
     251                    ;       C:\TI_CodeComposer\ccsv6\tools\compiler\ti-cgt-arm_15.12.1.LTS\bin\armacpia.exe -@C:\\Users\\R
     252 00000000                   .sect   ".text:I2CMWrite"
     253                            .clink
     254                            .thumbfunc I2CMWrite
     255 00000000                   .thumb
     256                            .global I2CMWrite
     257                    
     258                    $C$DW$45        .dwtag  DW_TAG_subprogram
     259                            .dwattr $C$DW$45, DW_AT_name("I2CMWrite")
     260                            .dwattr $C$DW$45, DW_AT_low_pc(I2CMWrite)
     261                            .dwattr $C$DW$45, DW_AT_high_pc(0x00)
     262                            .dwattr $C$DW$45, DW_AT_TI_symbol_name("I2CMWrite")
     263                            .dwattr $C$DW$45, DW_AT_external
     264                            .dwattr $C$DW$45, DW_AT_type(*$C$DW$T$25)
     265                            .dwattr $C$DW$45, DW_AT_TI_begin_file("C:/TI_CodeComposer/TivaWare/sensorlib/i2cm_drv.h")
     266                            .dwattr $C$DW$45, DW_AT_TI_begin_line(0x1cb)
     267                            .dwattr $C$DW$45, DW_AT_TI_begin_column(0x01)
     268                            .dwattr $C$DW$45, DW_AT_decl_file("C:/TI_CodeComposer/TivaWare/sensorlib/i2cm_drv.h")
     269                            .dwattr $C$DW$45, DW_AT_decl_line(0x1cb)
     270                            .dwattr $C$DW$45, DW_AT_decl_column(0x01)
     271                            .dwattr $C$DW$45, DW_AT_TI_max_frame_size(0x30)
     272                            .dwpsn  file "C:/TI_CodeComposer/TivaWare/sensorlib/i2cm_drv.h",line 462,column 1,is_stmt,addr
     273                    
     274                            .dwfde $C$DW$CIE, I2CMWrite
     275                    $C$DW$46        .dwtag  DW_TAG_formal_parameter
TI ARM Assembler PC v15.12.1 Thu Oct 27 14:03:10 2016

Tools Copyright (c) 1996-2015 Texas Instruments Incorporated
Main_Base.asm                                                        PAGE    6

     276                            .dwattr $C$DW$46, DW_AT_name("psInst")
     277                            .dwattr $C$DW$46, DW_AT_TI_symbol_name("psInst")
     278                            .dwattr $C$DW$46, DW_AT_type(*$C$DW$T$34)
     279                            .dwattr $C$DW$46, DW_AT_location[DW_OP_reg0]
     280                    
     281                    $C$DW$47        .dwtag  DW_TAG_formal_parameter
     282                            .dwattr $C$DW$47, DW_AT_name("ui8Addr")
     283                            .dwattr $C$DW$47, DW_AT_TI_symbol_name("ui8Addr")
     284                            .dwattr $C$DW$47, DW_AT_type(*$C$DW$T$25)
     285                            .dwattr $C$DW$47, DW_AT_location[DW_OP_reg1]
     286                    
     287                    $C$DW$48        .dwtag  DW_TAG_formal_parameter
     288                            .dwattr $C$DW$48, DW_AT_name("pui8Data")
     289                            .dwattr $C$DW$48, DW_AT_TI_symbol_name("pui8Data")
     290                            .dwattr $C$DW$48, DW_AT_type(*$C$DW$T$21)
     291                            .dwattr $C$DW$48, DW_AT_location[DW_OP_reg2]
     292                    
     293                    $C$DW$49        .dwtag  DW_TAG_formal_parameter
     294                            .dwattr $C$DW$49, DW_AT_name("ui16Count")
     295                            .dwattr $C$DW$49, DW_AT_TI_symbol_name("ui16Count")
     296                            .dwattr $C$DW$49, DW_AT_type(*$C$DW$T$135)
     297                            .dwattr $C$DW$49, DW_AT_location[DW_OP_reg3]
     298                    
     299                    $C$DW$50        .dwtag  DW_TAG_formal_parameter
     300                            .dwattr $C$DW$50, DW_AT_name("pfnCallback")
     301                            .dwattr $C$DW$50, DW_AT_TI_symbol_name("pfnCallback")
     302                            .dwattr $C$DW$50, DW_AT_type(*$C$DW$T$28)
     303                            .dwattr $C$DW$50, DW_AT_location[DW_OP_breg13 48]
     304                    
     305                    $C$DW$51        .dwtag  DW_TAG_formal_parameter
     306                            .dwattr $C$DW$51, DW_AT_name("pvCallbackData")
     307                            .dwattr $C$DW$51, DW_AT_TI_symbol_name("pvCallbackData")
     308                            .dwattr $C$DW$51, DW_AT_type(*$C$DW$T$3)
     309                            .dwattr $C$DW$51, DW_AT_location[DW_OP_breg13 52]
     310                    
     311                    
     312                    ;*****************************************************************************
     313                    ;* FUNCTION NAME: I2CMWrite                                                  *
     314                    ;*                                                                           *
     315                    ;*   Regs Modified     : A1,A2,A3,A4,V9,SP,LR,SR,D0,D0_hi,D1,D1_hi,D2,D2_hi, *
     316                    ;*                           D3,D3_hi,D4,D4_hi,D5,D5_hi,D6,D6_hi,D7,D7_hi,   *
     317                    ;*                           FPEXC,FPSCR                                     *
     318                    ;*   Regs Used         : A1,A2,A3,A4,V9,SP,LR,SR,D0,D0_hi,D1,D1_hi,D2,D2_hi, *
     319                    ;*                           D3,D3_hi,D4,D4_hi,D5,D5_hi,D6,D6_hi,D7,D7_hi,   *
     320                    ;*                           FPEXC,FPSCR                                     *
     321                    ;*   Local Frame Size  : 24 Args + 16 Auto + 4 Save = 44 byte                *
     322                    ;*****************************************************************************
     323 00000000           I2CMWrite:
     324                    ;* --------------------------------------------------------------------------*
     325                            .dwcfi  cfa_offset, 0
     326 00000000 B500              PUSH      {LR}                  ; [DPU_3_PIPE]  ; [ORIG 16-BIT INS]
     327                            .dwcfi  cfa_offset, 4
     328                            .dwcfi  save_reg_to_mem, 14, -4
     329 00000002 0D2CF1AD          SUB       SP, SP, #44           ; [DPU_3_PIPE]  ; [KEEP 32-BIT INS]
     330                            .dwcfi  cfa_offset, 48
TI ARM Assembler PC v15.12.1 Thu Oct 27 14:03:10 2016

Tools Copyright (c) 1996-2015 Texas Instruments Incorporated
Main_Base.asm                                                        PAGE    7

     331                    $C$DW$52        .dwtag  DW_TAG_variable
     332                            .dwattr $C$DW$52, DW_AT_name("psInst")
     333                            .dwattr $C$DW$52, DW_AT_TI_symbol_name("psInst")
     334                            .dwattr $C$DW$52, DW_AT_type(*$C$DW$T$34)
     335                            .dwattr $C$DW$52, DW_AT_location[DW_OP_breg13 24]
     336                    
     337                    $C$DW$53        .dwtag  DW_TAG_variable
     338                            .dwattr $C$DW$53, DW_AT_name("ui8Addr")
     339                            .dwattr $C$DW$53, DW_AT_TI_symbol_name("ui8Addr")
     340                            .dwattr $C$DW$53, DW_AT_type(*$C$DW$T$25)
     341                            .dwattr $C$DW$53, DW_AT_location[DW_OP_breg13 28]
     342                    
     343                    $C$DW$54        .dwtag  DW_TAG_variable
     344                            .dwattr $C$DW$54, DW_AT_name("pui8Data")
     345                            .dwattr $C$DW$54, DW_AT_TI_symbol_name("pui8Data")
     346                            .dwattr $C$DW$54, DW_AT_type(*$C$DW$T$21)
     347                            .dwattr $C$DW$54, DW_AT_location[DW_OP_breg13 32]
     348                    
     349                    $C$DW$55        .dwtag  DW_TAG_variable
     350                            .dwattr $C$DW$55, DW_AT_name("ui16Count")
     351                            .dwattr $C$DW$55, DW_AT_TI_symbol_name("ui16Count")
     352                            .dwattr $C$DW$55, DW_AT_type(*$C$DW$T$135)
     353                            .dwattr $C$DW$55, DW_AT_location[DW_OP_breg13 36]
     354                    
     355 00000006 9309              STR       A4, [SP, #36]         ; [DPU_3_PIPE] |462|  ; [ORIG 16-BIT INS]
     356 00000008 9208              STR       A3, [SP, #32]         ; [DPU_3_PIPE] |462|  ; [ORIG 16-BIT INS]
     357 0000000a 9107              STR       A2, [SP, #28]         ; [DPU_3_PIPE] |462|  ; [ORIG 16-BIT INS]
     358 0000000c 9006              STR       A1, [SP, #24]         ; [DPU_3_PIPE] |462|  ; [ORIG 16-BIT INS]
     359                            .dwpsn  file "C:/TI_CodeComposer/TivaWare/sensorlib/i2cm_drv.h",line 463,column 5,is_stmt,isa 
     360 0000000e 9809              LDR       A1, [SP, #36]         ; [DPU_3_PIPE] |463|  ; [ORIG 16-BIT INS]
     361 00000010 9000              STR       A1, [SP, #0]          ; [DPU_3_PIPE] |463|  ; [ORIG 16-BIT INS]
     362 00000012 2000              MOVS      A1, #0                ; [DPU_3_PIPE] |463|  ; [ORIG 16-BIT INS]
     363 00000014 9001              STR       A1, [SP, #4]          ; [DPU_3_PIPE] |463|  ; [ORIG 16-BIT INS]
     364 00000016 2000              MOVS      A1, #0                ; [DPU_3_PIPE] |463|  ; [ORIG 16-BIT INS]
     365 00000018 9002              STR       A1, [SP, #8]          ; [DPU_3_PIPE] |463|  ; [ORIG 16-BIT INS]
     366 0000001a 2000              MOVS      A1, #0                ; [DPU_3_PIPE] |463|  ; [ORIG 16-BIT INS]
     367 0000001c 9003              STR       A1, [SP, #12]         ; [DPU_3_PIPE] |463|  ; [ORIG 16-BIT INS]
     368 0000001e 980C              LDR       A1, [SP, #48]         ; [DPU_3_PIPE] |463|  ; [ORIG 16-BIT INS]
     369 00000020 9004              STR       A1, [SP, #16]         ; [DPU_3_PIPE] |463|  ; [ORIG 16-BIT INS]
     370 00000022 980D              LDR       A1, [SP, #52]         ; [DPU_3_PIPE] |463|  ; [ORIG 16-BIT INS]
     371 00000024 9005              STR       A1, [SP, #20]         ; [DPU_3_PIPE] |463|  ; [ORIG 16-BIT INS]
     372 00000026 9B09              LDR       A4, [SP, #36]         ; [DPU_3_PIPE] |463|  ; [ORIG 16-BIT INS]
     373 00000028 9A08              LDR       A3, [SP, #32]         ; [DPU_3_PIPE] |463|  ; [ORIG 16-BIT INS]
     374 0000002a 9907              LDR       A2, [SP, #28]         ; [DPU_3_PIPE] |463|  ; [ORIG 16-BIT INS]
     375 0000002c 9806              LDR       A1, [SP, #24]         ; [DPU_3_PIPE] |463|  ; [ORIG 16-BIT INS]
     376                    $C$DW$56        .dwtag  DW_TAG_TI_branch
     377                            .dwattr $C$DW$56, DW_AT_low_pc(0x00)
     378                            .dwattr $C$DW$56, DW_AT_name("I2CMCommand")
     379                            .dwattr $C$DW$56, DW_AT_TI_call
     380                    
     381 0000002e FFFEF7FF!         BL        I2CMCommand           ; [DPU_3_PIPE] |463|  ; [KEEP 32-BIT INS]
     382                            ; CALL OCCURS {I2CMCommand }     ; [] |463| 
     383                            .dwpsn  file "C:/TI_CodeComposer/TivaWare/sensorlib/i2cm_drv.h",line 465,column 1,is_stmt,isa 
     384 00000032 B00B              ADD       SP, SP, #44           ; [DPU_3_PIPE]  ; [ORIG 16-BIT INS]
     385                            .dwcfi  cfa_offset, 4
TI ARM Assembler PC v15.12.1 Thu Oct 27 14:03:10 2016

Tools Copyright (c) 1996-2015 Texas Instruments Incorporated
Main_Base.asm                                                        PAGE    8

     386                    $C$DW$57        .dwtag  DW_TAG_TI_branch
     387                            .dwattr $C$DW$57, DW_AT_low_pc(0x00)
     388                            .dwattr $C$DW$57, DW_AT_TI_return
     389                    
     390 00000034 BD00              POP       {PC}                  ; [DPU_3_PIPE]  ; [ORIG 16-BIT INS]
     391                            .dwcfi  cfa_offset, 0
     392                            ; BRANCH OCCURS                  ; [] 
     393                            .dwattr $C$DW$45, DW_AT_TI_end_file("C:/TI_CodeComposer/TivaWare/sensorlib/i2cm_drv.h")
     394                            .dwattr $C$DW$45, DW_AT_TI_end_line(0x1d1)
     395                            .dwattr $C$DW$45, DW_AT_TI_end_column(0x01)
     396                            .dwendentry
     397                            .dwendtag $C$DW$45
     398                    
     399 00000000                   .sect   ".text:I2CMRead"
     400                            .clink
     401                            .thumbfunc I2CMRead
     402 00000000                   .thumb
     403                            .global I2CMRead
     404                    
     405                    $C$DW$58        .dwtag  DW_TAG_subprogram
     406                            .dwattr $C$DW$58, DW_AT_name("I2CMRead")
     407                            .dwattr $C$DW$58, DW_AT_low_pc(I2CMRead)
     408                            .dwattr $C$DW$58, DW_AT_high_pc(0x00)
     409                            .dwattr $C$DW$58, DW_AT_TI_symbol_name("I2CMRead")
     410                            .dwattr $C$DW$58, DW_AT_external
     411                            .dwattr $C$DW$58, DW_AT_type(*$C$DW$T$25)
     412                            .dwattr $C$DW$58, DW_AT_TI_begin_file("C:/TI_CodeComposer/TivaWare/sensorlib/i2cm_drv.h")
     413                            .dwattr $C$DW$58, DW_AT_TI_begin_line(0x1d9)
     414                            .dwattr $C$DW$58, DW_AT_TI_begin_column(0x01)
     415                            .dwattr $C$DW$58, DW_AT_decl_file("C:/TI_CodeComposer/TivaWare/sensorlib/i2cm_drv.h")
     416                            .dwattr $C$DW$58, DW_AT_decl_line(0x1d9)
     417                            .dwattr $C$DW$58, DW_AT_decl_column(0x01)
     418                            .dwattr $C$DW$58, DW_AT_TI_max_frame_size(0x30)
     419                            .dwpsn  file "C:/TI_CodeComposer/TivaWare/sensorlib/i2cm_drv.h",line 477,column 1,is_stmt,addr
     420                    
     421                            .dwfde $C$DW$CIE, I2CMRead
     422                    $C$DW$59        .dwtag  DW_TAG_formal_parameter
     423                            .dwattr $C$DW$59, DW_AT_name("psInst")
     424                            .dwattr $C$DW$59, DW_AT_TI_symbol_name("psInst")
     425                            .dwattr $C$DW$59, DW_AT_type(*$C$DW$T$34)
     426                            .dwattr $C$DW$59, DW_AT_location[DW_OP_reg0]
     427                    
     428                    $C$DW$60        .dwtag  DW_TAG_formal_parameter
     429                            .dwattr $C$DW$60, DW_AT_name("ui8Addr")
     430                            .dwattr $C$DW$60, DW_AT_TI_symbol_name("ui8Addr")
     431                            .dwattr $C$DW$60, DW_AT_type(*$C$DW$T$25)
     432                            .dwattr $C$DW$60, DW_AT_location[DW_OP_reg1]
     433                    
     434                    $C$DW$61        .dwtag  DW_TAG_formal_parameter
     435                            .dwattr $C$DW$61, DW_AT_name("pui8WriteData")
     436                            .dwattr $C$DW$61, DW_AT_TI_symbol_name("pui8WriteData")
     437                            .dwattr $C$DW$61, DW_AT_type(*$C$DW$T$21)
     438                            .dwattr $C$DW$61, DW_AT_location[DW_OP_reg2]
     439                    
     440                    $C$DW$62        .dwtag  DW_TAG_formal_parameter
TI ARM Assembler PC v15.12.1 Thu Oct 27 14:03:10 2016

Tools Copyright (c) 1996-2015 Texas Instruments Incorporated
Main_Base.asm                                                        PAGE    9

     441                            .dwattr $C$DW$62, DW_AT_name("ui16WriteCount")
     442                            .dwattr $C$DW$62, DW_AT_TI_symbol_name("ui16WriteCount")
     443                            .dwattr $C$DW$62, DW_AT_type(*$C$DW$T$135)
     444                            .dwattr $C$DW$62, DW_AT_location[DW_OP_reg3]
     445                    
     446                    $C$DW$63        .dwtag  DW_TAG_formal_parameter
     447                            .dwattr $C$DW$63, DW_AT_name("pui8ReadData")
     448                            .dwattr $C$DW$63, DW_AT_TI_symbol_name("pui8ReadData")
     449                            .dwattr $C$DW$63, DW_AT_type(*$C$DW$T$23)
     450                            .dwattr $C$DW$63, DW_AT_location[DW_OP_breg13 48]
     451                    
     452                    $C$DW$64        .dwtag  DW_TAG_formal_parameter
     453                            .dwattr $C$DW$64, DW_AT_name("ui16ReadCount")
     454                            .dwattr $C$DW$64, DW_AT_TI_symbol_name("ui16ReadCount")
     455                            .dwattr $C$DW$64, DW_AT_type(*$C$DW$T$135)
     456                            .dwattr $C$DW$64, DW_AT_location[DW_OP_breg13 52]
     457                    
     458                    $C$DW$65        .dwtag  DW_TAG_formal_parameter
     459                            .dwattr $C$DW$65, DW_AT_name("pfnCallback")
     460                            .dwattr $C$DW$65, DW_AT_TI_symbol_name("pfnCallback")
     461                            .dwattr $C$DW$65, DW_AT_type(*$C$DW$T$28)
     462                            .dwattr $C$DW$65, DW_AT_location[DW_OP_breg13 56]
     463                    
     464                    $C$DW$66        .dwtag  DW_TAG_formal_parameter
     465                            .dwattr $C$DW$66, DW_AT_name("pvCallbackData")
     466                            .dwattr $C$DW$66, DW_AT_TI_symbol_name("pvCallbackData")
     467                            .dwattr $C$DW$66, DW_AT_type(*$C$DW$T$3)
     468                            .dwattr $C$DW$66, DW_AT_location[DW_OP_breg13 60]
     469                    
     470                    
     471                    ;*****************************************************************************
     472                    ;* FUNCTION NAME: I2CMRead                                                   *
     473                    ;*                                                                           *
     474                    ;*   Regs Modified     : A1,A2,A3,A4,V9,SP,LR,SR,D0,D0_hi,D1,D1_hi,D2,D2_hi, *
     475                    ;*                           D3,D3_hi,D4,D4_hi,D5,D5_hi,D6,D6_hi,D7,D7_hi,   *
     476                    ;*                           FPEXC,FPSCR                                     *
     477                    ;*   Regs Used         : A1,A2,A3,A4,V9,SP,LR,SR,D0,D0_hi,D1,D1_hi,D2,D2_hi, *
     478                    ;*                           D3,D3_hi,D4,D4_hi,D5,D5_hi,D6,D6_hi,D7,D7_hi,   *
     479                    ;*                           FPEXC,FPSCR                                     *
     480                    ;*   Local Frame Size  : 24 Args + 16 Auto + 4 Save = 44 byte                *
     481                    ;*****************************************************************************
     482 00000000           I2CMRead:
     483                    ;* --------------------------------------------------------------------------*
     484                            .dwcfi  cfa_offset, 0
     485 00000000 B500              PUSH      {LR}                  ; [DPU_3_PIPE]  ; [ORIG 16-BIT INS]
     486                            .dwcfi  cfa_offset, 4
     487                            .dwcfi  save_reg_to_mem, 14, -4
     488 00000002 0D2CF1AD          SUB       SP, SP, #44           ; [DPU_3_PIPE]  ; [KEEP 32-BIT INS]
     489                            .dwcfi  cfa_offset, 48
     490                    $C$DW$67        .dwtag  DW_TAG_variable
     491                            .dwattr $C$DW$67, DW_AT_name("psInst")
     492                            .dwattr $C$DW$67, DW_AT_TI_symbol_name("psInst")
     493                            .dwattr $C$DW$67, DW_AT_type(*$C$DW$T$34)
     494                            .dwattr $C$DW$67, DW_AT_location[DW_OP_breg13 24]
     495                    
TI ARM Assembler PC v15.12.1 Thu Oct 27 14:03:10 2016

Tools Copyright (c) 1996-2015 Texas Instruments Incorporated
Main_Base.asm                                                        PAGE   10

     496                    $C$DW$68        .dwtag  DW_TAG_variable
     497                            .dwattr $C$DW$68, DW_AT_name("ui8Addr")
     498                            .dwattr $C$DW$68, DW_AT_TI_symbol_name("ui8Addr")
     499                            .dwattr $C$DW$68, DW_AT_type(*$C$DW$T$25)
     500                            .dwattr $C$DW$68, DW_AT_location[DW_OP_breg13 28]
     501                    
     502                    $C$DW$69        .dwtag  DW_TAG_variable
     503                            .dwattr $C$DW$69, DW_AT_name("pui8WriteData")
     504                            .dwattr $C$DW$69, DW_AT_TI_symbol_name("pui8WriteData")
     505                            .dwattr $C$DW$69, DW_AT_type(*$C$DW$T$21)
     506                            .dwattr $C$DW$69, DW_AT_location[DW_OP_breg13 32]
     507                    
     508                    $C$DW$70        .dwtag  DW_TAG_variable
     509                            .dwattr $C$DW$70, DW_AT_name("ui16WriteCount")
     510                            .dwattr $C$DW$70, DW_AT_TI_symbol_name("ui16WriteCount")
     511                            .dwattr $C$DW$70, DW_AT_type(*$C$DW$T$135)
     512                            .dwattr $C$DW$70, DW_AT_location[DW_OP_breg13 36]
     513                    
     514 00000006 9309              STR       A4, [SP, #36]         ; [DPU_3_PIPE] |477|  ; [ORIG 16-BIT INS]
     515 00000008 9208              STR       A3, [SP, #32]         ; [DPU_3_PIPE] |477|  ; [ORIG 16-BIT INS]
     516 0000000a 9107              STR       A2, [SP, #28]         ; [DPU_3_PIPE] |477|  ; [ORIG 16-BIT INS]
     517 0000000c 9006              STR       A1, [SP, #24]         ; [DPU_3_PIPE] |477|  ; [ORIG 16-BIT INS]
     518                            .dwpsn  file "C:/TI_CodeComposer/TivaWare/sensorlib/i2cm_drv.h",line 478,column 5,is_stmt,isa 
     519 0000000e 9809              LDR       A1, [SP, #36]         ; [DPU_3_PIPE] |478|  ; [ORIG 16-BIT INS]
     520 00000010 9000              STR       A1, [SP, #0]          ; [DPU_3_PIPE] |478|  ; [ORIG 16-BIT INS]
     521 00000012 980C              LDR       A1, [SP, #48]         ; [DPU_3_PIPE] |478|  ; [ORIG 16-BIT INS]
     522 00000014 9001              STR       A1, [SP, #4]          ; [DPU_3_PIPE] |478|  ; [ORIG 16-BIT INS]
     523 00000016 980D              LDR       A1, [SP, #52]         ; [DPU_3_PIPE] |478|  ; [ORIG 16-BIT INS]
     524 00000018 9002              STR       A1, [SP, #8]          ; [DPU_3_PIPE] |478|  ; [ORIG 16-BIT INS]
     525 0000001a 980D              LDR       A1, [SP, #52]         ; [DPU_3_PIPE] |478|  ; [ORIG 16-BIT INS]
     526 0000001c 9003              STR       A1, [SP, #12]         ; [DPU_3_PIPE] |478|  ; [ORIG 16-BIT INS]
     527 0000001e 980E              LDR       A1, [SP, #56]         ; [DPU_3_PIPE] |478|  ; [ORIG 16-BIT INS]
     528 00000020 9004              STR       A1, [SP, #16]         ; [DPU_3_PIPE] |478|  ; [ORIG 16-BIT INS]
     529 00000022 980F              LDR       A1, [SP, #60]         ; [DPU_3_PIPE] |478|  ; [ORIG 16-BIT INS]
     530 00000024 9005              STR       A1, [SP, #20]         ; [DPU_3_PIPE] |478|  ; [ORIG 16-BIT INS]
     531 00000026 9B09              LDR       A4, [SP, #36]         ; [DPU_3_PIPE] |478|  ; [ORIG 16-BIT INS]
     532 00000028 9A08              LDR       A3, [SP, #32]         ; [DPU_3_PIPE] |478|  ; [ORIG 16-BIT INS]
     533 0000002a 9907              LDR       A2, [SP, #28]         ; [DPU_3_PIPE] |478|  ; [ORIG 16-BIT INS]
     534 0000002c 9806              LDR       A1, [SP, #24]         ; [DPU_3_PIPE] |478|  ; [ORIG 16-BIT INS]
     535                    $C$DW$71        .dwtag  DW_TAG_TI_branch
     536                            .dwattr $C$DW$71, DW_AT_low_pc(0x00)
     537                            .dwattr $C$DW$71, DW_AT_name("I2CMCommand")
     538                            .dwattr $C$DW$71, DW_AT_TI_call
     539                    
     540 0000002e FFFEF7FF!         BL        I2CMCommand           ; [DPU_3_PIPE] |478|  ; [KEEP 32-BIT INS]
     541                            ; CALL OCCURS {I2CMCommand }     ; [] |478| 
     542                            .dwpsn  file "C:/TI_CodeComposer/TivaWare/sensorlib/i2cm_drv.h",line 481,column 1,is_stmt,isa 
     543 00000032 B00B              ADD       SP, SP, #44           ; [DPU_3_PIPE]  ; [ORIG 16-BIT INS]
     544                            .dwcfi  cfa_offset, 4
     545                    $C$DW$72        .dwtag  DW_TAG_TI_branch
     546                            .dwattr $C$DW$72, DW_AT_low_pc(0x00)
     547                            .dwattr $C$DW$72, DW_AT_TI_return
     548                    
     549 00000034 BD00              POP       {PC}                  ; [DPU_3_PIPE]  ; [ORIG 16-BIT INS]
     550                            .dwcfi  cfa_offset, 0
TI ARM Assembler PC v15.12.1 Thu Oct 27 14:03:10 2016

Tools Copyright (c) 1996-2015 Texas Instruments Incorporated
Main_Base.asm                                                        PAGE   11

     551                            ; BRANCH OCCURS                  ; [] 
     552                            .dwattr $C$DW$58, DW_AT_TI_end_file("C:/TI_CodeComposer/TivaWare/sensorlib/i2cm_drv.h")
     553                            .dwattr $C$DW$58, DW_AT_TI_end_line(0x1e1)
     554                            .dwattr $C$DW$58, DW_AT_TI_end_column(0x01)
     555                            .dwendentry
     556                            .dwendtag $C$DW$58
     557                    
     558 00000000                   .sect   ".text:I2CMWriteBatched"
     559                            .clink
     560                            .thumbfunc I2CMWriteBatched
     561 00000000                   .thumb
     562                            .global I2CMWriteBatched
     563                    
     564                    $C$DW$73        .dwtag  DW_TAG_subprogram
     565                            .dwattr $C$DW$73, DW_AT_name("I2CMWriteBatched")
     566                            .dwattr $C$DW$73, DW_AT_low_pc(I2CMWriteBatched)
     567                            .dwattr $C$DW$73, DW_AT_high_pc(0x00)
     568                            .dwattr $C$DW$73, DW_AT_TI_symbol_name("I2CMWriteBatched")
     569                            .dwattr $C$DW$73, DW_AT_external
     570                            .dwattr $C$DW$73, DW_AT_type(*$C$DW$T$25)
     571                            .dwattr $C$DW$73, DW_AT_TI_begin_file("C:/TI_CodeComposer/TivaWare/sensorlib/i2cm_drv.h")
     572                            .dwattr $C$DW$73, DW_AT_TI_begin_line(0x1e9)
     573                            .dwattr $C$DW$73, DW_AT_TI_begin_column(0x01)
     574                            .dwattr $C$DW$73, DW_AT_decl_file("C:/TI_CodeComposer/TivaWare/sensorlib/i2cm_drv.h")
     575                            .dwattr $C$DW$73, DW_AT_decl_line(0x1e9)
     576                            .dwattr $C$DW$73, DW_AT_decl_column(0x01)
     577                            .dwattr $C$DW$73, DW_AT_TI_max_frame_size(0x30)
     578                            .dwpsn  file "C:/TI_CodeComposer/TivaWare/sensorlib/i2cm_drv.h",line 493,column 1,is_stmt,addr
     579                    
     580                            .dwfde $C$DW$CIE, I2CMWriteBatched
     581                    $C$DW$74        .dwtag  DW_TAG_formal_parameter
     582                            .dwattr $C$DW$74, DW_AT_name("psInst")
     583                            .dwattr $C$DW$74, DW_AT_TI_symbol_name("psInst")
     584                            .dwattr $C$DW$74, DW_AT_type(*$C$DW$T$34)
     585                            .dwattr $C$DW$74, DW_AT_location[DW_OP_reg0]
     586                    
     587                    $C$DW$75        .dwtag  DW_TAG_formal_parameter
     588                            .dwattr $C$DW$75, DW_AT_name("ui8Addr")
     589                            .dwattr $C$DW$75, DW_AT_TI_symbol_name("ui8Addr")
     590                            .dwattr $C$DW$75, DW_AT_type(*$C$DW$T$25)
     591                            .dwattr $C$DW$75, DW_AT_location[DW_OP_reg1]
     592                    
     593                    $C$DW$76        .dwtag  DW_TAG_formal_parameter
     594                            .dwattr $C$DW$76, DW_AT_name("pui8Data")
     595                            .dwattr $C$DW$76, DW_AT_TI_symbol_name("pui8Data")
     596                            .dwattr $C$DW$76, DW_AT_type(*$C$DW$T$21)
     597                            .dwattr $C$DW$76, DW_AT_location[DW_OP_reg2]
     598                    
     599                    $C$DW$77        .dwtag  DW_TAG_formal_parameter
     600                            .dwattr $C$DW$77, DW_AT_name("ui16Count")
     601                            .dwattr $C$DW$77, DW_AT_TI_symbol_name("ui16Count")
     602                            .dwattr $C$DW$77, DW_AT_type(*$C$DW$T$135)
     603                            .dwattr $C$DW$77, DW_AT_location[DW_OP_reg3]
     604                    
     605                    $C$DW$78        .dwtag  DW_TAG_formal_parameter
TI ARM Assembler PC v15.12.1 Thu Oct 27 14:03:10 2016

Tools Copyright (c) 1996-2015 Texas Instruments Incorporated
Main_Base.asm                                                        PAGE   12

     606                            .dwattr $C$DW$78, DW_AT_name("ui16BatchSize")
     607                            .dwattr $C$DW$78, DW_AT_TI_symbol_name("ui16BatchSize")
     608                            .dwattr $C$DW$78, DW_AT_type(*$C$DW$T$135)
     609                            .dwattr $C$DW$78, DW_AT_location[DW_OP_breg13 48]
     610                    
     611                    $C$DW$79        .dwtag  DW_TAG_formal_parameter
     612                            .dwattr $C$DW$79, DW_AT_name("pfnCallback")
     613                            .dwattr $C$DW$79, DW_AT_TI_symbol_name("pfnCallback")
     614                            .dwattr $C$DW$79, DW_AT_type(*$C$DW$T$28)
     615                            .dwattr $C$DW$79, DW_AT_location[DW_OP_breg13 52]
     616                    
     617                    $C$DW$80        .dwtag  DW_TAG_formal_parameter
     618                            .dwattr $C$DW$80, DW_AT_name("pvCallbackData")
     619                            .dwattr $C$DW$80, DW_AT_TI_symbol_name("pvCallbackData")
     620                            .dwattr $C$DW$80, DW_AT_type(*$C$DW$T$3)
     621                            .dwattr $C$DW$80, DW_AT_location[DW_OP_breg13 56]
     622                    
     623                    
     624                    ;*****************************************************************************
     625                    ;* FUNCTION NAME: I2CMWriteBatched                                           *
     626                    ;*                                                                           *
     627                    ;*   Regs Modified     : A1,A2,A3,A4,V9,SP,LR,SR,D0,D0_hi,D1,D1_hi,D2,D2_hi, *
     628                    ;*                           D3,D3_hi,D4,D4_hi,D5,D5_hi,D6,D6_hi,D7,D7_hi,   *
     629                    ;*                           FPEXC,FPSCR                                     *
     630                    ;*   Regs Used         : A1,A2,A3,A4,V9,SP,LR,SR,D0,D0_hi,D1,D1_hi,D2,D2_hi, *
     631                    ;*                           D3,D3_hi,D4,D4_hi,D5,D5_hi,D6,D6_hi,D7,D7_hi,   *
     632                    ;*                           FPEXC,FPSCR                                     *
     633                    ;*   Local Frame Size  : 24 Args + 16 Auto + 4 Save = 44 byte                *
     634                    ;*****************************************************************************
     635 00000000           I2CMWriteBatched:
     636                    ;* --------------------------------------------------------------------------*
     637                            .dwcfi  cfa_offset, 0
     638 00000000 B500              PUSH      {LR}                  ; [DPU_3_PIPE]  ; [ORIG 16-BIT INS]
     639                            .dwcfi  cfa_offset, 4
     640                            .dwcfi  save_reg_to_mem, 14, -4
     641 00000002 0D2CF1AD          SUB       SP, SP, #44           ; [DPU_3_PIPE]  ; [KEEP 32-BIT INS]
     642                            .dwcfi  cfa_offset, 48
     643                    $C$DW$81        .dwtag  DW_TAG_variable
     644                            .dwattr $C$DW$81, DW_AT_name("psInst")
     645                            .dwattr $C$DW$81, DW_AT_TI_symbol_name("psInst")
     646                            .dwattr $C$DW$81, DW_AT_type(*$C$DW$T$34)
     647                            .dwattr $C$DW$81, DW_AT_location[DW_OP_breg13 24]
     648                    
     649                    $C$DW$82        .dwtag  DW_TAG_variable
     650                            .dwattr $C$DW$82, DW_AT_name("ui8Addr")
     651                            .dwattr $C$DW$82, DW_AT_TI_symbol_name("ui8Addr")
     652                            .dwattr $C$DW$82, DW_AT_type(*$C$DW$T$25)
     653                            .dwattr $C$DW$82, DW_AT_location[DW_OP_breg13 28]
     654                    
     655                    $C$DW$83        .dwtag  DW_TAG_variable
     656                            .dwattr $C$DW$83, DW_AT_name("pui8Data")
     657                            .dwattr $C$DW$83, DW_AT_TI_symbol_name("pui8Data")
     658                            .dwattr $C$DW$83, DW_AT_type(*$C$DW$T$21)
     659                            .dwattr $C$DW$83, DW_AT_location[DW_OP_breg13 32]
     660                    
TI ARM Assembler PC v15.12.1 Thu Oct 27 14:03:10 2016

Tools Copyright (c) 1996-2015 Texas Instruments Incorporated
Main_Base.asm                                                        PAGE   13

     661                    $C$DW$84        .dwtag  DW_TAG_variable
     662                            .dwattr $C$DW$84, DW_AT_name("ui16Count")
     663                            .dwattr $C$DW$84, DW_AT_TI_symbol_name("ui16Count")
     664                            .dwattr $C$DW$84, DW_AT_type(*$C$DW$T$135)
     665                            .dwattr $C$DW$84, DW_AT_location[DW_OP_breg13 36]
     666                    
     667 00000006 9309              STR       A4, [SP, #36]         ; [DPU_3_PIPE] |493|  ; [ORIG 16-BIT INS]
     668 00000008 9208              STR       A3, [SP, #32]         ; [DPU_3_PIPE] |493|  ; [ORIG 16-BIT INS]
     669 0000000a 9107              STR       A2, [SP, #28]         ; [DPU_3_PIPE] |493|  ; [ORIG 16-BIT INS]
     670 0000000c 9006              STR       A1, [SP, #24]         ; [DPU_3_PIPE] |493|  ; [ORIG 16-BIT INS]
     671                            .dwpsn  file "C:/TI_CodeComposer/TivaWare/sensorlib/i2cm_drv.h",line 494,column 5,is_stmt,isa 
     672 0000000e 980C              LDR       A1, [SP, #48]         ; [DPU_3_PIPE] |494|  ; [ORIG 16-BIT INS]
     673 00000010 9000              STR       A1, [SP, #0]          ; [DPU_3_PIPE] |494|  ; [ORIG 16-BIT INS]
     674 00000012 2000              MOVS      A1, #0                ; [DPU_3_PIPE] |494|  ; [ORIG 16-BIT INS]
     675 00000014 9001              STR       A1, [SP, #4]          ; [DPU_3_PIPE] |494|  ; [ORIG 16-BIT INS]
     676 00000016 2000              MOVS      A1, #0                ; [DPU_3_PIPE] |494|  ; [ORIG 16-BIT INS]
     677 00000018 9002              STR       A1, [SP, #8]          ; [DPU_3_PIPE] |494|  ; [ORIG 16-BIT INS]
     678 0000001a 2000              MOVS      A1, #0                ; [DPU_3_PIPE] |494|  ; [ORIG 16-BIT INS]
     679 0000001c 9003              STR       A1, [SP, #12]         ; [DPU_3_PIPE] |494|  ; [ORIG 16-BIT INS]
     680 0000001e 980D              LDR       A1, [SP, #52]         ; [DPU_3_PIPE] |494|  ; [ORIG 16-BIT INS]
     681 00000020 9004              STR       A1, [SP, #16]         ; [DPU_3_PIPE] |494|  ; [ORIG 16-BIT INS]
     682 00000022 980E              LDR       A1, [SP, #56]         ; [DPU_3_PIPE] |494|  ; [ORIG 16-BIT INS]
     683 00000024 9005              STR       A1, [SP, #20]         ; [DPU_3_PIPE] |494|  ; [ORIG 16-BIT INS]
     684 00000026 9B09              LDR       A4, [SP, #36]         ; [DPU_3_PIPE] |494|  ; [ORIG 16-BIT INS]
     685 00000028 9A08              LDR       A3, [SP, #32]         ; [DPU_3_PIPE] |494|  ; [ORIG 16-BIT INS]
     686 0000002a 9907              LDR       A2, [SP, #28]         ; [DPU_3_PIPE] |494|  ; [ORIG 16-BIT INS]
     687 0000002c 9806              LDR       A1, [SP, #24]         ; [DPU_3_PIPE] |494|  ; [ORIG 16-BIT INS]
     688                    $C$DW$85        .dwtag  DW_TAG_TI_branch
     689                            .dwattr $C$DW$85, DW_AT_low_pc(0x00)
     690                            .dwattr $C$DW$85, DW_AT_name("I2CMCommand")
     691                            .dwattr $C$DW$85, DW_AT_TI_call
     692                    
     693 0000002e FFFEF7FF!         BL        I2CMCommand           ; [DPU_3_PIPE] |494|  ; [KEEP 32-BIT INS]
     694                            ; CALL OCCURS {I2CMCommand }     ; [] |494| 
     695                            .dwpsn  file "C:/TI_CodeComposer/TivaWare/sensorlib/i2cm_drv.h",line 496,column 1,is_stmt,isa 
     696 00000032 B00B              ADD       SP, SP, #44           ; [DPU_3_PIPE]  ; [ORIG 16-BIT INS]
     697                            .dwcfi  cfa_offset, 4
     698                    $C$DW$86        .dwtag  DW_TAG_TI_branch
     699                            .dwattr $C$DW$86, DW_AT_low_pc(0x00)
     700                            .dwattr $C$DW$86, DW_AT_TI_return
     701                    
     702 00000034 BD00              POP       {PC}                  ; [DPU_3_PIPE]  ; [ORIG 16-BIT INS]
     703                            .dwcfi  cfa_offset, 0
     704                            ; BRANCH OCCURS                  ; [] 
     705                            .dwattr $C$DW$73, DW_AT_TI_end_file("C:/TI_CodeComposer/TivaWare/sensorlib/i2cm_drv.h")
     706                            .dwattr $C$DW$73, DW_AT_TI_end_line(0x1f0)
     707                            .dwattr $C$DW$73, DW_AT_TI_end_column(0x01)
     708                            .dwendentry
     709                            .dwendtag $C$DW$73
     710                    
     711 00000000                   .sect   ".text:I2CMReadBatched"
     712                            .clink
     713                            .thumbfunc I2CMReadBatched
     714 00000000                   .thumb
     715                            .global I2CMReadBatched
TI ARM Assembler PC v15.12.1 Thu Oct 27 14:03:10 2016

Tools Copyright (c) 1996-2015 Texas Instruments Incorporated
Main_Base.asm                                                        PAGE   14

     716                    
     717                    $C$DW$87        .dwtag  DW_TAG_subprogram
     718                            .dwattr $C$DW$87, DW_AT_name("I2CMReadBatched")
     719                            .dwattr $C$DW$87, DW_AT_low_pc(I2CMReadBatched)
     720                            .dwattr $C$DW$87, DW_AT_high_pc(0x00)
     721                            .dwattr $C$DW$87, DW_AT_TI_symbol_name("I2CMReadBatched")
     722                            .dwattr $C$DW$87, DW_AT_external
     723                            .dwattr $C$DW$87, DW_AT_type(*$C$DW$T$25)
     724                            .dwattr $C$DW$87, DW_AT_TI_begin_file("C:/TI_CodeComposer/TivaWare/sensorlib/i2cm_drv.h")
     725                            .dwattr $C$DW$87, DW_AT_TI_begin_line(0x1f8)
     726                            .dwattr $C$DW$87, DW_AT_TI_begin_column(0x01)
     727                            .dwattr $C$DW$87, DW_AT_decl_file("C:/TI_CodeComposer/TivaWare/sensorlib/i2cm_drv.h")
     728                            .dwattr $C$DW$87, DW_AT_decl_line(0x1f8)
     729                            .dwattr $C$DW$87, DW_AT_decl_column(0x01)
     730                            .dwattr $C$DW$87, DW_AT_TI_max_frame_size(0x30)
     731                            .dwpsn  file "C:/TI_CodeComposer/TivaWare/sensorlib/i2cm_drv.h",line 509,column 1,is_stmt,addr
     732                    
     733                            .dwfde $C$DW$CIE, I2CMReadBatched
     734                    $C$DW$88        .dwtag  DW_TAG_formal_parameter
     735                            .dwattr $C$DW$88, DW_AT_name("psInst")
     736                            .dwattr $C$DW$88, DW_AT_TI_symbol_name("psInst")
     737                            .dwattr $C$DW$88, DW_AT_type(*$C$DW$T$34)
     738                            .dwattr $C$DW$88, DW_AT_location[DW_OP_reg0]
     739                    
     740                    $C$DW$89        .dwtag  DW_TAG_formal_parameter
     741                            .dwattr $C$DW$89, DW_AT_name("ui8Addr")
     742                            .dwattr $C$DW$89, DW_AT_TI_symbol_name("ui8Addr")
     743                            .dwattr $C$DW$89, DW_AT_type(*$C$DW$T$25)
     744                            .dwattr $C$DW$89, DW_AT_location[DW_OP_reg1]
     745                    
     746                    $C$DW$90        .dwtag  DW_TAG_formal_parameter
     747                            .dwattr $C$DW$90, DW_AT_name("pui8WriteData")
     748                            .dwattr $C$DW$90, DW_AT_TI_symbol_name("pui8WriteData")
     749                            .dwattr $C$DW$90, DW_AT_type(*$C$DW$T$21)
     750                            .dwattr $C$DW$90, DW_AT_location[DW_OP_reg2]
     751                    
     752                    $C$DW$91        .dwtag  DW_TAG_formal_parameter
     753                            .dwattr $C$DW$91, DW_AT_name("ui16WriteCount")
     754                            .dwattr $C$DW$91, DW_AT_TI_symbol_name("ui16WriteCount")
     755                            .dwattr $C$DW$91, DW_AT_type(*$C$DW$T$135)
     756                            .dwattr $C$DW$91, DW_AT_location[DW_OP_reg3]
     757                    
     758                    $C$DW$92        .dwtag  DW_TAG_formal_parameter
     759                            .dwattr $C$DW$92, DW_AT_name("ui16WriteBatchSize")
     760                            .dwattr $C$DW$92, DW_AT_TI_symbol_name("ui16WriteBatchSize")
     761                            .dwattr $C$DW$92, DW_AT_type(*$C$DW$T$135)
     762                            .dwattr $C$DW$92, DW_AT_location[DW_OP_breg13 48]
     763                    
     764                    $C$DW$93        .dwtag  DW_TAG_formal_parameter
     765                            .dwattr $C$DW$93, DW_AT_name("pui8ReadData")
     766                            .dwattr $C$DW$93, DW_AT_TI_symbol_name("pui8ReadData")
     767                            .dwattr $C$DW$93, DW_AT_type(*$C$DW$T$23)
     768                            .dwattr $C$DW$93, DW_AT_location[DW_OP_breg13 52]
     769                    
     770                    $C$DW$94        .dwtag  DW_TAG_formal_parameter
TI ARM Assembler PC v15.12.1 Thu Oct 27 14:03:10 2016

Tools Copyright (c) 1996-2015 Texas Instruments Incorporated
Main_Base.asm                                                        PAGE   15

     771                            .dwattr $C$DW$94, DW_AT_name("ui16ReadCount")
     772                            .dwattr $C$DW$94, DW_AT_TI_symbol_name("ui16ReadCount")
     773                            .dwattr $C$DW$94, DW_AT_type(*$C$DW$T$135)
     774                            .dwattr $C$DW$94, DW_AT_location[DW_OP_breg13 56]
     775                    
     776                    $C$DW$95        .dwtag  DW_TAG_formal_parameter
     777                            .dwattr $C$DW$95, DW_AT_name("ui16ReadBatchSize")
     778                            .dwattr $C$DW$95, DW_AT_TI_symbol_name("ui16ReadBatchSize")
     779                            .dwattr $C$DW$95, DW_AT_type(*$C$DW$T$135)
     780                            .dwattr $C$DW$95, DW_AT_location[DW_OP_breg13 60]
     781                    
     782                    $C$DW$96        .dwtag  DW_TAG_formal_parameter
     783                            .dwattr $C$DW$96, DW_AT_name("pfnCallback")
     784                            .dwattr $C$DW$96, DW_AT_TI_symbol_name("pfnCallback")
     785                            .dwattr $C$DW$96, DW_AT_type(*$C$DW$T$28)
     786                            .dwattr $C$DW$96, DW_AT_location[DW_OP_breg13 64]
     787                    
     788                    $C$DW$97        .dwtag  DW_TAG_formal_parameter
     789                            .dwattr $C$DW$97, DW_AT_name("pvCallbackData")
     790                            .dwattr $C$DW$97, DW_AT_TI_symbol_name("pvCallbackData")
     791                            .dwattr $C$DW$97, DW_AT_type(*$C$DW$T$3)
     792                            .dwattr $C$DW$97, DW_AT_location[DW_OP_breg13 68]
     793                    
     794                    
     795                    ;*****************************************************************************
     796                    ;* FUNCTION NAME: I2CMReadBatched                                            *
     797                    ;*                                                                           *
     798                    ;*   Regs Modified     : A1,A2,A3,A4,V9,SP,LR,SR,D0,D0_hi,D1,D1_hi,D2,D2_hi, *
     799                    ;*                           D3,D3_hi,D4,D4_hi,D5,D5_hi,D6,D6_hi,D7,D7_hi,   *
     800                    ;*                           FPEXC,FPSCR                                     *
     801                    ;*   Regs Used         : A1,A2,A3,A4,V9,SP,LR,SR,D0,D0_hi,D1,D1_hi,D2,D2_hi, *
     802                    ;*                           D3,D3_hi,D4,D4_hi,D5,D5_hi,D6,D6_hi,D7,D7_hi,   *
     803                    ;*                           FPEXC,FPSCR                                     *
     804                    ;*   Local Frame Size  : 24 Args + 16 Auto + 4 Save = 44 byte                *
     805                    ;*****************************************************************************
     806 00000000           I2CMReadBatched:
     807                    ;* --------------------------------------------------------------------------*
     808                            .dwcfi  cfa_offset, 0
     809 00000000 B500              PUSH      {LR}                  ; [DPU_3_PIPE]  ; [ORIG 16-BIT INS]
     810                            .dwcfi  cfa_offset, 4
     811                            .dwcfi  save_reg_to_mem, 14, -4
     812 00000002 0D2CF1AD          SUB       SP, SP, #44           ; [DPU_3_PIPE]  ; [KEEP 32-BIT INS]
     813                            .dwcfi  cfa_offset, 48
     814                    $C$DW$98        .dwtag  DW_TAG_variable
     815                            .dwattr $C$DW$98, DW_AT_name("psInst")
     816                            .dwattr $C$DW$98, DW_AT_TI_symbol_name("psInst")
     817                            .dwattr $C$DW$98, DW_AT_type(*$C$DW$T$34)
     818                            .dwattr $C$DW$98, DW_AT_location[DW_OP_breg13 24]
     819                    
     820                    $C$DW$99        .dwtag  DW_TAG_variable
     821                            .dwattr $C$DW$99, DW_AT_name("ui8Addr")
     822                            .dwattr $C$DW$99, DW_AT_TI_symbol_name("ui8Addr")
     823                            .dwattr $C$DW$99, DW_AT_type(*$C$DW$T$25)
     824                            .dwattr $C$DW$99, DW_AT_location[DW_OP_breg13 28]
     825                    
TI ARM Assembler PC v15.12.1 Thu Oct 27 14:03:10 2016

Tools Copyright (c) 1996-2015 Texas Instruments Incorporated
Main_Base.asm                                                        PAGE   16

     826                    $C$DW$100       .dwtag  DW_TAG_variable
     827                            .dwattr $C$DW$100, DW_AT_name("pui8WriteData")
     828                            .dwattr $C$DW$100, DW_AT_TI_symbol_name("pui8WriteData")
     829                            .dwattr $C$DW$100, DW_AT_type(*$C$DW$T$21)
     830                            .dwattr $C$DW$100, DW_AT_location[DW_OP_breg13 32]
     831                    
     832                    $C$DW$101       .dwtag  DW_TAG_variable
     833                            .dwattr $C$DW$101, DW_AT_name("ui16WriteCount")
     834                            .dwattr $C$DW$101, DW_AT_TI_symbol_name("ui16WriteCount")
     835                            .dwattr $C$DW$101, DW_AT_type(*$C$DW$T$135)
     836                            .dwattr $C$DW$101, DW_AT_location[DW_OP_breg13 36]
     837                    
     838 00000006 9309              STR       A4, [SP, #36]         ; [DPU_3_PIPE] |509|  ; [ORIG 16-BIT INS]
     839 00000008 9208              STR       A3, [SP, #32]         ; [DPU_3_PIPE] |509|  ; [ORIG 16-BIT INS]
     840 0000000a 9107              STR       A2, [SP, #28]         ; [DPU_3_PIPE] |509|  ; [ORIG 16-BIT INS]
     841 0000000c 9006              STR       A1, [SP, #24]         ; [DPU_3_PIPE] |509|  ; [ORIG 16-BIT INS]
     842                            .dwpsn  file "C:/TI_CodeComposer/TivaWare/sensorlib/i2cm_drv.h",line 510,column 5,is_stmt,isa 
     843 0000000e 980C              LDR       A1, [SP, #48]         ; [DPU_3_PIPE] |510|  ; [ORIG 16-BIT INS]
     844 00000010 9000              STR       A1, [SP, #0]          ; [DPU_3_PIPE] |510|  ; [ORIG 16-BIT INS]
     845 00000012 980D              LDR       A1, [SP, #52]         ; [DPU_3_PIPE] |510|  ; [ORIG 16-BIT INS]
     846 00000014 9001              STR       A1, [SP, #4]          ; [DPU_3_PIPE] |510|  ; [ORIG 16-BIT INS]
     847 00000016 980E              LDR       A1, [SP, #56]         ; [DPU_3_PIPE] |510|  ; [ORIG 16-BIT INS]
     848 00000018 9002              STR       A1, [SP, #8]          ; [DPU_3_PIPE] |510|  ; [ORIG 16-BIT INS]
     849 0000001a 980F              LDR       A1, [SP, #60]         ; [DPU_3_PIPE] |510|  ; [ORIG 16-BIT INS]
     850 0000001c 9003              STR       A1, [SP, #12]         ; [DPU_3_PIPE] |510|  ; [ORIG 16-BIT INS]
     851 0000001e 9810              LDR       A1, [SP, #64]         ; [DPU_3_PIPE] |510|  ; [ORIG 16-BIT INS]
     852 00000020 9004              STR       A1, [SP, #16]         ; [DPU_3_PIPE] |510|  ; [ORIG 16-BIT INS]
     853 00000022 9811              LDR       A1, [SP, #68]         ; [DPU_3_PIPE] |510|  ; [ORIG 16-BIT INS]
     854 00000024 9005              STR       A1, [SP, #20]         ; [DPU_3_PIPE] |510|  ; [ORIG 16-BIT INS]
     855 00000026 9B09              LDR       A4, [SP, #36]         ; [DPU_3_PIPE] |510|  ; [ORIG 16-BIT INS]
     856 00000028 9A08              LDR       A3, [SP, #32]         ; [DPU_3_PIPE] |510|  ; [ORIG 16-BIT INS]
     857 0000002a 9907              LDR       A2, [SP, #28]         ; [DPU_3_PIPE] |510|  ; [ORIG 16-BIT INS]
     858 0000002c 9806              LDR       A1, [SP, #24]         ; [DPU_3_PIPE] |510|  ; [ORIG 16-BIT INS]
     859                    $C$DW$102       .dwtag  DW_TAG_TI_branch
     860                            .dwattr $C$DW$102, DW_AT_low_pc(0x00)
     861                            .dwattr $C$DW$102, DW_AT_name("I2CMCommand")
     862                            .dwattr $C$DW$102, DW_AT_TI_call
     863                    
     864 0000002e FFFEF7FF!         BL        I2CMCommand           ; [DPU_3_PIPE] |510|  ; [KEEP 32-BIT INS]
     865                            ; CALL OCCURS {I2CMCommand }     ; [] |510| 
     866                            .dwpsn  file "C:/TI_CodeComposer/TivaWare/sensorlib/i2cm_drv.h",line 513,column 1,is_stmt,isa 
     867 00000032 B00B              ADD       SP, SP, #44           ; [DPU_3_PIPE]  ; [ORIG 16-BIT INS]
     868                            .dwcfi  cfa_offset, 4
     869                    $C$DW$103       .dwtag  DW_TAG_TI_branch
     870                            .dwattr $C$DW$103, DW_AT_low_pc(0x00)
     871                            .dwattr $C$DW$103, DW_AT_TI_return
     872                    
     873 00000034 BD00              POP       {PC}                  ; [DPU_3_PIPE]  ; [ORIG 16-BIT INS]
     874                            .dwcfi  cfa_offset, 0
     875                            ; BRANCH OCCURS                  ; [] 
     876                            .dwattr $C$DW$87, DW_AT_TI_end_file("C:/TI_CodeComposer/TivaWare/sensorlib/i2cm_drv.h")
     877                            .dwattr $C$DW$87, DW_AT_TI_end_line(0x201)
     878                            .dwattr $C$DW$87, DW_AT_TI_end_column(0x01)
     879                            .dwendentry
     880                            .dwendtag $C$DW$87
TI ARM Assembler PC v15.12.1 Thu Oct 27 14:03:10 2016

Tools Copyright (c) 1996-2015 Texas Instruments Incorporated
Main_Base.asm                                                        PAGE   17

     881                    
     882 00000000                   .sect   ".text:I2CMReadModifyWrite16BE"
     883                            .clink
     884                            .thumbfunc I2CMReadModifyWrite16BE
     885 00000000                   .thumb
     886                            .global I2CMReadModifyWrite16BE
     887                    
     888                    $C$DW$104       .dwtag  DW_TAG_subprogram
     889                            .dwattr $C$DW$104, DW_AT_name("I2CMReadModifyWrite16BE")
     890                            .dwattr $C$DW$104, DW_AT_low_pc(I2CMReadModifyWrite16BE)
     891                            .dwattr $C$DW$104, DW_AT_high_pc(0x00)
     892                            .dwattr $C$DW$104, DW_AT_TI_symbol_name("I2CMReadModifyWrite16BE")
     893                            .dwattr $C$DW$104, DW_AT_external
     894                            .dwattr $C$DW$104, DW_AT_type(*$C$DW$T$25)
     895                            .dwattr $C$DW$104, DW_AT_TI_begin_file("C:/TI_CodeComposer/TivaWare/sensorlib/i2cm_drv.h")
     896                            .dwattr $C$DW$104, DW_AT_TI_begin_line(0x209)
     897                            .dwattr $C$DW$104, DW_AT_TI_begin_column(0x01)
     898                            .dwattr $C$DW$104, DW_AT_decl_file("C:/TI_CodeComposer/TivaWare/sensorlib/i2cm_drv.h")
     899                            .dwattr $C$DW$104, DW_AT_decl_line(0x209)
     900                            .dwattr $C$DW$104, DW_AT_decl_column(0x01)
     901                            .dwattr $C$DW$104, DW_AT_TI_max_frame_size(0x28)
     902                            .dwpsn  file "C:/TI_CodeComposer/TivaWare/sensorlib/i2cm_drv.h",line 526,column 1,is_stmt,addr
     903                    
     904                            .dwfde $C$DW$CIE, I2CMReadModifyWrite16BE
     905                    $C$DW$105       .dwtag  DW_TAG_formal_parameter
     906                            .dwattr $C$DW$105, DW_AT_name("psInst")
     907                            .dwattr $C$DW$105, DW_AT_TI_symbol_name("psInst")
     908                            .dwattr $C$DW$105, DW_AT_type(*$C$DW$T$91)
     909                            .dwattr $C$DW$105, DW_AT_location[DW_OP_reg0]
     910                    
     911                    $C$DW$106       .dwtag  DW_TAG_formal_parameter
     912                            .dwattr $C$DW$106, DW_AT_name("psI2CInst")
     913                            .dwattr $C$DW$106, DW_AT_TI_symbol_name("psI2CInst")
     914                            .dwattr $C$DW$106, DW_AT_type(*$C$DW$T$34)
     915                            .dwattr $C$DW$106, DW_AT_location[DW_OP_reg1]
     916                    
     917                    $C$DW$107       .dwtag  DW_TAG_formal_parameter
     918                            .dwattr $C$DW$107, DW_AT_name("ui8Addr")
     919                            .dwattr $C$DW$107, DW_AT_TI_symbol_name("ui8Addr")
     920                            .dwattr $C$DW$107, DW_AT_type(*$C$DW$T$25)
     921                            .dwattr $C$DW$107, DW_AT_location[DW_OP_reg2]
     922                    
     923                    $C$DW$108       .dwtag  DW_TAG_formal_parameter
     924                            .dwattr $C$DW$108, DW_AT_name("ui8Reg")
     925                            .dwattr $C$DW$108, DW_AT_TI_symbol_name("ui8Reg")
     926                            .dwattr $C$DW$108, DW_AT_type(*$C$DW$T$25)
     927                            .dwattr $C$DW$108, DW_AT_location[DW_OP_reg3]
     928                    
     929                    $C$DW$109       .dwtag  DW_TAG_formal_parameter
     930                            .dwattr $C$DW$109, DW_AT_name("ui16Mask")
     931                            .dwattr $C$DW$109, DW_AT_TI_symbol_name("ui16Mask")
     932                            .dwattr $C$DW$109, DW_AT_type(*$C$DW$T$135)
     933                            .dwattr $C$DW$109, DW_AT_location[DW_OP_breg13 40]
     934                    
     935                    $C$DW$110       .dwtag  DW_TAG_formal_parameter
TI ARM Assembler PC v15.12.1 Thu Oct 27 14:03:10 2016

Tools Copyright (c) 1996-2015 Texas Instruments Incorporated
Main_Base.asm                                                        PAGE   18

     936                            .dwattr $C$DW$110, DW_AT_name("ui16Value")
     937                            .dwattr $C$DW$110, DW_AT_TI_symbol_name("ui16Value")
     938                            .dwattr $C$DW$110, DW_AT_type(*$C$DW$T$135)
     939                            .dwattr $C$DW$110, DW_AT_location[DW_OP_breg13 44]
     940                    
     941                    $C$DW$111       .dwtag  DW_TAG_formal_parameter
     942                            .dwattr $C$DW$111, DW_AT_name("pfnCallback")
     943                            .dwattr $C$DW$111, DW_AT_TI_symbol_name("pfnCallback")
     944                            .dwattr $C$DW$111, DW_AT_type(*$C$DW$T$28)
     945                            .dwattr $C$DW$111, DW_AT_location[DW_OP_breg13 48]
     946                    
     947                    $C$DW$112       .dwtag  DW_TAG_formal_parameter
     948                            .dwattr $C$DW$112, DW_AT_name("pvCallbackData")
     949                            .dwattr $C$DW$112, DW_AT_TI_symbol_name("pvCallbackData")
     950                            .dwattr $C$DW$112, DW_AT_type(*$C$DW$T$3)
     951                            .dwattr $C$DW$112, DW_AT_location[DW_OP_breg13 52]
     952                    
     953                    
     954                    ;*****************************************************************************
     955                    ;* FUNCTION NAME: I2CMReadModifyWrite16BE                                    *
     956                    ;*                                                                           *
     957                    ;*   Regs Modified     : A1,A2,A3,A4,V9,SP,LR,SR,D0,D0_hi,D1,D1_hi,D2,D2_hi, *
     958                    ;*                           D3,D3_hi,D4,D4_hi,D5,D5_hi,D6,D6_hi,D7,D7_hi,   *
     959                    ;*                           FPEXC,FPSCR                                     *
     960                    ;*   Regs Used         : A1,A2,A3,A4,V9,SP,LR,SR,D0,D0_hi,D1,D1_hi,D2,D2_hi, *
     961                    ;*                           D3,D3_hi,D4,D4_hi,D5,D5_hi,D6,D6_hi,D7,D7_hi,   *
     962                    ;*                           FPEXC,FPSCR                                     *
     963                    ;*   Local Frame Size  : 16 Args + 16 Auto + 4 Save = 36 byte                *
     964                    ;*****************************************************************************
     965 00000000           I2CMReadModifyWrite16BE:
     966                    ;* --------------------------------------------------------------------------*
     967                            .dwcfi  cfa_offset, 0
     968 00000000 B500              PUSH      {LR}                  ; [DPU_3_PIPE]  ; [ORIG 16-BIT INS]
     969                            .dwcfi  cfa_offset, 4
     970                            .dwcfi  save_reg_to_mem, 14, -4
     971 00000002 0D24F1AD          SUB       SP, SP, #36           ; [DPU_3_PIPE]  ; [KEEP 32-BIT INS]
     972                            .dwcfi  cfa_offset, 40
     973                    $C$DW$113       .dwtag  DW_TAG_variable
     974                            .dwattr $C$DW$113, DW_AT_name("psInst")
     975                            .dwattr $C$DW$113, DW_AT_TI_symbol_name("psInst")
     976                            .dwattr $C$DW$113, DW_AT_type(*$C$DW$T$91)
     977                            .dwattr $C$DW$113, DW_AT_location[DW_OP_breg13 16]
     978                    
     979                    $C$DW$114       .dwtag  DW_TAG_variable
     980                            .dwattr $C$DW$114, DW_AT_name("psI2CInst")
     981                            .dwattr $C$DW$114, DW_AT_TI_symbol_name("psI2CInst")
     982                            .dwattr $C$DW$114, DW_AT_type(*$C$DW$T$34)
     983                            .dwattr $C$DW$114, DW_AT_location[DW_OP_breg13 20]
     984                    
     985                    $C$DW$115       .dwtag  DW_TAG_variable
     986                            .dwattr $C$DW$115, DW_AT_name("ui8Addr")
     987                            .dwattr $C$DW$115, DW_AT_TI_symbol_name("ui8Addr")
     988                            .dwattr $C$DW$115, DW_AT_type(*$C$DW$T$25)
     989                            .dwattr $C$DW$115, DW_AT_location[DW_OP_breg13 24]
     990                    
TI ARM Assembler PC v15.12.1 Thu Oct 27 14:03:10 2016

Tools Copyright (c) 1996-2015 Texas Instruments Incorporated
Main_Base.asm                                                        PAGE   19

     991                    $C$DW$116       .dwtag  DW_TAG_variable
     992                            .dwattr $C$DW$116, DW_AT_name("ui8Reg")
     993                            .dwattr $C$DW$116, DW_AT_TI_symbol_name("ui8Reg")
     994                            .dwattr $C$DW$116, DW_AT_type(*$C$DW$T$25)
     995                            .dwattr $C$DW$116, DW_AT_location[DW_OP_breg13 28]
     996                    
     997 00000006 9307              STR       A4, [SP, #28]         ; [DPU_3_PIPE] |526|  ; [ORIG 16-BIT INS]
     998 00000008 9206              STR       A3, [SP, #24]         ; [DPU_3_PIPE] |526|  ; [ORIG 16-BIT INS]
     999 0000000a 9105              STR       A2, [SP, #20]         ; [DPU_3_PIPE] |526|  ; [ORIG 16-BIT INS]
    1000 0000000c 9004              STR       A1, [SP, #16]         ; [DPU_3_PIPE] |526|  ; [ORIG 16-BIT INS]
    1001                            .dwpsn  file "C:/TI_CodeComposer/TivaWare/sensorlib/i2cm_drv.h",line 527,column 5,is_stmt,isa 
    1002 0000000e 980A              LDR       A1, [SP, #40]         ; [DPU_3_PIPE] |527|  ; [ORIG 16-BIT INS]
    1003 00000010 990A              LDR       A2, [SP, #40]         ; [DPU_3_PIPE] |527|  ; [ORIG 16-BIT INS]
    1004 00000012 407FF400          AND       A1, A1, #65280        ; [DPU_3_PIPE] |527|  ; [KEEP 32-BIT INS]
    1005 00000016 01FFF001          AND       A2, A2, #255          ; [DPU_3_PIPE] |527|  ; [KEEP 32-BIT INS]
    1006 0000001a 0A00              LSRS      A1, A1, #8            ; [DPU_3_PIPE] |527|  ; [ORIG 16-BIT INS]
    1007 0000001c 2001EA40          ORR       A1, A1, A2, LSL #8    ; [DPU_3_PIPE] |527|  ; [KEEP 32-BIT INS]
    1008 00000020 990B              LDR       A2, [SP, #44]         ; [DPU_3_PIPE] |527|  ; [ORIG 16-BIT INS]
    1009 00000022 9000              STR       A1, [SP, #0]          ; [DPU_3_PIPE] |527|  ; [ORIG 16-BIT INS]
    1010 00000024 980B              LDR       A1, [SP, #44]         ; [DPU_3_PIPE] |527|  ; [ORIG 16-BIT INS]
    1011 00000026 01FFF001          AND       A2, A2, #255          ; [DPU_3_PIPE] |527|  ; [KEEP 32-BIT INS]
    1012 0000002a 407FF400          AND       A1, A1, #65280        ; [DPU_3_PIPE] |527|  ; [KEEP 32-BIT INS]
    1013 0000002e 0A00              LSRS      A1, A1, #8            ; [DPU_3_PIPE] |527|  ; [ORIG 16-BIT INS]
    1014 00000030 2001EA40          ORR       A1, A1, A2, LSL #8    ; [DPU_3_PIPE] |527|  ; [KEEP 32-BIT INS]
    1015 00000034 9001              STR       A1, [SP, #4]          ; [DPU_3_PIPE] |527|  ; [ORIG 16-BIT INS]
    1016 00000036 980C              LDR       A1, [SP, #48]         ; [DPU_3_PIPE] |527|  ; [ORIG 16-BIT INS]
    1017 00000038 9002              STR       A1, [SP, #8]          ; [DPU_3_PIPE] |527|  ; [ORIG 16-BIT INS]
    1018 0000003a 980D              LDR       A1, [SP, #52]         ; [DPU_3_PIPE] |527|  ; [ORIG 16-BIT INS]
    1019 0000003c 9003              STR       A1, [SP, #12]         ; [DPU_3_PIPE] |527|  ; [ORIG 16-BIT INS]
    1020 0000003e 9A06              LDR       A3, [SP, #24]         ; [DPU_3_PIPE] |527|  ; [ORIG 16-BIT INS]
    1021 00000040 9B07              LDR       A4, [SP, #28]         ; [DPU_3_PIPE] |527|  ; [ORIG 16-BIT INS]
    1022 00000042 9905              LDR       A2, [SP, #20]         ; [DPU_3_PIPE] |527|  ; [ORIG 16-BIT INS]
    1023 00000044 9804              LDR       A1, [SP, #16]         ; [DPU_3_PIPE] |527|  ; [ORIG 16-BIT INS]
    1024                    $C$DW$117       .dwtag  DW_TAG_TI_branch
    1025                            .dwattr $C$DW$117, DW_AT_low_pc(0x00)
    1026                            .dwattr $C$DW$117, DW_AT_name("I2CMReadModifyWrite16LE")
    1027                            .dwattr $C$DW$117, DW_AT_TI_call
    1028                    
    1029 00000046 FFFEF7FF!         BL        I2CMReadModifyWrite16LE ; [DPU_3_PIPE] |527|  ; [KEEP 32-BIT INS]
    1030                            ; CALL OCCURS {I2CMReadModifyWrite16LE }  ; [] |527| 
    1031                            .dwpsn  file "C:/TI_CodeComposer/TivaWare/sensorlib/i2cm_drv.h",line 533,column 1,is_stmt,isa 
    1032 0000004a B009              ADD       SP, SP, #36           ; [DPU_3_PIPE]  ; [ORIG 16-BIT INS]
    1033                            .dwcfi  cfa_offset, 4
    1034                    $C$DW$118       .dwtag  DW_TAG_TI_branch
    1035                            .dwattr $C$DW$118, DW_AT_low_pc(0x00)
    1036                            .dwattr $C$DW$118, DW_AT_TI_return
    1037                    
    1038 0000004c BD00              POP       {PC}                  ; [DPU_3_PIPE]  ; [ORIG 16-BIT INS]
    1039                            .dwcfi  cfa_offset, 0
    1040                            ; BRANCH OCCURS                  ; [] 
    1041                            .dwattr $C$DW$104, DW_AT_TI_end_file("C:/TI_CodeComposer/TivaWare/sensorlib/i2cm_drv.h")
    1042                            .dwattr $C$DW$104, DW_AT_TI_end_line(0x215)
    1043                            .dwattr $C$DW$104, DW_AT_TI_end_column(0x01)
    1044                            .dwendentry
    1045                            .dwendtag $C$DW$104
TI ARM Assembler PC v15.12.1 Thu Oct 27 14:03:10 2016

Tools Copyright (c) 1996-2015 Texas Instruments Incorporated
Main_Base.asm                                                        PAGE   20

    1046                    
    1047 00000000                   .sect   ".text"
    1048                            .clink
    1049                            .thumbfunc main
    1050 00000000                   .thumb
    1051                            .global main
    1052                    
    1053                    $C$DW$119       .dwtag  DW_TAG_subprogram
    1054                            .dwattr $C$DW$119, DW_AT_name("main")
    1055                            .dwattr $C$DW$119, DW_AT_low_pc(main)
    1056                            .dwattr $C$DW$119, DW_AT_high_pc(0x00)
    1057                            .dwattr $C$DW$119, DW_AT_TI_symbol_name("main")
    1058                            .dwattr $C$DW$119, DW_AT_external
    1059                            .dwattr $C$DW$119, DW_AT_type(*$C$DW$T$10)
    1060                            .dwattr $C$DW$119, DW_AT_TI_begin_file("../Main_Base.c")
    1061                            .dwattr $C$DW$119, DW_AT_TI_begin_line(0x28)
    1062                            .dwattr $C$DW$119, DW_AT_TI_begin_column(0x05)
    1063                            .dwattr $C$DW$119, DW_AT_decl_file("../Main_Base.c")
    1064                            .dwattr $C$DW$119, DW_AT_decl_line(0x28)
    1065                            .dwattr $C$DW$119, DW_AT_decl_column(0x05)
    1066                            .dwattr $C$DW$119, DW_AT_TI_max_frame_size(0x18)
    1067                            .dwpsn  file "../Main_Base.c",line 40,column 16,is_stmt,address main,isa 1
    1068                    
    1069                            .dwfde $C$DW$CIE, main
    1070                    
    1071                    ;*****************************************************************************
    1072                    ;* FUNCTION NAME: main                                                       *
    1073                    ;*                                                                           *
    1074                    ;*   Regs Modified     : A1,A2,A3,A4,V9,SP,LR,SR,D0,D0_hi,D1,D1_hi,D2,D2_hi, *
    1075                    ;*                           D3,D3_hi,D4,D4_hi,D5,D5_hi,D6,D6_hi,D7,D7_hi,   *
    1076                    ;*                           FPEXC,FPSCR                                     *
    1077                    ;*   Regs Used         : A1,A2,A3,A4,V9,SP,LR,SR,D0,D0_hi,D1,D1_hi,D2,D2_hi, *
    1078                    ;*                           D3,D3_hi,D4,D4_hi,D5,D5_hi,D6,D6_hi,D7,D7_hi,   *
    1079                    ;*                           FPEXC,FPSCR                                     *
    1080                    ;*   Local Frame Size  : 16 Args + 4 Auto + 4 Save = 24 byte                 *
    1081                    ;*****************************************************************************
    1082 00000000           main:
    1083                    ;* --------------------------------------------------------------------------*
    1084                            .dwcfi  cfa_offset, 0
    1085 00000000 B500              PUSH      {LR}                  ; [DPU_3_PIPE]  ; [ORIG 16-BIT INS]
    1086                            .dwcfi  cfa_offset, 4
    1087                            .dwcfi  save_reg_to_mem, 14, -4
    1088 00000002 0D14F1AD          SUB       SP, SP, #20           ; [DPU_3_PIPE]  ; [KEEP 32-BIT INS]
    1089                            .dwcfi  cfa_offset, 24
    1090                    $C$DW$120       .dwtag  DW_TAG_variable
    1091                            .dwattr $C$DW$120, DW_AT_name("Status")
    1092                            .dwattr $C$DW$120, DW_AT_TI_symbol_name("Status")
    1093                            .dwattr $C$DW$120, DW_AT_type(*$C$DW$T$24)
    1094                            .dwattr $C$DW$120, DW_AT_location[DW_OP_breg13 16]
    1095                    
    1096                            .dwpsn  file "../Main_Base.c",line 44,column 2,is_stmt,isa 1
    1097                    $C$DW$121       .dwtag  DW_TAG_TI_branch
    1098                            .dwattr $C$DW$121, DW_AT_low_pc(0x00)
    1099                            .dwattr $C$DW$121, DW_AT_name("Processor_Initialization")
    1100                            .dwattr $C$DW$121, DW_AT_TI_call
TI ARM Assembler PC v15.12.1 Thu Oct 27 14:03:10 2016

Tools Copyright (c) 1996-2015 Texas Instruments Incorporated
Main_Base.asm                                                        PAGE   21

    1101                    
    1102 00000006 FFFEF7FF!         BL        Processor_Initialization ; [DPU_3_PIPE] |44|  ; [KEEP 32-BIT INS]
    1103                            ; CALL OCCURS {Processor_Initialization }  ; [] |44| 
    1104 0000000a 9004              STR       A1, [SP, #16]         ; [DPU_3_PIPE] |44|  ; [ORIG 16-BIT INS]
    1105                            .dwpsn  file "../Main_Base.c",line 45,column 2,is_stmt,isa 1
    1106                    $C$DW$122       .dwtag  DW_TAG_TI_branch
    1107                            .dwattr $C$DW$122, DW_AT_low_pc(0x00)
    1108                            .dwattr $C$DW$122, DW_AT_name("UART_Initialization")
    1109                            .dwattr $C$DW$122, DW_AT_TI_call
    1110                    
    1111 0000000c FFFEF7FF!         BL        UART_Initialization   ; [DPU_3_PIPE] |45|  ; [KEEP 32-BIT INS]
    1112                            ; CALL OCCURS {UART_Initialization }  ; [] |45| 
    1113 00000010 9004              STR       A1, [SP, #16]         ; [DPU_3_PIPE] |45|  ; [ORIG 16-BIT INS]
    1114                            .dwpsn  file "../Main_Base.c",line 50,column 2,is_stmt,isa 1
    1115 00000012 2001              MOVS      A1, #1                ; [DPU_3_PIPE] |50|  ; [ORIG 16-BIT INS]
    1116 00000014 9000              STR       A1, [SP, #0]          ; [DPU_3_PIPE] |50|  ; [ORIG 16-BIT INS]
    1117 00000016 2000              MOVS      A1, #0                ; [DPU_3_PIPE] |50|  ; [ORIG 16-BIT INS]
    1118 00000018 9001              STR       A1, [SP, #4]          ; [DPU_3_PIPE] |50|  ; [ORIG 16-BIT INS]
    1119 0000001a 2000              MOVS      A1, #0                ; [DPU_3_PIPE] |50|  ; [ORIG 16-BIT INS]
    1120 0000001c 9002              STR       A1, [SP, #8]          ; [DPU_3_PIPE] |50|  ; [ORIG 16-BIT INS]
    1121 0000001e 2000              MOVS      A1, #0                ; [DPU_3_PIPE] |50|  ; [ORIG 16-BIT INS]
    1122 00000020 9003              STR       A1, [SP, #12]         ; [DPU_3_PIPE] |50|  ; [ORIG 16-BIT INS]
    1123 00000022 482C              LDR       A1, $C$CON1           ; [DPU_3_PIPE] |50|  ; [ORIG 16-BIT INS]
    1124 00000024 A11B              ADR       A2, $C$SL1            ; [DPU_3_PIPE] |50|  ; [ORIG 16-BIT INS]
    1125 00000026 2280              MOVS      A3, #128              ; [DPU_3_PIPE] |50|  ; [ORIG 16-BIT INS]
    1126 00000028 2300              MOVS      A4, #0                ; [DPU_3_PIPE] |50|  ; [ORIG 16-BIT INS]
    1127                    $C$DW$123       .dwtag  DW_TAG_TI_branch
    1128                            .dwattr $C$DW$123, DW_AT_low_pc(0x00)
    1129                            .dwattr $C$DW$123, DW_AT_name("xTaskGenericCreate")
    1130                            .dwattr $C$DW$123, DW_AT_TI_call
    1131                    
    1132 0000002a FFFEF7FF!         BL        xTaskGenericCreate    ; [DPU_3_PIPE] |50|  ; [KEEP 32-BIT INS]
    1133                            ; CALL OCCURS {xTaskGenericCreate }  ; [] |50| 
    1134                            .dwpsn  file "../Main_Base.c",line 55,column 2,is_stmt,isa 1
    1135 0000002e 2001              MOVS      A1, #1                ; [DPU_3_PIPE] |55|  ; [ORIG 16-BIT INS]
    1136 00000030 9000              STR       A1, [SP, #0]          ; [DPU_3_PIPE] |55|  ; [ORIG 16-BIT INS]
    1137 00000032 2000              MOVS      A1, #0                ; [DPU_3_PIPE] |55|  ; [ORIG 16-BIT INS]
    1138 00000034 9001              STR       A1, [SP, #4]          ; [DPU_3_PIPE] |55|  ; [ORIG 16-BIT INS]
    1139 00000036 2000              MOVS      A1, #0                ; [DPU_3_PIPE] |55|  ; [ORIG 16-BIT INS]
    1140 00000038 9002              STR       A1, [SP, #8]          ; [DPU_3_PIPE] |55|  ; [ORIG 16-BIT INS]
    1141 0000003a 2000              MOVS      A1, #0                ; [DPU_3_PIPE] |55|  ; [ORIG 16-BIT INS]
    1142 0000003c 9003              STR       A1, [SP, #12]         ; [DPU_3_PIPE] |55|  ; [ORIG 16-BIT INS]
    1143 0000003e 4826              LDR       A1, $C$CON2           ; [DPU_3_PIPE] |55|  ; [ORIG 16-BIT INS]
    1144 00000040 A116              ADR       A2, $C$SL2            ; [DPU_3_PIPE] |55|  ; [ORIG 16-BIT INS]
    1145 00000042 7200F44F          MOV       A3, #512              ; [DPU_3_PIPE] |55|  ; [KEEP 32-BIT INS]
    1146 00000046 2300              MOVS      A4, #0                ; [DPU_3_PIPE] |55|  ; [ORIG 16-BIT INS]
    1147                    $C$DW$124       .dwtag  DW_TAG_TI_branch
    1148                            .dwattr $C$DW$124, DW_AT_low_pc(0x00)
    1149                            .dwattr $C$DW$124, DW_AT_name("xTaskGenericCreate")
    1150                            .dwattr $C$DW$124, DW_AT_TI_call
    1151                    
    1152 00000048 FFFEF7FF!         BL        xTaskGenericCreate    ; [DPU_3_PIPE] |55|  ; [KEEP 32-BIT INS]
    1153                            ; CALL OCCURS {xTaskGenericCreate }  ; [] |55| 
    1154                            .dwpsn  file "../Main_Base.c",line 65,column 2,is_stmt,isa 1
    1155 0000004c 2001              MOVS      A1, #1                ; [DPU_3_PIPE] |65|  ; [ORIG 16-BIT INS]
TI ARM Assembler PC v15.12.1 Thu Oct 27 14:03:10 2016

Tools Copyright (c) 1996-2015 Texas Instruments Incorporated
Main_Base.asm                                                        PAGE   22

    1156 0000004e 9000              STR       A1, [SP, #0]          ; [DPU_3_PIPE] |65|  ; [ORIG 16-BIT INS]
    1157 00000050 2000              MOVS      A1, #0                ; [DPU_3_PIPE] |65|  ; [ORIG 16-BIT INS]
    1158 00000052 9001              STR       A1, [SP, #4]          ; [DPU_3_PIPE] |65|  ; [ORIG 16-BIT INS]
    1159 00000054 2000              MOVS      A1, #0                ; [DPU_3_PIPE] |65|  ; [ORIG 16-BIT INS]
    1160 00000056 9002              STR       A1, [SP, #8]          ; [DPU_3_PIPE] |65|  ; [ORIG 16-BIT INS]
    1161 00000058 2000              MOVS      A1, #0                ; [DPU_3_PIPE] |65|  ; [ORIG 16-BIT INS]
    1162 0000005a 9003              STR       A1, [SP, #12]         ; [DPU_3_PIPE] |65|  ; [ORIG 16-BIT INS]
    1163 0000005c 481F              LDR       A1, $C$CON3           ; [DPU_3_PIPE] |65|  ; [ORIG 16-BIT INS]
    1164 0000005e A112              ADR       A2, $C$SL3            ; [DPU_3_PIPE] |65|  ; [ORIG 16-BIT INS]
    1165 00000060 7200F44F          MOV       A3, #512              ; [DPU_3_PIPE] |65|  ; [KEEP 32-BIT INS]
    1166 00000064 2300              MOVS      A4, #0                ; [DPU_3_PIPE] |65|  ; [ORIG 16-BIT INS]
    1167                    $C$DW$125       .dwtag  DW_TAG_TI_branch
    1168                            .dwattr $C$DW$125, DW_AT_low_pc(0x00)
    1169                            .dwattr $C$DW$125, DW_AT_name("xTaskGenericCreate")
    1170                            .dwattr $C$DW$125, DW_AT_TI_call
    1171                    
    1172 00000066 FFFEF7FF!         BL        xTaskGenericCreate    ; [DPU_3_PIPE] |65|  ; [KEEP 32-BIT INS]
    1173                            ; CALL OCCURS {xTaskGenericCreate }  ; [] |65| 
    1174                            .dwpsn  file "../Main_Base.c",line 67,column 2,is_stmt,isa 1
    1175 0000006a 2001              MOVS      A1, #1                ; [DPU_3_PIPE] |67|  ; [ORIG 16-BIT INS]
    1176 0000006c 9000              STR       A1, [SP, #0]          ; [DPU_3_PIPE] |67|  ; [ORIG 16-BIT INS]
    1177 0000006e 2000              MOVS      A1, #0                ; [DPU_3_PIPE] |67|  ; [ORIG 16-BIT INS]
    1178 00000070 9001              STR       A1, [SP, #4]          ; [DPU_3_PIPE] |67|  ; [ORIG 16-BIT INS]
    1179 00000072 2000              MOVS      A1, #0                ; [DPU_3_PIPE] |67|  ; [ORIG 16-BIT INS]
    1180 00000074 9002              STR       A1, [SP, #8]          ; [DPU_3_PIPE] |67|  ; [ORIG 16-BIT INS]
    1181 00000076 2000              MOVS      A1, #0                ; [DPU_3_PIPE] |67|  ; [ORIG 16-BIT INS]
    1182 00000078 9003              STR       A1, [SP, #12]         ; [DPU_3_PIPE] |67|  ; [ORIG 16-BIT INS]
    1183 0000007a 4819              LDR       A1, $C$CON4           ; [DPU_3_PIPE] |67|  ; [ORIG 16-BIT INS]
    1184 0000007c A10E              ADR       A2, $C$SL4            ; [DPU_3_PIPE] |67|  ; [ORIG 16-BIT INS]
    1185 0000007e 7200F44F          MOV       A3, #512              ; [DPU_3_PIPE] |67|  ; [KEEP 32-BIT INS]
    1186 00000082 2300              MOVS      A4, #0                ; [DPU_3_PIPE] |67|  ; [ORIG 16-BIT INS]
    1187                    $C$DW$126       .dwtag  DW_TAG_TI_branch
    1188                            .dwattr $C$DW$126, DW_AT_low_pc(0x00)
    1189                            .dwattr $C$DW$126, DW_AT_name("xTaskGenericCreate")
    1190                            .dwattr $C$DW$126, DW_AT_TI_call
    1191                    
    1192 00000084 FFFEF7FF!         BL        xTaskGenericCreate    ; [DPU_3_PIPE] |67|  ; [KEEP 32-BIT INS]
    1193                            ; CALL OCCURS {xTaskGenericCreate }  ; [] |67| 
    1194                            .dwpsn  file "../Main_Base.c",line 70,column 2,is_stmt,isa 1
    1195 00000088 A00D              ADR       A1, $C$SL5            ; [DPU_3_PIPE] |70|  ; [ORIG 16-BIT INS]
    1196                    $C$DW$127       .dwtag  DW_TAG_TI_branch
    1197                            .dwattr $C$DW$127, DW_AT_low_pc(0x00)
    1198                            .dwattr $C$DW$127, DW_AT_name("UARTprintf")
    1199                            .dwattr $C$DW$127, DW_AT_TI_call
    1200                    
    1201 0000008a FFFEF7FF!         BL        UARTprintf            ; [DPU_3_PIPE] |70|  ; [KEEP 32-BIT INS]
    1202                            ; CALL OCCURS {UARTprintf }      ; [] |70| 
    1203                            .dwpsn  file "../Main_Base.c",line 75,column 2,is_stmt,isa 1
    1204                    $C$DW$128       .dwtag  DW_TAG_TI_branch
    1205                            .dwattr $C$DW$128, DW_AT_low_pc(0x00)
    1206                            .dwattr $C$DW$128, DW_AT_name("vTaskStartScheduler")
    1207                            .dwattr $C$DW$128, DW_AT_TI_call
    1208                    
    1209 0000008e FFFEF7FF!         BL        vTaskStartScheduler   ; [DPU_3_PIPE] |75|  ; [KEEP 32-BIT INS]
    1210                            ; CALL OCCURS {vTaskStartScheduler }  ; [] |75| 
TI ARM Assembler PC v15.12.1 Thu Oct 27 14:03:10 2016

Tools Copyright (c) 1996-2015 Texas Instruments Incorporated
Main_Base.asm                                                        PAGE   23

    1211                            .dwpsn  file "../Main_Base.c",line 77,column 9,is_stmt,isa 1
    1212                    ;* --------------------------------------------------------------------------*
    1213                    ;*   BEGIN LOOP ||$C$L1||
    1214                    ;*
    1215                    ;*   Loop source line                : 77
    1216                    ;*   Loop closing brace source line  : 79
    1217                    ;*   Known Minimum Trip Count        : 1
    1218                    ;*   Known Maximum Trip Count        : 4294967295
    1219                    ;*   Known Max Trip Count Factor     : 1
    1220                    ;* --------------------------------------------------------------------------*
    1221 00000092           ||$C$L1||:    
    1222 00000092 E7FE              B         ||$C$L1||             ; [DPU_3_PIPE] |77|  ; [ORIG 16-BIT INS]
    1223                            ; BRANCH OCCURS {||$C$L1||}      ; [] |77| 
    1224                    ;* --------------------------------------------------------------------------*
    1225                            .dwattr $C$DW$119, DW_AT_TI_end_file("../Main_Base.c")
    1226                            .dwattr $C$DW$119, DW_AT_TI_end_line(0x51)
    1227                            .dwattr $C$DW$119, DW_AT_TI_end_column(0x01)
    1228                            .dwendentry
    1229                            .dwendtag $C$DW$119
    1230                    
    1231                    ;******************************************************************************
    1232                    ;* STRINGS                                                                    *
    1233                    ;******************************************************************************
    1234 00000094                   .sect   ".text"
    1235                            .align  4
    1236 00000094 42        ||$C$SL1||:     .string "Blinky",0
         00000095 6C       
         00000096 69       
         00000097 6E       
         00000098 6B       
         00000099 79       
         0000009a 00       
    1237                            .align  4
    1238 0000009c 52        ||$C$SL2||:     .string "ReportData",0
         0000009d 65       
         0000009e 70       
         0000009f 6F       
         000000a0 72       
         000000a1 74       
         000000a2 44       
         000000a3 61       
         000000a4 74       
         000000a5 61       
         000000a6 00       
    1239                            .align  4
    1240 000000a8 4D        ||$C$SL3||:     .string "Magnetometer",0
         000000a9 61       
         000000aa 67       
         000000ab 6E       
         000000ac 65       
         000000ad 74       
         000000ae 6F       
         000000af 6D       
         000000b0 65       
         000000b1 74       
TI ARM Assembler PC v15.12.1 Thu Oct 27 14:03:10 2016

Tools Copyright (c) 1996-2015 Texas Instruments Incorporated
Main_Base.asm                                                        PAGE   24

         000000b2 65       
         000000b3 72       
         000000b4 00       
    1241                            .align  4
    1242 000000b8 47        ||$C$SL4||:     .string "Gyro",0
         000000b9 79       
         000000ba 72       
         000000bb 6F       
         000000bc 00       
    1243                            .align  4
    1244 000000c0 46        ||$C$SL5||:     .string "FreeRTOS Starting!",10,0
         000000c1 72       
         000000c2 65       
         000000c3 65       
         000000c4 52       
         000000c5 54       
         000000c6 4F       
         000000c7 53       
         000000c8 20       
         000000c9 53       
         000000ca 74       
         000000cb 61       
         000000cc 72       
         000000cd 74       
         000000ce 69       
         000000cf 6E       
         000000d0 67       
         000000d1 21       
         000000d2 0A       
         000000d3 00       
    1245                    ;******************************************************************************
    1246                    ;* CONSTANT TABLE                                                             *
    1247                    ;******************************************************************************
    1248 000000d4                   .sect   ".text"
    1249                            .align  4
    1250 000000d4 00000000! ||$C$CON1||:    .bits   Task_Blink_LED_D1,32
    1251                            .align  4
    1252 000000d8 00000000! ||$C$CON2||:    .bits   Task_ReportData,32
    1253                            .align  4
    1254 000000dc 00000000! ||$C$CON3||:    .bits   Task_Magnetometer,32
    1255                            .align  4
    1256 000000e0 00000000! ||$C$CON4||:    .bits   Task_gyro,32
    1257                    ;*****************************************************************************
    1258                    ;* UNDEFINED EXTERNAL REFERENCES                                             *
    1259                    ;*****************************************************************************
    1260                            .global Processor_Initialization
    1261                            .global UART_Initialization
    1262                            .global UARTprintf
    1263                            .global vTaskStartScheduler
    1264                            .global xTaskGenericCreate
    1265                            .global Task_Magnetometer
    1266                            .global I2CMCommand
    1267                            .global I2CMReadModifyWrite16LE
    1268                            .global Task_gyro
    1269                            .global Task_Blink_LED_D1
TI ARM Assembler PC v15.12.1 Thu Oct 27 14:03:10 2016

Tools Copyright (c) 1996-2015 Texas Instruments Incorporated
Main_Base.asm                                                        PAGE   25

    1270                            .global Task_ReportData
    1271                    ;*****************************************************************************
    1272                    ;* SECTION GROUPS                                                            *
    1273                    ;*****************************************************************************
    1274                            .group    "I2CMRead", 1
    1275                            .gmember  ".text:I2CMRead"
    1276                            .endgroup
    1277                            .group    "I2CMReadBatched", 1
    1278                            .gmember  ".text:I2CMReadBatched"
    1279                            .endgroup
    1280                            .group    "I2CMReadModifyWrite16BE", 1
    1281                            .gmember  ".text:I2CMReadModifyWrite16BE"
    1282                            .endgroup
    1283                            .group    "I2CMWrite", 1
    1284                            .gmember  ".text:I2CMWrite"
    1285                            .endgroup
    1286                            .group    "I2CMWriteBatched", 1
    1287                            .gmember  ".text:I2CMWriteBatched"
    1288                            .endgroup
    1289                    
    1290                    
    1291                    ;******************************************************************************
    1292                    ;* BUILD ATTRIBUTES                                                           *
    1293                    ;******************************************************************************
    1294                            .battr "aeabi", Tag_File, 1, Tag_ABI_PCS_wchar_t(2)
    1295                            .battr "aeabi", Tag_File, 1, Tag_ABI_FP_rounding(0)
    1296                            .battr "aeabi", Tag_File, 1, Tag_ABI_FP_denormal(0)
    1297                            .battr "aeabi", Tag_File, 1, Tag_ABI_FP_exceptions(0)
    1298                            .battr "aeabi", Tag_File, 1, Tag_ABI_FP_number_model(1)
    1299                            .battr "aeabi", Tag_File, 1, Tag_ABI_enum_size(1)
    1300                            .battr "aeabi", Tag_File, 1, Tag_ABI_optimization_goals(5)
    1301                            .battr "aeabi", Tag_File, 1, Tag_ABI_FP_optimization_goals(0)
    1302                            .battr "TI", Tag_File, 1, Tag_Bitfield_layout(2)
    1303                            .battr "TI", Tag_File, 1, Tag_FP_interface(1)
    1304                    
    1305                    ;******************************************************************************
    1306                    ;* TYPE INFORMATION                                                           *
    1307                    ;******************************************************************************
    1308                    
    1309                    $C$DW$T$80      .dwtag  DW_TAG_enumeration_type
    1310                            .dwattr $C$DW$T$80, DW_AT_byte_size(0x01)
    1311                    $C$DW$129       .dwtag  DW_TAG_enumerator
    1312                            .dwattr $C$DW$129, DW_AT_name("eRunning")
    1313                            .dwattr $C$DW$129, DW_AT_const_value(0x00)
    1314                            .dwattr $C$DW$129, DW_AT_decl_file("C:/TI_ARM_Tiva_Projects/Source/include/task.h")
    1315                            .dwattr $C$DW$129, DW_AT_decl_line(0x72)
    1316                            .dwattr $C$DW$129, DW_AT_decl_column(0x02)
    1317                    
    1318                    $C$DW$130       .dwtag  DW_TAG_enumerator
    1319                            .dwattr $C$DW$130, DW_AT_name("eReady")
    1320                            .dwattr $C$DW$130, DW_AT_const_value(0x01)
    1321                            .dwattr $C$DW$130, DW_AT_decl_file("C:/TI_ARM_Tiva_Projects/Source/include/task.h")
    1322                            .dwattr $C$DW$130, DW_AT_decl_line(0x73)
    1323                            .dwattr $C$DW$130, DW_AT_decl_column(0x02)
    1324                    
TI ARM Assembler PC v15.12.1 Thu Oct 27 14:03:10 2016

Tools Copyright (c) 1996-2015 Texas Instruments Incorporated
Main_Base.asm                                                        PAGE   26

    1325                    $C$DW$131       .dwtag  DW_TAG_enumerator
    1326                            .dwattr $C$DW$131, DW_AT_name("eBlocked")
    1327                            .dwattr $C$DW$131, DW_AT_const_value(0x02)
    1328                            .dwattr $C$DW$131, DW_AT_decl_file("C:/TI_ARM_Tiva_Projects/Source/include/task.h")
    1329                            .dwattr $C$DW$131, DW_AT_decl_line(0x74)
    1330                            .dwattr $C$DW$131, DW_AT_decl_column(0x02)
    1331                    
    1332                    $C$DW$132       .dwtag  DW_TAG_enumerator
    1333                            .dwattr $C$DW$132, DW_AT_name("eSuspended")
    1334                            .dwattr $C$DW$132, DW_AT_const_value(0x03)
    1335                            .dwattr $C$DW$132, DW_AT_decl_file("C:/TI_ARM_Tiva_Projects/Source/include/task.h")
    1336                            .dwattr $C$DW$132, DW_AT_decl_line(0x75)
    1337                            .dwattr $C$DW$132, DW_AT_decl_column(0x02)
    1338                    
    1339                    $C$DW$133       .dwtag  DW_TAG_enumerator
    1340                            .dwattr $C$DW$133, DW_AT_name("eDeleted")
    1341                            .dwattr $C$DW$133, DW_AT_const_value(0x04)
    1342                            .dwattr $C$DW$133, DW_AT_decl_file("C:/TI_ARM_Tiva_Projects/Source/include/task.h")
    1343                            .dwattr $C$DW$133, DW_AT_decl_line(0x76)
    1344                            .dwattr $C$DW$133, DW_AT_decl_column(0x02)
    1345                    
    1346                            .dwattr $C$DW$T$80, DW_AT_decl_file("C:/TI_ARM_Tiva_Projects/Source/include/task.h")
    1347                            .dwattr $C$DW$T$80, DW_AT_decl_line(0x71)
    1348                            .dwattr $C$DW$T$80, DW_AT_decl_column(0x01)
    1349                            .dwendtag $C$DW$T$80
    1350                    
    1351                    $C$DW$T$81      .dwtag  DW_TAG_typedef
    1352                            .dwattr $C$DW$T$81, DW_AT_name("eTaskState")
    1353                            .dwattr $C$DW$T$81, DW_AT_type(*$C$DW$T$80)
    1354                            .dwattr $C$DW$T$81, DW_AT_language(DW_LANG_C)
    1355                            .dwattr $C$DW$T$81, DW_AT_decl_file("C:/TI_ARM_Tiva_Projects/Source/include/task.h")
    1356                            .dwattr $C$DW$T$81, DW_AT_decl_line(0x77)
    1357                            .dwattr $C$DW$T$81, DW_AT_decl_column(0x03)
    1358                    
    1359                    
    1360                    $C$DW$T$86      .dwtag  DW_TAG_enumeration_type
    1361                            .dwattr $C$DW$T$86, DW_AT_byte_size(0x01)
    1362                    $C$DW$134       .dwtag  DW_TAG_enumerator
    1363                            .dwattr $C$DW$134, DW_AT_name("eNoAction")
    1364                            .dwattr $C$DW$134, DW_AT_const_value(0x00)
    1365                            .dwattr $C$DW$134, DW_AT_decl_file("C:/TI_ARM_Tiva_Projects/Source/include/task.h")
    1366                            .dwattr $C$DW$134, DW_AT_decl_line(0x7c)
    1367                            .dwattr $C$DW$134, DW_AT_decl_column(0x02)
    1368                    
    1369                    $C$DW$135       .dwtag  DW_TAG_enumerator
    1370                            .dwattr $C$DW$135, DW_AT_name("eSetBits")
    1371                            .dwattr $C$DW$135, DW_AT_const_value(0x01)
    1372                            .dwattr $C$DW$135, DW_AT_decl_file("C:/TI_ARM_Tiva_Projects/Source/include/task.h")
    1373                            .dwattr $C$DW$135, DW_AT_decl_line(0x7d)
    1374                            .dwattr $C$DW$135, DW_AT_decl_column(0x02)
    1375                    
    1376                    $C$DW$136       .dwtag  DW_TAG_enumerator
    1377                            .dwattr $C$DW$136, DW_AT_name("eIncrement")
    1378                            .dwattr $C$DW$136, DW_AT_const_value(0x02)
    1379                            .dwattr $C$DW$136, DW_AT_decl_file("C:/TI_ARM_Tiva_Projects/Source/include/task.h")
TI ARM Assembler PC v15.12.1 Thu Oct 27 14:03:10 2016

Tools Copyright (c) 1996-2015 Texas Instruments Incorporated
Main_Base.asm                                                        PAGE   27

    1380                            .dwattr $C$DW$136, DW_AT_decl_line(0x7e)
    1381                            .dwattr $C$DW$136, DW_AT_decl_column(0x02)
    1382                    
    1383                    $C$DW$137       .dwtag  DW_TAG_enumerator
    1384                            .dwattr $C$DW$137, DW_AT_name("eSetValueWithOverwrite")
    1385                            .dwattr $C$DW$137, DW_AT_const_value(0x03)
    1386                            .dwattr $C$DW$137, DW_AT_decl_file("C:/TI_ARM_Tiva_Projects/Source/include/task.h")
    1387                            .dwattr $C$DW$137, DW_AT_decl_line(0x7f)
    1388                            .dwattr $C$DW$137, DW_AT_decl_column(0x02)
    1389                    
    1390                    $C$DW$138       .dwtag  DW_TAG_enumerator
    1391                            .dwattr $C$DW$138, DW_AT_name("eSetValueWithoutOverwrite")
    1392                            .dwattr $C$DW$138, DW_AT_const_value(0x04)
    1393                            .dwattr $C$DW$138, DW_AT_decl_file("C:/TI_ARM_Tiva_Projects/Source/include/task.h")
    1394                            .dwattr $C$DW$138, DW_AT_decl_line(0x80)
    1395                            .dwattr $C$DW$138, DW_AT_decl_column(0x02)
    1396                    
    1397                            .dwattr $C$DW$T$86, DW_AT_decl_file("C:/TI_ARM_Tiva_Projects/Source/include/task.h")
    1398                            .dwattr $C$DW$T$86, DW_AT_decl_line(0x7b)
    1399                            .dwattr $C$DW$T$86, DW_AT_decl_column(0x01)
    1400                            .dwendtag $C$DW$T$86
    1401                    
    1402                    $C$DW$T$87      .dwtag  DW_TAG_typedef
    1403                            .dwattr $C$DW$T$87, DW_AT_name("eNotifyAction")
    1404                            .dwattr $C$DW$T$87, DW_AT_type(*$C$DW$T$86)
    1405                            .dwattr $C$DW$T$87, DW_AT_language(DW_LANG_C)
    1406                            .dwattr $C$DW$T$87, DW_AT_decl_file("C:/TI_ARM_Tiva_Projects/Source/include/task.h")
    1407                            .dwattr $C$DW$T$87, DW_AT_decl_line(0x81)
    1408                            .dwattr $C$DW$T$87, DW_AT_decl_column(0x03)
    1409                    
    1410                    
    1411                    $C$DW$T$88      .dwtag  DW_TAG_enumeration_type
    1412                            .dwattr $C$DW$T$88, DW_AT_byte_size(0x01)
    1413                    $C$DW$139       .dwtag  DW_TAG_enumerator
    1414                            .dwattr $C$DW$139, DW_AT_name("eAbortSleep")
    1415                            .dwattr $C$DW$139, DW_AT_const_value(0x00)
    1416                            .dwattr $C$DW$139, DW_AT_decl_file("C:/TI_ARM_Tiva_Projects/Source/include/task.h")
    1417                            .dwattr $C$DW$139, DW_AT_decl_line(0xb5)
    1418                            .dwattr $C$DW$139, DW_AT_decl_column(0x02)
    1419                    
    1420                    $C$DW$140       .dwtag  DW_TAG_enumerator
    1421                            .dwattr $C$DW$140, DW_AT_name("eStandardSleep")
    1422                            .dwattr $C$DW$140, DW_AT_const_value(0x01)
    1423                            .dwattr $C$DW$140, DW_AT_decl_file("C:/TI_ARM_Tiva_Projects/Source/include/task.h")
    1424                            .dwattr $C$DW$140, DW_AT_decl_line(0xb6)
    1425                            .dwattr $C$DW$140, DW_AT_decl_column(0x02)
    1426                    
    1427                    $C$DW$141       .dwtag  DW_TAG_enumerator
    1428                            .dwattr $C$DW$141, DW_AT_name("eNoTasksWaitingTimeout")
    1429                            .dwattr $C$DW$141, DW_AT_const_value(0x02)
    1430                            .dwattr $C$DW$141, DW_AT_decl_file("C:/TI_ARM_Tiva_Projects/Source/include/task.h")
    1431                            .dwattr $C$DW$141, DW_AT_decl_line(0xb7)
    1432                            .dwattr $C$DW$141, DW_AT_decl_column(0x02)
    1433                    
    1434                            .dwattr $C$DW$T$88, DW_AT_decl_file("C:/TI_ARM_Tiva_Projects/Source/include/task.h")
TI ARM Assembler PC v15.12.1 Thu Oct 27 14:03:10 2016

Tools Copyright (c) 1996-2015 Texas Instruments Incorporated
Main_Base.asm                                                        PAGE   28

    1435                            .dwattr $C$DW$T$88, DW_AT_decl_line(0xb4)
    1436                            .dwattr $C$DW$T$88, DW_AT_decl_column(0x01)
    1437                            .dwendtag $C$DW$T$88
    1438                    
    1439                    $C$DW$T$89      .dwtag  DW_TAG_typedef
    1440                            .dwattr $C$DW$T$89, DW_AT_name("eSleepModeStatus")
    1441                            .dwattr $C$DW$T$89, DW_AT_type(*$C$DW$T$88)
    1442                            .dwattr $C$DW$T$89, DW_AT_language(DW_LANG_C)
    1443                            .dwattr $C$DW$T$89, DW_AT_decl_file("C:/TI_ARM_Tiva_Projects/Source/include/task.h")
    1444                            .dwattr $C$DW$T$89, DW_AT_decl_line(0xb8)
    1445                            .dwattr $C$DW$T$89, DW_AT_decl_column(0x03)
    1446                    
    1447                    
    1448                    $C$DW$T$29      .dwtag  DW_TAG_structure_type
    1449                            .dwattr $C$DW$T$29, DW_AT_byte_size(0x1c)
    1450                    $C$DW$142       .dwtag  DW_TAG_member
    1451                            .dwattr $C$DW$142, DW_AT_type(*$C$DW$T$19)
    1452                            .dwattr $C$DW$142, DW_AT_name("ui8Addr")
    1453                            .dwattr $C$DW$142, DW_AT_TI_symbol_name("ui8Addr")
    1454                            .dwattr $C$DW$142, DW_AT_data_member_location[DW_OP_plus_uconst 0x0]
    1455                            .dwattr $C$DW$142, DW_AT_accessibility(DW_ACCESS_public)
    1456                            .dwattr $C$DW$142, DW_AT_decl_file("C:/TI_CodeComposer/TivaWare/sensorlib/i2cm_drv.h")
    1457                            .dwattr $C$DW$142, DW_AT_decl_line(0x4c)
    1458                            .dwattr $C$DW$142, DW_AT_decl_column(0x0d)
    1459                    
    1460                    $C$DW$143       .dwtag  DW_TAG_member
    1461                            .dwattr $C$DW$143, DW_AT_type(*$C$DW$T$21)
    1462                            .dwattr $C$DW$143, DW_AT_name("pui8WriteData")
    1463                            .dwattr $C$DW$143, DW_AT_TI_symbol_name("pui8WriteData")
    1464                            .dwattr $C$DW$143, DW_AT_data_member_location[DW_OP_plus_uconst 0x4]
    1465                            .dwattr $C$DW$143, DW_AT_accessibility(DW_ACCESS_public)
    1466                            .dwattr $C$DW$143, DW_AT_decl_file("C:/TI_CodeComposer/TivaWare/sensorlib/i2cm_drv.h")
    1467                            .dwattr $C$DW$143, DW_AT_decl_line(0x51)
    1468                            .dwattr $C$DW$143, DW_AT_decl_column(0x14)
    1469                    
    1470                    $C$DW$144       .dwtag  DW_TAG_member
    1471                            .dwattr $C$DW$144, DW_AT_type(*$C$DW$T$22)
    1472                            .dwattr $C$DW$144, DW_AT_name("ui16WriteCount")
    1473                            .dwattr $C$DW$144, DW_AT_TI_symbol_name("ui16WriteCount")
    1474                            .dwattr $C$DW$144, DW_AT_data_member_location[DW_OP_plus_uconst 0x8]
    1475                            .dwattr $C$DW$144, DW_AT_accessibility(DW_ACCESS_public)
    1476                            .dwattr $C$DW$144, DW_AT_decl_file("C:/TI_CodeComposer/TivaWare/sensorlib/i2cm_drv.h")
    1477                            .dwattr $C$DW$144, DW_AT_decl_line(0x56)
    1478                            .dwattr $C$DW$144, DW_AT_decl_column(0x0e)
    1479                    
    1480                    $C$DW$145       .dwtag  DW_TAG_member
    1481                            .dwattr $C$DW$145, DW_AT_type(*$C$DW$T$22)
    1482                            .dwattr $C$DW$145, DW_AT_name("ui16WriteBatchSize")
    1483                            .dwattr $C$DW$145, DW_AT_TI_symbol_name("ui16WriteBatchSize")
    1484                            .dwattr $C$DW$145, DW_AT_data_member_location[DW_OP_plus_uconst 0xa]
    1485                            .dwattr $C$DW$145, DW_AT_accessibility(DW_ACCESS_public)
    1486                            .dwattr $C$DW$145, DW_AT_decl_file("C:/TI_CodeComposer/TivaWare/sensorlib/i2cm_drv.h")
    1487                            .dwattr $C$DW$145, DW_AT_decl_line(0x5b)
    1488                            .dwattr $C$DW$145, DW_AT_decl_column(0x0e)
    1489                    
TI ARM Assembler PC v15.12.1 Thu Oct 27 14:03:10 2016

Tools Copyright (c) 1996-2015 Texas Instruments Incorporated
Main_Base.asm                                                        PAGE   29

    1490                    $C$DW$146       .dwtag  DW_TAG_member
    1491                            .dwattr $C$DW$146, DW_AT_type(*$C$DW$T$23)
    1492                            .dwattr $C$DW$146, DW_AT_name("pui8ReadData")
    1493                            .dwattr $C$DW$146, DW_AT_TI_symbol_name("pui8ReadData")
    1494                            .dwattr $C$DW$146, DW_AT_data_member_location[DW_OP_plus_uconst 0xc]
    1495                            .dwattr $C$DW$146, DW_AT_accessibility(DW_ACCESS_public)
    1496                            .dwattr $C$DW$146, DW_AT_decl_file("C:/TI_CodeComposer/TivaWare/sensorlib/i2cm_drv.h")
    1497                            .dwattr $C$DW$146, DW_AT_decl_line(0x60)
    1498                            .dwattr $C$DW$146, DW_AT_decl_column(0x0e)
    1499                    
    1500                    $C$DW$147       .dwtag  DW_TAG_member
    1501                            .dwattr $C$DW$147, DW_AT_type(*$C$DW$T$22)
    1502                            .dwattr $C$DW$147, DW_AT_name("ui16ReadCount")
    1503                            .dwattr $C$DW$147, DW_AT_TI_symbol_name("ui16ReadCount")
    1504                            .dwattr $C$DW$147, DW_AT_data_member_location[DW_OP_plus_uconst 0x10]
    1505                            .dwattr $C$DW$147, DW_AT_accessibility(DW_ACCESS_public)
    1506                            .dwattr $C$DW$147, DW_AT_decl_file("C:/TI_CodeComposer/TivaWare/sensorlib/i2cm_drv.h")
    1507                            .dwattr $C$DW$147, DW_AT_decl_line(0x65)
    1508                            .dwattr $C$DW$147, DW_AT_decl_column(0x0e)
    1509                    
    1510                    $C$DW$148       .dwtag  DW_TAG_member
    1511                            .dwattr $C$DW$148, DW_AT_type(*$C$DW$T$22)
    1512                            .dwattr $C$DW$148, DW_AT_name("ui16ReadBatchSize")
    1513                            .dwattr $C$DW$148, DW_AT_TI_symbol_name("ui16ReadBatchSize")
    1514                            .dwattr $C$DW$148, DW_AT_data_member_location[DW_OP_plus_uconst 0x12]
    1515                            .dwattr $C$DW$148, DW_AT_accessibility(DW_ACCESS_public)
    1516                            .dwattr $C$DW$148, DW_AT_decl_file("C:/TI_CodeComposer/TivaWare/sensorlib/i2cm_drv.h")
    1517                            .dwattr $C$DW$148, DW_AT_decl_line(0x6a)
    1518                            .dwattr $C$DW$148, DW_AT_decl_column(0x0e)
    1519                    
    1520                    $C$DW$149       .dwtag  DW_TAG_member
    1521                            .dwattr $C$DW$149, DW_AT_type(*$C$DW$T$28)
    1522                            .dwattr $C$DW$149, DW_AT_name("pfnCallback")
    1523                            .dwattr $C$DW$149, DW_AT_TI_symbol_name("pfnCallback")
    1524                            .dwattr $C$DW$149, DW_AT_data_member_location[DW_OP_plus_uconst 0x14]
    1525                            .dwattr $C$DW$149, DW_AT_accessibility(DW_ACCESS_public)
    1526                            .dwattr $C$DW$149, DW_AT_decl_file("C:/TI_CodeComposer/TivaWare/sensorlib/i2cm_drv.h")
    1527                            .dwattr $C$DW$149, DW_AT_decl_line(0x6f)
    1528                            .dwattr $C$DW$149, DW_AT_decl_column(0x16)
    1529                    
    1530                    $C$DW$150       .dwtag  DW_TAG_member
    1531                            .dwattr $C$DW$150, DW_AT_type(*$C$DW$T$3)
    1532                            .dwattr $C$DW$150, DW_AT_name("pvCallbackData")
    1533                            .dwattr $C$DW$150, DW_AT_TI_symbol_name("pvCallbackData")
    1534                            .dwattr $C$DW$150, DW_AT_data_member_location[DW_OP_plus_uconst 0x18]
    1535                            .dwattr $C$DW$150, DW_AT_accessibility(DW_ACCESS_public)
    1536                            .dwattr $C$DW$150, DW_AT_decl_file("C:/TI_CodeComposer/TivaWare/sensorlib/i2cm_drv.h")
    1537                            .dwattr $C$DW$150, DW_AT_decl_line(0x74)
    1538                            .dwattr $C$DW$150, DW_AT_decl_column(0x0b)
    1539                    
    1540                            .dwattr $C$DW$T$29, DW_AT_decl_file("C:/TI_CodeComposer/TivaWare/sensorlib/i2cm_drv.h")
    1541                            .dwattr $C$DW$T$29, DW_AT_decl_line(0x48)
    1542                            .dwattr $C$DW$T$29, DW_AT_decl_column(0x01)
    1543                            .dwendtag $C$DW$T$29
    1544                    
TI ARM Assembler PC v15.12.1 Thu Oct 27 14:03:10 2016

Tools Copyright (c) 1996-2015 Texas Instruments Incorporated
Main_Base.asm                                                        PAGE   30

    1545                    $C$DW$T$30      .dwtag  DW_TAG_typedef
    1546                            .dwattr $C$DW$T$30, DW_AT_name("tI2CMCommand")
    1547                            .dwattr $C$DW$T$30, DW_AT_type(*$C$DW$T$29)
    1548                            .dwattr $C$DW$T$30, DW_AT_language(DW_LANG_C)
    1549                            .dwattr $C$DW$T$30, DW_AT_decl_file("C:/TI_CodeComposer/TivaWare/sensorlib/i2cm_drv.h")
    1550                            .dwattr $C$DW$T$30, DW_AT_decl_line(0x76)
    1551                            .dwattr $C$DW$T$30, DW_AT_decl_column(0x01)
    1552                    
    1553                    
    1554                    $C$DW$T$31      .dwtag  DW_TAG_array_type
    1555                            .dwattr $C$DW$T$31, DW_AT_type(*$C$DW$T$30)
    1556                            .dwattr $C$DW$T$31, DW_AT_language(DW_LANG_C)
    1557                            .dwattr $C$DW$T$31, DW_AT_byte_size(0x118)
    1558                    $C$DW$151       .dwtag  DW_TAG_subrange_type
    1559                            .dwattr $C$DW$151, DW_AT_upper_bound(0x09)
    1560                    
    1561                            .dwendtag $C$DW$T$31
    1562                    
    1563                    
    1564                    $C$DW$T$32      .dwtag  DW_TAG_structure_type
    1565                            .dwattr $C$DW$T$32, DW_AT_byte_size(0x124)
    1566                    $C$DW$152       .dwtag  DW_TAG_member
    1567                            .dwattr $C$DW$152, DW_AT_type(*$C$DW$T$24)
    1568                            .dwattr $C$DW$152, DW_AT_name("ui32Base")
    1569                            .dwattr $C$DW$152, DW_AT_TI_symbol_name("ui32Base")
    1570                            .dwattr $C$DW$152, DW_AT_data_member_location[DW_OP_plus_uconst 0x0]
    1571                            .dwattr $C$DW$152, DW_AT_accessibility(DW_ACCESS_public)
    1572                            .dwattr $C$DW$152, DW_AT_decl_file("C:/TI_CodeComposer/TivaWare/sensorlib/i2cm_drv.h")
    1573                            .dwattr $C$DW$152, DW_AT_decl_line(0x82)
    1574                            .dwattr $C$DW$152, DW_AT_decl_column(0x0e)
    1575                    
    1576                    $C$DW$153       .dwtag  DW_TAG_member
    1577                            .dwattr $C$DW$153, DW_AT_type(*$C$DW$T$19)
    1578                            .dwattr $C$DW$153, DW_AT_name("ui8Int")
    1579                            .dwattr $C$DW$153, DW_AT_TI_symbol_name("ui8Int")
    1580                            .dwattr $C$DW$153, DW_AT_data_member_location[DW_OP_plus_uconst 0x4]
    1581                            .dwattr $C$DW$153, DW_AT_accessibility(DW_ACCESS_public)
    1582                            .dwattr $C$DW$153, DW_AT_decl_file("C:/TI_CodeComposer/TivaWare/sensorlib/i2cm_drv.h")
    1583                            .dwattr $C$DW$153, DW_AT_decl_line(0x87)
    1584                            .dwattr $C$DW$153, DW_AT_decl_column(0x0d)
    1585                    
    1586                    $C$DW$154       .dwtag  DW_TAG_member
    1587                            .dwattr $C$DW$154, DW_AT_type(*$C$DW$T$19)
    1588                            .dwattr $C$DW$154, DW_AT_name("ui8TxDMA")
    1589                            .dwattr $C$DW$154, DW_AT_TI_symbol_name("ui8TxDMA")
    1590                            .dwattr $C$DW$154, DW_AT_data_member_location[DW_OP_plus_uconst 0x5]
    1591                            .dwattr $C$DW$154, DW_AT_accessibility(DW_ACCESS_public)
    1592                            .dwattr $C$DW$154, DW_AT_decl_file("C:/TI_CodeComposer/TivaWare/sensorlib/i2cm_drv.h")
    1593                            .dwattr $C$DW$154, DW_AT_decl_line(0x8c)
    1594                            .dwattr $C$DW$154, DW_AT_decl_column(0x0d)
    1595                    
    1596                    $C$DW$155       .dwtag  DW_TAG_member
    1597                            .dwattr $C$DW$155, DW_AT_type(*$C$DW$T$19)
    1598                            .dwattr $C$DW$155, DW_AT_name("ui8RxDMA")
    1599                            .dwattr $C$DW$155, DW_AT_TI_symbol_name("ui8RxDMA")
TI ARM Assembler PC v15.12.1 Thu Oct 27 14:03:10 2016

Tools Copyright (c) 1996-2015 Texas Instruments Incorporated
Main_Base.asm                                                        PAGE   31

    1600                            .dwattr $C$DW$155, DW_AT_data_member_location[DW_OP_plus_uconst 0x6]
    1601                            .dwattr $C$DW$155, DW_AT_accessibility(DW_ACCESS_public)
    1602                            .dwattr $C$DW$155, DW_AT_decl_file("C:/TI_CodeComposer/TivaWare/sensorlib/i2cm_drv.h")
    1603                            .dwattr $C$DW$155, DW_AT_decl_line(0x91)
    1604                            .dwattr $C$DW$155, DW_AT_decl_column(0x0d)
    1605                    
    1606                    $C$DW$156       .dwtag  DW_TAG_member
    1607                            .dwattr $C$DW$156, DW_AT_type(*$C$DW$T$19)
    1608                            .dwattr $C$DW$156, DW_AT_name("ui8State")
    1609                            .dwattr $C$DW$156, DW_AT_TI_symbol_name("ui8State")
    1610                            .dwattr $C$DW$156, DW_AT_data_member_location[DW_OP_plus_uconst 0x7]
    1611                            .dwattr $C$DW$156, DW_AT_accessibility(DW_ACCESS_public)
    1612                            .dwattr $C$DW$156, DW_AT_decl_file("C:/TI_CodeComposer/TivaWare/sensorlib/i2cm_drv.h")
    1613                            .dwattr $C$DW$156, DW_AT_decl_line(0x96)
    1614                            .dwattr $C$DW$156, DW_AT_decl_column(0x0d)
    1615                    
    1616                    $C$DW$157       .dwtag  DW_TAG_member
    1617                            .dwattr $C$DW$157, DW_AT_type(*$C$DW$T$19)
    1618                            .dwattr $C$DW$157, DW_AT_name("ui8ReadPtr")
    1619                            .dwattr $C$DW$157, DW_AT_TI_symbol_name("ui8ReadPtr")
    1620                            .dwattr $C$DW$157, DW_AT_data_member_location[DW_OP_plus_uconst 0x8]
    1621                            .dwattr $C$DW$157, DW_AT_accessibility(DW_ACCESS_public)
    1622                            .dwattr $C$DW$157, DW_AT_decl_file("C:/TI_CodeComposer/TivaWare/sensorlib/i2cm_drv.h")
    1623                            .dwattr $C$DW$157, DW_AT_decl_line(0x9c)
    1624                            .dwattr $C$DW$157, DW_AT_decl_column(0x0d)
    1625                    
    1626                    $C$DW$158       .dwtag  DW_TAG_member
    1627                            .dwattr $C$DW$158, DW_AT_type(*$C$DW$T$19)
    1628                            .dwattr $C$DW$158, DW_AT_name("ui8WritePtr")
    1629                            .dwattr $C$DW$158, DW_AT_TI_symbol_name("ui8WritePtr")
    1630                            .dwattr $C$DW$158, DW_AT_data_member_location[DW_OP_plus_uconst 0x9]
    1631                            .dwattr $C$DW$158, DW_AT_accessibility(DW_ACCESS_public)
    1632                            .dwattr $C$DW$158, DW_AT_decl_file("C:/TI_CodeComposer/TivaWare/sensorlib/i2cm_drv.h")
    1633                            .dwattr $C$DW$158, DW_AT_decl_line(0xa2)
    1634                            .dwattr $C$DW$158, DW_AT_decl_column(0x0d)
    1635                    
    1636                    $C$DW$159       .dwtag  DW_TAG_member
    1637                            .dwattr $C$DW$159, DW_AT_type(*$C$DW$T$22)
    1638                            .dwattr $C$DW$159, DW_AT_name("ui16Index")
    1639                            .dwattr $C$DW$159, DW_AT_TI_symbol_name("ui16Index")
    1640                            .dwattr $C$DW$159, DW_AT_data_member_location[DW_OP_plus_uconst 0xa]
    1641                            .dwattr $C$DW$159, DW_AT_accessibility(DW_ACCESS_public)
    1642                            .dwattr $C$DW$159, DW_AT_decl_file("C:/TI_CodeComposer/TivaWare/sensorlib/i2cm_drv.h")
    1643                            .dwattr $C$DW$159, DW_AT_decl_line(0xa7)
    1644                            .dwattr $C$DW$159, DW_AT_decl_column(0x0e)
    1645                    
    1646                    $C$DW$160       .dwtag  DW_TAG_member
    1647                            .dwattr $C$DW$160, DW_AT_type(*$C$DW$T$31)
    1648                            .dwattr $C$DW$160, DW_AT_name("pCommands")
    1649                            .dwattr $C$DW$160, DW_AT_TI_symbol_name("pCommands")
    1650                            .dwattr $C$DW$160, DW_AT_data_member_location[DW_OP_plus_uconst 0xc]
    1651                            .dwattr $C$DW$160, DW_AT_accessibility(DW_ACCESS_public)
    1652                            .dwattr $C$DW$160, DW_AT_decl_file("C:/TI_CodeComposer/TivaWare/sensorlib/i2cm_drv.h")
    1653                            .dwattr $C$DW$160, DW_AT_decl_line(0xac)
    1654                            .dwattr $C$DW$160, DW_AT_decl_column(0x12)
TI ARM Assembler PC v15.12.1 Thu Oct 27 14:03:10 2016

Tools Copyright (c) 1996-2015 Texas Instruments Incorporated
Main_Base.asm                                                        PAGE   32

    1655                    
    1656                            .dwattr $C$DW$T$32, DW_AT_decl_file("C:/TI_CodeComposer/TivaWare/sensorlib/i2cm_drv.h")
    1657                            .dwattr $C$DW$T$32, DW_AT_decl_line(0x7e)
    1658                            .dwattr $C$DW$T$32, DW_AT_decl_column(0x01)
    1659                            .dwendtag $C$DW$T$32
    1660                    
    1661                    $C$DW$T$33      .dwtag  DW_TAG_typedef
    1662                            .dwattr $C$DW$T$33, DW_AT_name("tI2CMInstance")
    1663                            .dwattr $C$DW$T$33, DW_AT_type(*$C$DW$T$32)
    1664                            .dwattr $C$DW$T$33, DW_AT_language(DW_LANG_C)
    1665                            .dwattr $C$DW$T$33, DW_AT_decl_file("C:/TI_CodeComposer/TivaWare/sensorlib/i2cm_drv.h")
    1666                            .dwattr $C$DW$T$33, DW_AT_decl_line(0xae)
    1667                            .dwattr $C$DW$T$33, DW_AT_decl_column(0x01)
    1668                    
    1669                    $C$DW$T$34      .dwtag  DW_TAG_pointer_type
    1670                            .dwattr $C$DW$T$34, DW_AT_type(*$C$DW$T$33)
    1671                            .dwattr $C$DW$T$34, DW_AT_address_class(0x20)
    1672                    
    1673                    
    1674                    $C$DW$T$36      .dwtag  DW_TAG_structure_type
    1675                            .dwattr $C$DW$T$36, DW_AT_byte_size(0x18)
    1676                    $C$DW$161       .dwtag  DW_TAG_member
    1677                            .dwattr $C$DW$161, DW_AT_type(*$C$DW$T$34)
    1678                            .dwattr $C$DW$161, DW_AT_name("psI2CInst")
    1679                            .dwattr $C$DW$161, DW_AT_TI_symbol_name("psI2CInst")
    1680                            .dwattr $C$DW$161, DW_AT_data_member_location[DW_OP_plus_uconst 0x0]
    1681                            .dwattr $C$DW$161, DW_AT_accessibility(DW_ACCESS_public)
    1682                            .dwattr $C$DW$161, DW_AT_decl_file("C:/TI_CodeComposer/TivaWare/sensorlib/i2cm_drv.h")
    1683                            .dwattr $C$DW$161, DW_AT_decl_line(0xf0)
    1684                            .dwattr $C$DW$161, DW_AT_decl_column(0x14)
    1685                    
    1686                    $C$DW$162       .dwtag  DW_TAG_member
    1687                            .dwattr $C$DW$162, DW_AT_type(*$C$DW$T$35)
    1688                            .dwattr $C$DW$162, DW_AT_name("pui8Buffer")
    1689                            .dwattr $C$DW$162, DW_AT_TI_symbol_name("pui8Buffer")
    1690                            .dwattr $C$DW$162, DW_AT_data_member_location[DW_OP_plus_uconst 0x4]
    1691                            .dwattr $C$DW$162, DW_AT_accessibility(DW_ACCESS_public)
    1692                            .dwattr $C$DW$162, DW_AT_decl_file("C:/TI_CodeComposer/TivaWare/sensorlib/i2cm_drv.h")
    1693                            .dwattr $C$DW$162, DW_AT_decl_line(0xf5)
    1694                            .dwattr $C$DW$162, DW_AT_decl_column(0x0d)
    1695                    
    1696                    $C$DW$163       .dwtag  DW_TAG_member
    1697                            .dwattr $C$DW$163, DW_AT_type(*$C$DW$T$19)
    1698                            .dwattr $C$DW$163, DW_AT_name("ui8State")
    1699                            .dwattr $C$DW$163, DW_AT_TI_symbol_name("ui8State")
    1700                            .dwattr $C$DW$163, DW_AT_data_member_location[DW_OP_plus_uconst 0x8]
    1701                            .dwattr $C$DW$163, DW_AT_accessibility(DW_ACCESS_public)
    1702                            .dwattr $C$DW$163, DW_AT_decl_file("C:/TI_CodeComposer/TivaWare/sensorlib/i2cm_drv.h")
    1703                            .dwattr $C$DW$163, DW_AT_decl_line(0xfa)
    1704                            .dwattr $C$DW$163, DW_AT_decl_column(0x0d)
    1705                    
    1706                    $C$DW$164       .dwtag  DW_TAG_member
    1707                            .dwattr $C$DW$164, DW_AT_type(*$C$DW$T$19)
    1708                            .dwattr $C$DW$164, DW_AT_name("ui8Addr")
    1709                            .dwattr $C$DW$164, DW_AT_TI_symbol_name("ui8Addr")
TI ARM Assembler PC v15.12.1 Thu Oct 27 14:03:10 2016

Tools Copyright (c) 1996-2015 Texas Instruments Incorporated
Main_Base.asm                                                        PAGE   33

    1710                            .dwattr $C$DW$164, DW_AT_data_member_location[DW_OP_plus_uconst 0x9]
    1711                            .dwattr $C$DW$164, DW_AT_accessibility(DW_ACCESS_public)
    1712                            .dwattr $C$DW$164, DW_AT_decl_file("C:/TI_CodeComposer/TivaWare/sensorlib/i2cm_drv.h")
    1713                            .dwattr $C$DW$164, DW_AT_decl_line(0xff)
    1714                            .dwattr $C$DW$164, DW_AT_decl_column(0x0d)
    1715                    
    1716                    $C$DW$165       .dwtag  DW_TAG_member
    1717                            .dwattr $C$DW$165, DW_AT_type(*$C$DW$T$22)
    1718                            .dwattr $C$DW$165, DW_AT_name("ui16Mask")
    1719                            .dwattr $C$DW$165, DW_AT_TI_symbol_name("ui16Mask")
    1720                            .dwattr $C$DW$165, DW_AT_data_member_location[DW_OP_plus_uconst 0xa]
    1721                            .dwattr $C$DW$165, DW_AT_accessibility(DW_ACCESS_public)
    1722                            .dwattr $C$DW$165, DW_AT_decl_file("C:/TI_CodeComposer/TivaWare/sensorlib/i2cm_drv.h")
    1723                            .dwattr $C$DW$165, DW_AT_decl_line(0x104)
    1724                            .dwattr $C$DW$165, DW_AT_decl_column(0x0e)
    1725                    
    1726                    $C$DW$166       .dwtag  DW_TAG_member
    1727                            .dwattr $C$DW$166, DW_AT_type(*$C$DW$T$22)
    1728                            .dwattr $C$DW$166, DW_AT_name("ui16Value")
    1729                            .dwattr $C$DW$166, DW_AT_TI_symbol_name("ui16Value")
    1730                            .dwattr $C$DW$166, DW_AT_data_member_location[DW_OP_plus_uconst 0xc]
    1731                            .dwattr $C$DW$166, DW_AT_accessibility(DW_ACCESS_public)
    1732                            .dwattr $C$DW$166, DW_AT_decl_file("C:/TI_CodeComposer/TivaWare/sensorlib/i2cm_drv.h")
    1733                            .dwattr $C$DW$166, DW_AT_decl_line(0x109)
    1734                            .dwattr $C$DW$166, DW_AT_decl_column(0x0e)
    1735                    
    1736                    $C$DW$167       .dwtag  DW_TAG_member
    1737                            .dwattr $C$DW$167, DW_AT_type(*$C$DW$T$28)
    1738                            .dwattr $C$DW$167, DW_AT_name("pfnCallback")
    1739                            .dwattr $C$DW$167, DW_AT_TI_symbol_name("pfnCallback")
    1740                            .dwattr $C$DW$167, DW_AT_data_member_location[DW_OP_plus_uconst 0x10]
    1741                            .dwattr $C$DW$167, DW_AT_accessibility(DW_ACCESS_public)
    1742                            .dwattr $C$DW$167, DW_AT_decl_file("C:/TI_CodeComposer/TivaWare/sensorlib/i2cm_drv.h")
    1743                            .dwattr $C$DW$167, DW_AT_decl_line(0x10f)
    1744                            .dwattr $C$DW$167, DW_AT_decl_column(0x16)
    1745                    
    1746                    $C$DW$168       .dwtag  DW_TAG_member
    1747                            .dwattr $C$DW$168, DW_AT_type(*$C$DW$T$3)
    1748                            .dwattr $C$DW$168, DW_AT_name("pvCallbackData")
    1749                            .dwattr $C$DW$168, DW_AT_TI_symbol_name("pvCallbackData")
    1750                            .dwattr $C$DW$168, DW_AT_data_member_location[DW_OP_plus_uconst 0x14]
    1751                            .dwattr $C$DW$168, DW_AT_accessibility(DW_ACCESS_public)
    1752                            .dwattr $C$DW$168, DW_AT_decl_file("C:/TI_CodeComposer/TivaWare/sensorlib/i2cm_drv.h")
    1753                            .dwattr $C$DW$168, DW_AT_decl_line(0x114)
    1754                            .dwattr $C$DW$168, DW_AT_decl_column(0x0b)
    1755                    
    1756                            .dwattr $C$DW$T$36, DW_AT_decl_file("C:/TI_CodeComposer/TivaWare/sensorlib/i2cm_drv.h")
    1757                            .dwattr $C$DW$T$36, DW_AT_decl_line(0xeb)
    1758                            .dwattr $C$DW$T$36, DW_AT_decl_column(0x01)
    1759                            .dwendtag $C$DW$T$36
    1760                    
    1761                    $C$DW$T$90      .dwtag  DW_TAG_typedef
    1762                            .dwattr $C$DW$T$90, DW_AT_name("tI2CMReadModifyWrite16")
    1763                            .dwattr $C$DW$T$90, DW_AT_type(*$C$DW$T$36)
    1764                            .dwattr $C$DW$T$90, DW_AT_language(DW_LANG_C)
TI ARM Assembler PC v15.12.1 Thu Oct 27 14:03:10 2016

Tools Copyright (c) 1996-2015 Texas Instruments Incorporated
Main_Base.asm                                                        PAGE   34

    1765                            .dwattr $C$DW$T$90, DW_AT_decl_file("C:/TI_CodeComposer/TivaWare/sensorlib/i2cm_drv.h")
    1766                            .dwattr $C$DW$T$90, DW_AT_decl_line(0x116)
    1767                            .dwattr $C$DW$T$90, DW_AT_decl_column(0x01)
    1768                    
    1769                    $C$DW$T$91      .dwtag  DW_TAG_pointer_type
    1770                            .dwattr $C$DW$T$91, DW_AT_type(*$C$DW$T$90)
    1771                            .dwattr $C$DW$T$91, DW_AT_address_class(0x20)
    1772                    
    1773                    
    1774                    $C$DW$T$37      .dwtag  DW_TAG_structure_type
    1775                            .dwattr $C$DW$T$37, DW_AT_byte_size(0x14)
    1776                    $C$DW$169       .dwtag  DW_TAG_member
    1777                            .dwattr $C$DW$169, DW_AT_type(*$C$DW$T$34)
    1778                            .dwattr $C$DW$169, DW_AT_name("psI2CInst")
    1779                            .dwattr $C$DW$169, DW_AT_TI_symbol_name("psI2CInst")
    1780                            .dwattr $C$DW$169, DW_AT_data_member_location[DW_OP_plus_uconst 0x0]
    1781                            .dwattr $C$DW$169, DW_AT_accessibility(DW_ACCESS_public)
    1782                            .dwattr $C$DW$169, DW_AT_decl_file("C:/TI_CodeComposer/TivaWare/sensorlib/i2cm_drv.h")
    1783                            .dwattr $C$DW$169, DW_AT_decl_line(0xbc)
    1784                            .dwattr $C$DW$169, DW_AT_decl_column(0x14)
    1785                    
    1786                    $C$DW$170       .dwtag  DW_TAG_member
    1787                            .dwattr $C$DW$170, DW_AT_type(*$C$DW$T$35)
    1788                            .dwattr $C$DW$170, DW_AT_name("pui8Buffer")
    1789                            .dwattr $C$DW$170, DW_AT_TI_symbol_name("pui8Buffer")
    1790                            .dwattr $C$DW$170, DW_AT_data_member_location[DW_OP_plus_uconst 0x4]
    1791                            .dwattr $C$DW$170, DW_AT_accessibility(DW_ACCESS_public)
    1792                            .dwattr $C$DW$170, DW_AT_decl_file("C:/TI_CodeComposer/TivaWare/sensorlib/i2cm_drv.h")
    1793                            .dwattr $C$DW$170, DW_AT_decl_line(0xc1)
    1794                            .dwattr $C$DW$170, DW_AT_decl_column(0x0d)
    1795                    
    1796                    $C$DW$171       .dwtag  DW_TAG_member
    1797                            .dwattr $C$DW$171, DW_AT_type(*$C$DW$T$19)
    1798                            .dwattr $C$DW$171, DW_AT_name("ui8State")
    1799                            .dwattr $C$DW$171, DW_AT_TI_symbol_name("ui8State")
    1800                            .dwattr $C$DW$171, DW_AT_data_member_location[DW_OP_plus_uconst 0x8]
    1801                            .dwattr $C$DW$171, DW_AT_accessibility(DW_ACCESS_public)
    1802                            .dwattr $C$DW$171, DW_AT_decl_file("C:/TI_CodeComposer/TivaWare/sensorlib/i2cm_drv.h")
    1803                            .dwattr $C$DW$171, DW_AT_decl_line(0xc6)
    1804                            .dwattr $C$DW$171, DW_AT_decl_column(0x0d)
    1805                    
    1806                    $C$DW$172       .dwtag  DW_TAG_member
    1807                            .dwattr $C$DW$172, DW_AT_type(*$C$DW$T$19)
    1808                            .dwattr $C$DW$172, DW_AT_name("ui8Addr")
    1809                            .dwattr $C$DW$172, DW_AT_TI_symbol_name("ui8Addr")
    1810                            .dwattr $C$DW$172, DW_AT_data_member_location[DW_OP_plus_uconst 0x9]
    1811                            .dwattr $C$DW$172, DW_AT_accessibility(DW_ACCESS_public)
    1812                            .dwattr $C$DW$172, DW_AT_decl_file("C:/TI_CodeComposer/TivaWare/sensorlib/i2cm_drv.h")
    1813                            .dwattr $C$DW$172, DW_AT_decl_line(0xcb)
    1814                            .dwattr $C$DW$172, DW_AT_decl_column(0x0d)
    1815                    
    1816                    $C$DW$173       .dwtag  DW_TAG_member
    1817                            .dwattr $C$DW$173, DW_AT_type(*$C$DW$T$19)
    1818                            .dwattr $C$DW$173, DW_AT_name("ui8Mask")
    1819                            .dwattr $C$DW$173, DW_AT_TI_symbol_name("ui8Mask")
TI ARM Assembler PC v15.12.1 Thu Oct 27 14:03:10 2016

Tools Copyright (c) 1996-2015 Texas Instruments Incorporated
Main_Base.asm                                                        PAGE   35

    1820                            .dwattr $C$DW$173, DW_AT_data_member_location[DW_OP_plus_uconst 0xa]
    1821                            .dwattr $C$DW$173, DW_AT_accessibility(DW_ACCESS_public)
    1822                            .dwattr $C$DW$173, DW_AT_decl_file("C:/TI_CodeComposer/TivaWare/sensorlib/i2cm_drv.h")
    1823                            .dwattr $C$DW$173, DW_AT_decl_line(0xd0)
    1824                            .dwattr $C$DW$173, DW_AT_decl_column(0x0d)
    1825                    
    1826                    $C$DW$174       .dwtag  DW_TAG_member
    1827                            .dwattr $C$DW$174, DW_AT_type(*$C$DW$T$19)
    1828                            .dwattr $C$DW$174, DW_AT_name("ui8Value")
    1829                            .dwattr $C$DW$174, DW_AT_TI_symbol_name("ui8Value")
    1830                            .dwattr $C$DW$174, DW_AT_data_member_location[DW_OP_plus_uconst 0xb]
    1831                            .dwattr $C$DW$174, DW_AT_accessibility(DW_ACCESS_public)
    1832                            .dwattr $C$DW$174, DW_AT_decl_file("C:/TI_CodeComposer/TivaWare/sensorlib/i2cm_drv.h")
    1833                            .dwattr $C$DW$174, DW_AT_decl_line(0xd5)
    1834                            .dwattr $C$DW$174, DW_AT_decl_column(0x0d)
    1835                    
    1836                    $C$DW$175       .dwtag  DW_TAG_member
    1837                            .dwattr $C$DW$175, DW_AT_type(*$C$DW$T$28)
    1838                            .dwattr $C$DW$175, DW_AT_name("pfnCallback")
    1839                            .dwattr $C$DW$175, DW_AT_TI_symbol_name("pfnCallback")
    1840                            .dwattr $C$DW$175, DW_AT_data_member_location[DW_OP_plus_uconst 0xc]
    1841                            .dwattr $C$DW$175, DW_AT_accessibility(DW_ACCESS_public)
    1842                            .dwattr $C$DW$175, DW_AT_decl_file("C:/TI_CodeComposer/TivaWare/sensorlib/i2cm_drv.h")
    1843                            .dwattr $C$DW$175, DW_AT_decl_line(0xdb)
    1844                            .dwattr $C$DW$175, DW_AT_decl_column(0x16)
    1845                    
    1846                    $C$DW$176       .dwtag  DW_TAG_member
    1847                            .dwattr $C$DW$176, DW_AT_type(*$C$DW$T$3)
    1848                            .dwattr $C$DW$176, DW_AT_name("pvCallbackData")
    1849                            .dwattr $C$DW$176, DW_AT_TI_symbol_name("pvCallbackData")
    1850                            .dwattr $C$DW$176, DW_AT_data_member_location[DW_OP_plus_uconst 0x10]
    1851                            .dwattr $C$DW$176, DW_AT_accessibility(DW_ACCESS_public)
    1852                            .dwattr $C$DW$176, DW_AT_decl_file("C:/TI_CodeComposer/TivaWare/sensorlib/i2cm_drv.h")
    1853                            .dwattr $C$DW$176, DW_AT_decl_line(0xe0)
    1854                            .dwattr $C$DW$176, DW_AT_decl_column(0x0b)
    1855                    
    1856                            .dwattr $C$DW$T$37, DW_AT_decl_file("C:/TI_CodeComposer/TivaWare/sensorlib/i2cm_drv.h")
    1857                            .dwattr $C$DW$T$37, DW_AT_decl_line(0xb7)
    1858                            .dwattr $C$DW$T$37, DW_AT_decl_column(0x01)
    1859                            .dwendtag $C$DW$T$37
    1860                    
    1861                    $C$DW$T$50      .dwtag  DW_TAG_typedef
    1862                            .dwattr $C$DW$T$50, DW_AT_name("tI2CMReadModifyWrite8")
    1863                            .dwattr $C$DW$T$50, DW_AT_type(*$C$DW$T$37)
    1864                            .dwattr $C$DW$T$50, DW_AT_language(DW_LANG_C)
    1865                            .dwattr $C$DW$T$50, DW_AT_decl_file("C:/TI_CodeComposer/TivaWare/sensorlib/i2cm_drv.h")
    1866                            .dwattr $C$DW$T$50, DW_AT_decl_line(0xe2)
    1867                            .dwattr $C$DW$T$50, DW_AT_decl_column(0x01)
    1868                    
    1869                    
    1870                    $C$DW$T$39      .dwtag  DW_TAG_structure_type
    1871                            .dwattr $C$DW$T$39, DW_AT_byte_size(0x14)
    1872                    $C$DW$177       .dwtag  DW_TAG_member
    1873                            .dwattr $C$DW$177, DW_AT_type(*$C$DW$T$34)
    1874                            .dwattr $C$DW$177, DW_AT_name("psI2CInst")
TI ARM Assembler PC v15.12.1 Thu Oct 27 14:03:10 2016

Tools Copyright (c) 1996-2015 Texas Instruments Incorporated
Main_Base.asm                                                        PAGE   36

    1875                            .dwattr $C$DW$177, DW_AT_TI_symbol_name("psI2CInst")
    1876                            .dwattr $C$DW$177, DW_AT_data_member_location[DW_OP_plus_uconst 0x0]
    1877                            .dwattr $C$DW$177, DW_AT_accessibility(DW_ACCESS_public)
    1878                            .dwattr $C$DW$177, DW_AT_decl_file("C:/TI_CodeComposer/TivaWare/sensorlib/i2cm_drv.h")
    1879                            .dwattr $C$DW$177, DW_AT_decl_line(0x123)
    1880                            .dwattr $C$DW$177, DW_AT_decl_column(0x14)
    1881                    
    1882                    $C$DW$178       .dwtag  DW_TAG_member
    1883                            .dwattr $C$DW$178, DW_AT_type(*$C$DW$T$38)
    1884                            .dwattr $C$DW$178, DW_AT_name("pui8Buffer")
    1885                            .dwattr $C$DW$178, DW_AT_TI_symbol_name("pui8Buffer")
    1886                            .dwattr $C$DW$178, DW_AT_data_member_location[DW_OP_plus_uconst 0x4]
    1887                            .dwattr $C$DW$178, DW_AT_accessibility(DW_ACCESS_public)
    1888                            .dwattr $C$DW$178, DW_AT_decl_file("C:/TI_CodeComposer/TivaWare/sensorlib/i2cm_drv.h")
    1889                            .dwattr $C$DW$178, DW_AT_decl_line(0x128)
    1890                            .dwattr $C$DW$178, DW_AT_decl_column(0x0d)
    1891                    
    1892                    $C$DW$179       .dwtag  DW_TAG_member
    1893                            .dwattr $C$DW$179, DW_AT_type(*$C$DW$T$22)
    1894                            .dwattr $C$DW$179, DW_AT_name("ui16Count")
    1895                            .dwattr $C$DW$179, DW_AT_TI_symbol_name("ui16Count")
    1896                            .dwattr $C$DW$179, DW_AT_data_member_location[DW_OP_plus_uconst 0x6]
    1897                            .dwattr $C$DW$179, DW_AT_accessibility(DW_ACCESS_public)
    1898                            .dwattr $C$DW$179, DW_AT_decl_file("C:/TI_CodeComposer/TivaWare/sensorlib/i2cm_drv.h")
    1899                            .dwattr $C$DW$179, DW_AT_decl_line(0x12d)
    1900                            .dwattr $C$DW$179, DW_AT_decl_column(0x0e)
    1901                    
    1902                    $C$DW$180       .dwtag  DW_TAG_member
    1903                            .dwattr $C$DW$180, DW_AT_type(*$C$DW$T$21)
    1904                            .dwattr $C$DW$180, DW_AT_name("pui8Data")
    1905                            .dwattr $C$DW$180, DW_AT_TI_symbol_name("pui8Data")
    1906                            .dwattr $C$DW$180, DW_AT_data_member_location[DW_OP_plus_uconst 0x8]
    1907                            .dwattr $C$DW$180, DW_AT_accessibility(DW_ACCESS_public)
    1908                            .dwattr $C$DW$180, DW_AT_decl_file("C:/TI_CodeComposer/TivaWare/sensorlib/i2cm_drv.h")
    1909                            .dwattr $C$DW$180, DW_AT_decl_line(0x132)
    1910                            .dwattr $C$DW$180, DW_AT_decl_column(0x14)
    1911                    
    1912                    $C$DW$181       .dwtag  DW_TAG_member
    1913                            .dwattr $C$DW$181, DW_AT_type(*$C$DW$T$28)
    1914                            .dwattr $C$DW$181, DW_AT_name("pfnCallback")
    1915                            .dwattr $C$DW$181, DW_AT_TI_symbol_name("pfnCallback")
    1916                            .dwattr $C$DW$181, DW_AT_data_member_location[DW_OP_plus_uconst 0xc]
    1917                            .dwattr $C$DW$181, DW_AT_accessibility(DW_ACCESS_public)
    1918                            .dwattr $C$DW$181, DW_AT_decl_file("C:/TI_CodeComposer/TivaWare/sensorlib/i2cm_drv.h")
    1919                            .dwattr $C$DW$181, DW_AT_decl_line(0x137)
    1920                            .dwattr $C$DW$181, DW_AT_decl_column(0x16)
    1921                    
    1922                    $C$DW$182       .dwtag  DW_TAG_member
    1923                            .dwattr $C$DW$182, DW_AT_type(*$C$DW$T$3)
    1924                            .dwattr $C$DW$182, DW_AT_name("pvCallbackData")
    1925                            .dwattr $C$DW$182, DW_AT_TI_symbol_name("pvCallbackData")
    1926                            .dwattr $C$DW$182, DW_AT_data_member_location[DW_OP_plus_uconst 0x10]
    1927                            .dwattr $C$DW$182, DW_AT_accessibility(DW_ACCESS_public)
    1928                            .dwattr $C$DW$182, DW_AT_decl_file("C:/TI_CodeComposer/TivaWare/sensorlib/i2cm_drv.h")
    1929                            .dwattr $C$DW$182, DW_AT_decl_line(0x13c)
TI ARM Assembler PC v15.12.1 Thu Oct 27 14:03:10 2016

Tools Copyright (c) 1996-2015 Texas Instruments Incorporated
Main_Base.asm                                                        PAGE   37

    1930                            .dwattr $C$DW$182, DW_AT_decl_column(0x0b)
    1931                    
    1932                            .dwattr $C$DW$T$39, DW_AT_decl_file("C:/TI_CodeComposer/TivaWare/sensorlib/i2cm_drv.h")
    1933                            .dwattr $C$DW$T$39, DW_AT_decl_line(0x11e)
    1934                            .dwattr $C$DW$T$39, DW_AT_decl_column(0x01)
    1935                            .dwendtag $C$DW$T$39
    1936                    
    1937                    $C$DW$T$49      .dwtag  DW_TAG_typedef
    1938                            .dwattr $C$DW$T$49, DW_AT_name("tI2CMWrite8")
    1939                            .dwattr $C$DW$T$49, DW_AT_type(*$C$DW$T$39)
    1940                            .dwattr $C$DW$T$49, DW_AT_language(DW_LANG_C)
    1941                            .dwattr $C$DW$T$49, DW_AT_decl_file("C:/TI_CodeComposer/TivaWare/sensorlib/i2cm_drv.h")
    1942                            .dwattr $C$DW$T$49, DW_AT_decl_line(0x13e)
    1943                            .dwattr $C$DW$T$49, DW_AT_decl_column(0x01)
    1944                    
    1945                    
    1946                    $C$DW$T$40      .dwtag  DW_TAG_structure_type
    1947                            .dwattr $C$DW$T$40, DW_AT_byte_size(0x14)
    1948                    $C$DW$183       .dwtag  DW_TAG_member
    1949                            .dwattr $C$DW$183, DW_AT_type(*$C$DW$T$34)
    1950                            .dwattr $C$DW$183, DW_AT_name("psI2CInst")
    1951                            .dwattr $C$DW$183, DW_AT_TI_symbol_name("psI2CInst")
    1952                            .dwattr $C$DW$183, DW_AT_data_member_location[DW_OP_plus_uconst 0x0]
    1953                            .dwattr $C$DW$183, DW_AT_accessibility(DW_ACCESS_public)
    1954                            .dwattr $C$DW$183, DW_AT_decl_file("C:/TI_CodeComposer/TivaWare/sensorlib/i2cm_drv.h")
    1955                            .dwattr $C$DW$183, DW_AT_decl_line(0x14c)
    1956                            .dwattr $C$DW$183, DW_AT_decl_column(0x14)
    1957                    
    1958                    $C$DW$184       .dwtag  DW_TAG_member
    1959                            .dwattr $C$DW$184, DW_AT_type(*$C$DW$T$23)
    1960                            .dwattr $C$DW$184, DW_AT_name("pui8Data")
    1961                            .dwattr $C$DW$184, DW_AT_TI_symbol_name("pui8Data")
    1962                            .dwattr $C$DW$184, DW_AT_data_member_location[DW_OP_plus_uconst 0x4]
    1963                            .dwattr $C$DW$184, DW_AT_accessibility(DW_ACCESS_public)
    1964                            .dwattr $C$DW$184, DW_AT_decl_file("C:/TI_CodeComposer/TivaWare/sensorlib/i2cm_drv.h")
    1965                            .dwattr $C$DW$184, DW_AT_decl_line(0x151)
    1966                            .dwattr $C$DW$184, DW_AT_decl_column(0x0e)
    1967                    
    1968                    $C$DW$185       .dwtag  DW_TAG_member
    1969                            .dwattr $C$DW$185, DW_AT_type(*$C$DW$T$22)
    1970                            .dwattr $C$DW$185, DW_AT_name("ui16Count")
    1971                            .dwattr $C$DW$185, DW_AT_TI_symbol_name("ui16Count")
    1972                            .dwattr $C$DW$185, DW_AT_data_member_location[DW_OP_plus_uconst 0x8]
    1973                            .dwattr $C$DW$185, DW_AT_accessibility(DW_ACCESS_public)
    1974                            .dwattr $C$DW$185, DW_AT_decl_file("C:/TI_CodeComposer/TivaWare/sensorlib/i2cm_drv.h")
    1975                            .dwattr $C$DW$185, DW_AT_decl_line(0x156)
    1976                            .dwattr $C$DW$185, DW_AT_decl_column(0x0e)
    1977                    
    1978                    $C$DW$186       .dwtag  DW_TAG_member
    1979                            .dwattr $C$DW$186, DW_AT_type(*$C$DW$T$28)
    1980                            .dwattr $C$DW$186, DW_AT_name("pfnCallback")
    1981                            .dwattr $C$DW$186, DW_AT_TI_symbol_name("pfnCallback")
    1982                            .dwattr $C$DW$186, DW_AT_data_member_location[DW_OP_plus_uconst 0xc]
    1983                            .dwattr $C$DW$186, DW_AT_accessibility(DW_ACCESS_public)
    1984                            .dwattr $C$DW$186, DW_AT_decl_file("C:/TI_CodeComposer/TivaWare/sensorlib/i2cm_drv.h")
TI ARM Assembler PC v15.12.1 Thu Oct 27 14:03:10 2016

Tools Copyright (c) 1996-2015 Texas Instruments Incorporated
Main_Base.asm                                                        PAGE   38

    1985                            .dwattr $C$DW$186, DW_AT_decl_line(0x15b)
    1986                            .dwattr $C$DW$186, DW_AT_decl_column(0x16)
    1987                    
    1988                    $C$DW$187       .dwtag  DW_TAG_member
    1989                            .dwattr $C$DW$187, DW_AT_type(*$C$DW$T$3)
    1990                            .dwattr $C$DW$187, DW_AT_name("pvCallbackData")
    1991                            .dwattr $C$DW$187, DW_AT_TI_symbol_name("pvCallbackData")
    1992                            .dwattr $C$DW$187, DW_AT_data_member_location[DW_OP_plus_uconst 0x10]
    1993                            .dwattr $C$DW$187, DW_AT_accessibility(DW_ACCESS_public)
    1994                            .dwattr $C$DW$187, DW_AT_decl_file("C:/TI_CodeComposer/TivaWare/sensorlib/i2cm_drv.h")
    1995                            .dwattr $C$DW$187, DW_AT_decl_line(0x160)
    1996                            .dwattr $C$DW$187, DW_AT_decl_column(0x0b)
    1997                    
    1998                            .dwattr $C$DW$T$40, DW_AT_decl_file("C:/TI_CodeComposer/TivaWare/sensorlib/i2cm_drv.h")
    1999                            .dwattr $C$DW$T$40, DW_AT_decl_line(0x147)
    2000                            .dwattr $C$DW$T$40, DW_AT_decl_column(0x01)
    2001                            .dwendtag $C$DW$T$40
    2002                    
    2003                    $C$DW$T$92      .dwtag  DW_TAG_typedef
    2004                            .dwattr $C$DW$T$92, DW_AT_name("tI2CMRead16BE")
    2005                            .dwattr $C$DW$T$92, DW_AT_type(*$C$DW$T$40)
    2006                            .dwattr $C$DW$T$92, DW_AT_language(DW_LANG_C)
    2007                            .dwattr $C$DW$T$92, DW_AT_decl_file("C:/TI_CodeComposer/TivaWare/sensorlib/i2cm_drv.h")
    2008                            .dwattr $C$DW$T$92, DW_AT_decl_line(0x162)
    2009                            .dwattr $C$DW$T$92, DW_AT_decl_column(0x01)
    2010                    
    2011                    
    2012                    $C$DW$T$41      .dwtag  DW_TAG_structure_type
    2013                            .dwattr $C$DW$T$41, DW_AT_byte_size(0x14)
    2014                    $C$DW$188       .dwtag  DW_TAG_member
    2015                            .dwattr $C$DW$188, DW_AT_type(*$C$DW$T$34)
    2016                            .dwattr $C$DW$188, DW_AT_name("psI2CInst")
    2017                            .dwattr $C$DW$188, DW_AT_TI_symbol_name("psI2CInst")
    2018                            .dwattr $C$DW$188, DW_AT_data_member_location[DW_OP_plus_uconst 0x0]
    2019                            .dwattr $C$DW$188, DW_AT_accessibility(DW_ACCESS_public)
    2020                            .dwattr $C$DW$188, DW_AT_decl_file("C:/TI_CodeComposer/TivaWare/sensorlib/i2cm_drv.h")
    2021                            .dwattr $C$DW$188, DW_AT_decl_line(0x170)
    2022                            .dwattr $C$DW$188, DW_AT_decl_column(0x14)
    2023                    
    2024                    $C$DW$189       .dwtag  DW_TAG_member
    2025                            .dwattr $C$DW$189, DW_AT_type(*$C$DW$T$38)
    2026                            .dwattr $C$DW$189, DW_AT_name("pui8Buffer")
    2027                            .dwattr $C$DW$189, DW_AT_TI_symbol_name("pui8Buffer")
    2028                            .dwattr $C$DW$189, DW_AT_data_member_location[DW_OP_plus_uconst 0x4]
    2029                            .dwattr $C$DW$189, DW_AT_accessibility(DW_ACCESS_public)
    2030                            .dwattr $C$DW$189, DW_AT_decl_file("C:/TI_CodeComposer/TivaWare/sensorlib/i2cm_drv.h")
    2031                            .dwattr $C$DW$189, DW_AT_decl_line(0x175)
    2032                            .dwattr $C$DW$189, DW_AT_decl_column(0x0d)
    2033                    
    2034                    $C$DW$190       .dwtag  DW_TAG_member
    2035                            .dwattr $C$DW$190, DW_AT_type(*$C$DW$T$22)
    2036                            .dwattr $C$DW$190, DW_AT_name("ui16Count")
    2037                            .dwattr $C$DW$190, DW_AT_TI_symbol_name("ui16Count")
    2038                            .dwattr $C$DW$190, DW_AT_data_member_location[DW_OP_plus_uconst 0x6]
    2039                            .dwattr $C$DW$190, DW_AT_accessibility(DW_ACCESS_public)
TI ARM Assembler PC v15.12.1 Thu Oct 27 14:03:10 2016

Tools Copyright (c) 1996-2015 Texas Instruments Incorporated
Main_Base.asm                                                        PAGE   39

    2040                            .dwattr $C$DW$190, DW_AT_decl_file("C:/TI_CodeComposer/TivaWare/sensorlib/i2cm_drv.h")
    2041                            .dwattr $C$DW$190, DW_AT_decl_line(0x17a)
    2042                            .dwattr $C$DW$190, DW_AT_decl_column(0x0e)
    2043                    
    2044                    $C$DW$191       .dwtag  DW_TAG_member
    2045                            .dwattr $C$DW$191, DW_AT_type(*$C$DW$T$21)
    2046                            .dwattr $C$DW$191, DW_AT_name("pui8Data")
    2047                            .dwattr $C$DW$191, DW_AT_TI_symbol_name("pui8Data")
    2048                            .dwattr $C$DW$191, DW_AT_data_member_location[DW_OP_plus_uconst 0x8]
    2049                            .dwattr $C$DW$191, DW_AT_accessibility(DW_ACCESS_public)
    2050                            .dwattr $C$DW$191, DW_AT_decl_file("C:/TI_CodeComposer/TivaWare/sensorlib/i2cm_drv.h")
    2051                            .dwattr $C$DW$191, DW_AT_decl_line(0x17f)
    2052                            .dwattr $C$DW$191, DW_AT_decl_column(0x14)
    2053                    
    2054                    $C$DW$192       .dwtag  DW_TAG_member
    2055                            .dwattr $C$DW$192, DW_AT_type(*$C$DW$T$28)
    2056                            .dwattr $C$DW$192, DW_AT_name("pfnCallback")
    2057                            .dwattr $C$DW$192, DW_AT_TI_symbol_name("pfnCallback")
    2058                            .dwattr $C$DW$192, DW_AT_data_member_location[DW_OP_plus_uconst 0xc]
    2059                            .dwattr $C$DW$192, DW_AT_accessibility(DW_ACCESS_public)
    2060                            .dwattr $C$DW$192, DW_AT_decl_file("C:/TI_CodeComposer/TivaWare/sensorlib/i2cm_drv.h")
    2061                            .dwattr $C$DW$192, DW_AT_decl_line(0x184)
    2062                            .dwattr $C$DW$192, DW_AT_decl_column(0x16)
    2063                    
    2064                    $C$DW$193       .dwtag  DW_TAG_member
    2065                            .dwattr $C$DW$193, DW_AT_type(*$C$DW$T$3)
    2066                            .dwattr $C$DW$193, DW_AT_name("pvCallbackData")
    2067                            .dwattr $C$DW$193, DW_AT_TI_symbol_name("pvCallbackData")
    2068                            .dwattr $C$DW$193, DW_AT_data_member_location[DW_OP_plus_uconst 0x10]
    2069                            .dwattr $C$DW$193, DW_AT_accessibility(DW_ACCESS_public)
    2070                            .dwattr $C$DW$193, DW_AT_decl_file("C:/TI_CodeComposer/TivaWare/sensorlib/i2cm_drv.h")
    2071                            .dwattr $C$DW$193, DW_AT_decl_line(0x189)
    2072                            .dwattr $C$DW$193, DW_AT_decl_column(0x0b)
    2073                    
    2074                            .dwattr $C$DW$T$41, DW_AT_decl_file("C:/TI_CodeComposer/TivaWare/sensorlib/i2cm_drv.h")
    2075                            .dwattr $C$DW$T$41, DW_AT_decl_line(0x16b)
    2076                            .dwattr $C$DW$T$41, DW_AT_decl_column(0x01)
    2077                            .dwendtag $C$DW$T$41
    2078                    
    2079                    $C$DW$T$93      .dwtag  DW_TAG_typedef
    2080                            .dwattr $C$DW$T$93, DW_AT_name("tI2CMWrite16BE")
    2081                            .dwattr $C$DW$T$93, DW_AT_type(*$C$DW$T$41)
    2082                            .dwattr $C$DW$T$93, DW_AT_language(DW_LANG_C)
    2083                            .dwattr $C$DW$T$93, DW_AT_decl_file("C:/TI_CodeComposer/TivaWare/sensorlib/i2cm_drv.h")
    2084                            .dwattr $C$DW$T$93, DW_AT_decl_line(0x18b)
    2085                            .dwattr $C$DW$T$93, DW_AT_decl_column(0x01)
    2086                    
    2087                    
    2088                    $C$DW$T$43      .dwtag  DW_TAG_structure_type
    2089                            .dwattr $C$DW$T$43, DW_AT_byte_size(0x2c)
    2090                    $C$DW$194       .dwtag  DW_TAG_member
    2091                            .dwattr $C$DW$194, DW_AT_type(*$C$DW$T$34)
    2092                            .dwattr $C$DW$194, DW_AT_name("psI2CInst")
    2093                            .dwattr $C$DW$194, DW_AT_TI_symbol_name("psI2CInst")
    2094                            .dwattr $C$DW$194, DW_AT_data_member_location[DW_OP_plus_uconst 0x0]
TI ARM Assembler PC v15.12.1 Thu Oct 27 14:03:10 2016

Tools Copyright (c) 1996-2015 Texas Instruments Incorporated
Main_Base.asm                                                        PAGE   40

    2095                            .dwattr $C$DW$194, DW_AT_accessibility(DW_ACCESS_public)
    2096                            .dwattr $C$DW$194, DW_AT_decl_file("C:/TI_CodeComposer/TivaWare/sensorlib/ak8975.h")
    2097                            .dwattr $C$DW$194, DW_AT_decl_line(0x32)
    2098                            .dwattr $C$DW$194, DW_AT_decl_column(0x14)
    2099                    
    2100                    $C$DW$195       .dwtag  DW_TAG_member
    2101                            .dwattr $C$DW$195, DW_AT_type(*$C$DW$T$19)
    2102                            .dwattr $C$DW$195, DW_AT_name("ui8Addr")
    2103                            .dwattr $C$DW$195, DW_AT_TI_symbol_name("ui8Addr")
    2104                            .dwattr $C$DW$195, DW_AT_data_member_location[DW_OP_plus_uconst 0x4]
    2105                            .dwattr $C$DW$195, DW_AT_accessibility(DW_ACCESS_public)
    2106                            .dwattr $C$DW$195, DW_AT_decl_file("C:/TI_CodeComposer/TivaWare/sensorlib/ak8975.h")
    2107                            .dwattr $C$DW$195, DW_AT_decl_line(0x37)
    2108                            .dwattr $C$DW$195, DW_AT_decl_column(0x0d)
    2109                    
    2110                    $C$DW$196       .dwtag  DW_TAG_member
    2111                            .dwattr $C$DW$196, DW_AT_type(*$C$DW$T$19)
    2112                            .dwattr $C$DW$196, DW_AT_name("ui8State")
    2113                            .dwattr $C$DW$196, DW_AT_TI_symbol_name("ui8State")
    2114                            .dwattr $C$DW$196, DW_AT_data_member_location[DW_OP_plus_uconst 0x5]
    2115                            .dwattr $C$DW$196, DW_AT_accessibility(DW_ACCESS_public)
    2116                            .dwattr $C$DW$196, DW_AT_decl_file("C:/TI_CodeComposer/TivaWare/sensorlib/ak8975.h")
    2117                            .dwattr $C$DW$196, DW_AT_decl_line(0x3c)
    2118                            .dwattr $C$DW$196, DW_AT_decl_column(0x0d)
    2119                    
    2120                    $C$DW$197       .dwtag  DW_TAG_member
    2121                            .dwattr $C$DW$197, DW_AT_type(*$C$DW$T$42)
    2122                            .dwattr $C$DW$197, DW_AT_name("pui8Data")
    2123                            .dwattr $C$DW$197, DW_AT_TI_symbol_name("pui8Data")
    2124                            .dwattr $C$DW$197, DW_AT_data_member_location[DW_OP_plus_uconst 0x6]
    2125                            .dwattr $C$DW$197, DW_AT_accessibility(DW_ACCESS_public)
    2126                            .dwattr $C$DW$197, DW_AT_decl_file("C:/TI_CodeComposer/TivaWare/sensorlib/ak8975.h")
    2127                            .dwattr $C$DW$197, DW_AT_decl_line(0x41)
    2128                            .dwattr $C$DW$197, DW_AT_decl_column(0x0d)
    2129                    
    2130                    $C$DW$198       .dwtag  DW_TAG_member
    2131                            .dwattr $C$DW$198, DW_AT_type(*$C$DW$T$28)
    2132                            .dwattr $C$DW$198, DW_AT_name("pfnCallback")
    2133                            .dwattr $C$DW$198, DW_AT_TI_symbol_name("pfnCallback")
    2134                            .dwattr $C$DW$198, DW_AT_data_member_location[DW_OP_plus_uconst 0x10]
    2135                            .dwattr $C$DW$198, DW_AT_accessibility(DW_ACCESS_public)
    2136                            .dwattr $C$DW$198, DW_AT_decl_file("C:/TI_CodeComposer/TivaWare/sensorlib/ak8975.h")
    2137                            .dwattr $C$DW$198, DW_AT_decl_line(0x47)
    2138                            .dwattr $C$DW$198, DW_AT_decl_column(0x16)
    2139                    
    2140                    $C$DW$199       .dwtag  DW_TAG_member
    2141                            .dwattr $C$DW$199, DW_AT_type(*$C$DW$T$3)
    2142                            .dwattr $C$DW$199, DW_AT_name("pvCallbackData")
    2143                            .dwattr $C$DW$199, DW_AT_TI_symbol_name("pvCallbackData")
    2144                            .dwattr $C$DW$199, DW_AT_data_member_location[DW_OP_plus_uconst 0x14]
    2145                            .dwattr $C$DW$199, DW_AT_accessibility(DW_ACCESS_public)
    2146                            .dwattr $C$DW$199, DW_AT_decl_file("C:/TI_CodeComposer/TivaWare/sensorlib/ak8975.h")
    2147                            .dwattr $C$DW$199, DW_AT_decl_line(0x4c)
    2148                            .dwattr $C$DW$199, DW_AT_decl_column(0x0b)
    2149                    
TI ARM Assembler PC v15.12.1 Thu Oct 27 14:03:10 2016

Tools Copyright (c) 1996-2015 Texas Instruments Incorporated
Main_Base.asm                                                        PAGE   41

    2150                    $C$DW$200       .dwtag  DW_TAG_member
    2151                            .dwattr $C$DW$200, DW_AT_type(*$C$DW$T$51)
    2152                            .dwattr $C$DW$200, DW_AT_name("uCommand")
    2153                            .dwattr $C$DW$200, DW_AT_TI_symbol_name("uCommand")
    2154                            .dwattr $C$DW$200, DW_AT_data_member_location[DW_OP_plus_uconst 0x18]
    2155                            .dwattr $C$DW$200, DW_AT_accessibility(DW_ACCESS_public)
    2156                            .dwattr $C$DW$200, DW_AT_decl_file("C:/TI_CodeComposer/TivaWare/sensorlib/ak8975.h")
    2157                            .dwattr $C$DW$200, DW_AT_decl_line(0x64)
    2158                            .dwattr $C$DW$200, DW_AT_decl_column(0x05)
    2159                    
    2160                            .dwattr $C$DW$T$43, DW_AT_decl_file("C:/TI_CodeComposer/TivaWare/sensorlib/ak8975.h")
    2161                            .dwattr $C$DW$T$43, DW_AT_decl_line(0x2d)
    2162                            .dwattr $C$DW$T$43, DW_AT_decl_column(0x01)
    2163                            .dwendtag $C$DW$T$43
    2164                    
    2165                    $C$DW$T$44      .dwtag  DW_TAG_typedef
    2166                            .dwattr $C$DW$T$44, DW_AT_name("tAK8975")
    2167                            .dwattr $C$DW$T$44, DW_AT_type(*$C$DW$T$43)
    2168                            .dwattr $C$DW$T$44, DW_AT_language(DW_LANG_C)
    2169                            .dwattr $C$DW$T$44, DW_AT_decl_file("C:/TI_CodeComposer/TivaWare/sensorlib/ak8975.h")
    2170                            .dwattr $C$DW$T$44, DW_AT_decl_line(0x66)
    2171                            .dwattr $C$DW$T$44, DW_AT_decl_column(0x01)
    2172                    
    2173                    
    2174                    $C$DW$T$46      .dwtag  DW_TAG_structure_type
    2175                            .dwattr $C$DW$T$46, DW_AT_byte_size(0x6c)
    2176                    $C$DW$201       .dwtag  DW_TAG_member
    2177                            .dwattr $C$DW$201, DW_AT_type(*$C$DW$T$34)
    2178                            .dwattr $C$DW$201, DW_AT_name("psI2CInst")
    2179                            .dwattr $C$DW$201, DW_AT_TI_symbol_name("psI2CInst")
    2180                            .dwattr $C$DW$201, DW_AT_data_member_location[DW_OP_plus_uconst 0x0]
    2181                            .dwattr $C$DW$201, DW_AT_accessibility(DW_ACCESS_public)
    2182                            .dwattr $C$DW$201, DW_AT_decl_file("C:/TI_CodeComposer/TivaWare/sensorlib/mpu9150.h")
    2183                            .dwattr $C$DW$201, DW_AT_decl_line(0x33)
    2184                            .dwattr $C$DW$201, DW_AT_decl_column(0x14)
    2185                    
    2186                    $C$DW$202       .dwtag  DW_TAG_member
    2187                            .dwattr $C$DW$202, DW_AT_type(*$C$DW$T$44)
    2188                            .dwattr $C$DW$202, DW_AT_name("sAK8975Inst")
    2189                            .dwattr $C$DW$202, DW_AT_TI_symbol_name("sAK8975Inst")
    2190                            .dwattr $C$DW$202, DW_AT_data_member_location[DW_OP_plus_uconst 0x4]
    2191                            .dwattr $C$DW$202, DW_AT_accessibility(DW_ACCESS_public)
    2192                            .dwattr $C$DW$202, DW_AT_decl_file("C:/TI_CodeComposer/TivaWare/sensorlib/mpu9150.h")
    2193                            .dwattr $C$DW$202, DW_AT_decl_line(0x38)
    2194                            .dwattr $C$DW$202, DW_AT_decl_column(0x0d)
    2195                    
    2196                    $C$DW$203       .dwtag  DW_TAG_member
    2197                            .dwattr $C$DW$203, DW_AT_type(*$C$DW$T$19)
    2198                            .dwattr $C$DW$203, DW_AT_name("ui8Addr")
    2199                            .dwattr $C$DW$203, DW_AT_TI_symbol_name("ui8Addr")
    2200                            .dwattr $C$DW$203, DW_AT_data_member_location[DW_OP_plus_uconst 0x30]
    2201                            .dwattr $C$DW$203, DW_AT_accessibility(DW_ACCESS_public)
    2202                            .dwattr $C$DW$203, DW_AT_decl_file("C:/TI_CodeComposer/TivaWare/sensorlib/mpu9150.h")
    2203                            .dwattr $C$DW$203, DW_AT_decl_line(0x3d)
    2204                            .dwattr $C$DW$203, DW_AT_decl_column(0x0d)
TI ARM Assembler PC v15.12.1 Thu Oct 27 14:03:10 2016

Tools Copyright (c) 1996-2015 Texas Instruments Incorporated
Main_Base.asm                                                        PAGE   42

    2205                    
    2206                    $C$DW$204       .dwtag  DW_TAG_member
    2207                            .dwattr $C$DW$204, DW_AT_type(*$C$DW$T$19)
    2208                            .dwattr $C$DW$204, DW_AT_name("ui8State")
    2209                            .dwattr $C$DW$204, DW_AT_TI_symbol_name("ui8State")
    2210                            .dwattr $C$DW$204, DW_AT_data_member_location[DW_OP_plus_uconst 0x31]
    2211                            .dwattr $C$DW$204, DW_AT_accessibility(DW_ACCESS_public)
    2212                            .dwattr $C$DW$204, DW_AT_decl_file("C:/TI_CodeComposer/TivaWare/sensorlib/mpu9150.h")
    2213                            .dwattr $C$DW$204, DW_AT_decl_line(0x42)
    2214                            .dwattr $C$DW$204, DW_AT_decl_column(0x0d)
    2215                    
    2216                    $C$DW$205       .dwtag  DW_TAG_member
    2217                            .dwattr $C$DW$205, DW_AT_type(*$C$DW$T$19)
    2218                            .dwattr $C$DW$205, DW_AT_name("ui8AccelAfsSel")
    2219                            .dwattr $C$DW$205, DW_AT_TI_symbol_name("ui8AccelAfsSel")
    2220                            .dwattr $C$DW$205, DW_AT_data_member_location[DW_OP_plus_uconst 0x32]
    2221                            .dwattr $C$DW$205, DW_AT_accessibility(DW_ACCESS_public)
    2222                            .dwattr $C$DW$205, DW_AT_decl_file("C:/TI_CodeComposer/TivaWare/sensorlib/mpu9150.h")
    2223                            .dwattr $C$DW$205, DW_AT_decl_line(0x47)
    2224                            .dwattr $C$DW$205, DW_AT_decl_column(0x0d)
    2225                    
    2226                    $C$DW$206       .dwtag  DW_TAG_member
    2227                            .dwattr $C$DW$206, DW_AT_type(*$C$DW$T$19)
    2228                            .dwattr $C$DW$206, DW_AT_name("ui8NewAccelAfsSel")
    2229                            .dwattr $C$DW$206, DW_AT_TI_symbol_name("ui8NewAccelAfsSel")
    2230                            .dwattr $C$DW$206, DW_AT_data_member_location[DW_OP_plus_uconst 0x33]
    2231                            .dwattr $C$DW$206, DW_AT_accessibility(DW_ACCESS_public)
    2232                            .dwattr $C$DW$206, DW_AT_decl_file("C:/TI_CodeComposer/TivaWare/sensorlib/mpu9150.h")
    2233                            .dwattr $C$DW$206, DW_AT_decl_line(0x4d)
    2234                            .dwattr $C$DW$206, DW_AT_decl_column(0x0d)
    2235                    
    2236                    $C$DW$207       .dwtag  DW_TAG_member
    2237                            .dwattr $C$DW$207, DW_AT_type(*$C$DW$T$19)
    2238                            .dwattr $C$DW$207, DW_AT_name("ui8GyroFsSel")
    2239                            .dwattr $C$DW$207, DW_AT_TI_symbol_name("ui8GyroFsSel")
    2240                            .dwattr $C$DW$207, DW_AT_data_member_location[DW_OP_plus_uconst 0x34]
    2241                            .dwattr $C$DW$207, DW_AT_accessibility(DW_ACCESS_public)
    2242                            .dwattr $C$DW$207, DW_AT_decl_file("C:/TI_CodeComposer/TivaWare/sensorlib/mpu9150.h")
    2243                            .dwattr $C$DW$207, DW_AT_decl_line(0x52)
    2244                            .dwattr $C$DW$207, DW_AT_decl_column(0x0d)
    2245                    
    2246                    $C$DW$208       .dwtag  DW_TAG_member
    2247                            .dwattr $C$DW$208, DW_AT_type(*$C$DW$T$19)
    2248                            .dwattr $C$DW$208, DW_AT_name("ui8NewGyroFsSel")
    2249                            .dwattr $C$DW$208, DW_AT_TI_symbol_name("ui8NewGyroFsSel")
    2250                            .dwattr $C$DW$208, DW_AT_data_member_location[DW_OP_plus_uconst 0x35]
    2251                            .dwattr $C$DW$208, DW_AT_accessibility(DW_ACCESS_public)
    2252                            .dwattr $C$DW$208, DW_AT_decl_file("C:/TI_CodeComposer/TivaWare/sensorlib/mpu9150.h")
    2253                            .dwattr $C$DW$208, DW_AT_decl_line(0x58)
    2254                            .dwattr $C$DW$208, DW_AT_decl_column(0x0d)
    2255                    
    2256                    $C$DW$209       .dwtag  DW_TAG_member
    2257                            .dwattr $C$DW$209, DW_AT_type(*$C$DW$T$45)
    2258                            .dwattr $C$DW$209, DW_AT_name("pui8Data")
    2259                            .dwattr $C$DW$209, DW_AT_TI_symbol_name("pui8Data")
TI ARM Assembler PC v15.12.1 Thu Oct 27 14:03:10 2016

Tools Copyright (c) 1996-2015 Texas Instruments Incorporated
Main_Base.asm                                                        PAGE   43

    2260                            .dwattr $C$DW$209, DW_AT_data_member_location[DW_OP_plus_uconst 0x36]
    2261                            .dwattr $C$DW$209, DW_AT_accessibility(DW_ACCESS_public)
    2262                            .dwattr $C$DW$209, DW_AT_decl_file("C:/TI_CodeComposer/TivaWare/sensorlib/mpu9150.h")
    2263                            .dwattr $C$DW$209, DW_AT_decl_line(0x5d)
    2264                            .dwattr $C$DW$209, DW_AT_decl_column(0x0d)
    2265                    
    2266                    $C$DW$210       .dwtag  DW_TAG_member
    2267                            .dwattr $C$DW$210, DW_AT_type(*$C$DW$T$28)
    2268                            .dwattr $C$DW$210, DW_AT_name("pfnCallback")
    2269                            .dwattr $C$DW$210, DW_AT_TI_symbol_name("pfnCallback")
    2270                            .dwattr $C$DW$210, DW_AT_data_member_location[DW_OP_plus_uconst 0x50]
    2271                            .dwattr $C$DW$210, DW_AT_accessibility(DW_ACCESS_public)
    2272                            .dwattr $C$DW$210, DW_AT_decl_file("C:/TI_CodeComposer/TivaWare/sensorlib/mpu9150.h")
    2273                            .dwattr $C$DW$210, DW_AT_decl_line(0x63)
    2274                            .dwattr $C$DW$210, DW_AT_decl_column(0x16)
    2275                    
    2276                    $C$DW$211       .dwtag  DW_TAG_member
    2277                            .dwattr $C$DW$211, DW_AT_type(*$C$DW$T$3)
    2278                            .dwattr $C$DW$211, DW_AT_name("pvCallbackData")
    2279                            .dwattr $C$DW$211, DW_AT_TI_symbol_name("pvCallbackData")
    2280                            .dwattr $C$DW$211, DW_AT_data_member_location[DW_OP_plus_uconst 0x54]
    2281                            .dwattr $C$DW$211, DW_AT_accessibility(DW_ACCESS_public)
    2282                            .dwattr $C$DW$211, DW_AT_decl_file("C:/TI_CodeComposer/TivaWare/sensorlib/mpu9150.h")
    2283                            .dwattr $C$DW$211, DW_AT_decl_line(0x68)
    2284                            .dwattr $C$DW$211, DW_AT_decl_column(0x0b)
    2285                    
    2286                    $C$DW$212       .dwtag  DW_TAG_member
    2287                            .dwattr $C$DW$212, DW_AT_type(*$C$DW$T$53)
    2288                            .dwattr $C$DW$212, DW_AT_name("uCommand")
    2289                            .dwattr $C$DW$212, DW_AT_TI_symbol_name("uCommand")
    2290                            .dwattr $C$DW$212, DW_AT_data_member_location[DW_OP_plus_uconst 0x58]
    2291                            .dwattr $C$DW$212, DW_AT_accessibility(DW_ACCESS_public)
    2292                            .dwattr $C$DW$212, DW_AT_decl_file("C:/TI_CodeComposer/TivaWare/sensorlib/mpu9150.h")
    2293                            .dwattr $C$DW$212, DW_AT_decl_line(0x80)
    2294                            .dwattr $C$DW$212, DW_AT_decl_column(0x05)
    2295                    
    2296                            .dwattr $C$DW$T$46, DW_AT_decl_file("C:/TI_CodeComposer/TivaWare/sensorlib/mpu9150.h")
    2297                            .dwattr $C$DW$T$46, DW_AT_decl_line(0x2e)
    2298                            .dwattr $C$DW$T$46, DW_AT_decl_column(0x01)
    2299                            .dwendtag $C$DW$T$46
    2300                    
    2301                    $C$DW$T$94      .dwtag  DW_TAG_typedef
    2302                            .dwattr $C$DW$T$94, DW_AT_name("tMPU9150")
    2303                            .dwattr $C$DW$T$94, DW_AT_type(*$C$DW$T$46)
    2304                            .dwattr $C$DW$T$94, DW_AT_language(DW_LANG_C)
    2305                            .dwattr $C$DW$T$94, DW_AT_decl_file("C:/TI_CodeComposer/TivaWare/sensorlib/mpu9150.h")
    2306                            .dwattr $C$DW$T$94, DW_AT_decl_line(0x82)
    2307                            .dwattr $C$DW$T$94, DW_AT_decl_column(0x01)
    2308                    
    2309                    
    2310                    $C$DW$T$48      .dwtag  DW_TAG_structure_type
    2311                            .dwattr $C$DW$T$48, DW_AT_byte_size(0x18)
    2312                    $C$DW$213       .dwtag  DW_TAG_member
    2313                            .dwattr $C$DW$213, DW_AT_type(*$C$DW$T$10)
    2314                            .dwattr $C$DW$213, DW_AT_name("fd")
TI ARM Assembler PC v15.12.1 Thu Oct 27 14:03:10 2016

Tools Copyright (c) 1996-2015 Texas Instruments Incorporated
Main_Base.asm                                                        PAGE   44

    2315                            .dwattr $C$DW$213, DW_AT_TI_symbol_name("fd")
    2316                            .dwattr $C$DW$213, DW_AT_data_member_location[DW_OP_plus_uconst 0x0]
    2317                            .dwattr $C$DW$213, DW_AT_accessibility(DW_ACCESS_public)
    2318                            .dwattr $C$DW$213, DW_AT_decl_file("C:/TI_CodeComposer/ccsv6/tools/compiler/ti-cgt-arm_15.12.1
    2319                            .dwattr $C$DW$213, DW_AT_decl_line(0x5c)
    2320                            .dwattr $C$DW$213, DW_AT_decl_column(0x0b)
    2321                    
    2322                    $C$DW$214       .dwtag  DW_TAG_member
    2323                            .dwattr $C$DW$214, DW_AT_type(*$C$DW$T$47)
    2324                            .dwattr $C$DW$214, DW_AT_name("buf")
    2325                            .dwattr $C$DW$214, DW_AT_TI_symbol_name("buf")
    2326                            .dwattr $C$DW$214, DW_AT_data_member_location[DW_OP_plus_uconst 0x4]
    2327                            .dwattr $C$DW$214, DW_AT_accessibility(DW_ACCESS_public)
    2328                            .dwattr $C$DW$214, DW_AT_decl_file("C:/TI_CodeComposer/ccsv6/tools/compiler/ti-cgt-arm_15.12.1
    2329                            .dwattr $C$DW$214, DW_AT_decl_line(0x5d)
    2330                            .dwattr $C$DW$214, DW_AT_decl_column(0x16)
    2331                    
    2332                    $C$DW$215       .dwtag  DW_TAG_member
    2333                            .dwattr $C$DW$215, DW_AT_type(*$C$DW$T$47)
    2334                            .dwattr $C$DW$215, DW_AT_name("pos")
    2335                            .dwattr $C$DW$215, DW_AT_TI_symbol_name("pos")
    2336                            .dwattr $C$DW$215, DW_AT_data_member_location[DW_OP_plus_uconst 0x8]
    2337                            .dwattr $C$DW$215, DW_AT_accessibility(DW_ACCESS_public)
    2338                            .dwattr $C$DW$215, DW_AT_decl_file("C:/TI_CodeComposer/ccsv6/tools/compiler/ti-cgt-arm_15.12.1
    2339                            .dwattr $C$DW$215, DW_AT_decl_line(0x5e)
    2340                            .dwattr $C$DW$215, DW_AT_decl_column(0x16)
    2341                    
    2342                    $C$DW$216       .dwtag  DW_TAG_member
    2343                            .dwattr $C$DW$216, DW_AT_type(*$C$DW$T$47)
    2344                            .dwattr $C$DW$216, DW_AT_name("bufend")
    2345                            .dwattr $C$DW$216, DW_AT_TI_symbol_name("bufend")
    2346                            .dwattr $C$DW$216, DW_AT_data_member_location[DW_OP_plus_uconst 0xc]
    2347                            .dwattr $C$DW$216, DW_AT_accessibility(DW_ACCESS_public)
    2348                            .dwattr $C$DW$216, DW_AT_decl_file("C:/TI_CodeComposer/ccsv6/tools/compiler/ti-cgt-arm_15.12.1
    2349                            .dwattr $C$DW$216, DW_AT_decl_line(0x5f)
    2350                            .dwattr $C$DW$216, DW_AT_decl_column(0x16)
    2351                    
    2352                    $C$DW$217       .dwtag  DW_TAG_member
    2353                            .dwattr $C$DW$217, DW_AT_type(*$C$DW$T$47)
    2354                            .dwattr $C$DW$217, DW_AT_name("buff_stop")
    2355                            .dwattr $C$DW$217, DW_AT_TI_symbol_name("buff_stop")
    2356                            .dwattr $C$DW$217, DW_AT_data_member_location[DW_OP_plus_uconst 0x10]
    2357                            .dwattr $C$DW$217, DW_AT_accessibility(DW_ACCESS_public)
    2358                            .dwattr $C$DW$217, DW_AT_decl_file("C:/TI_CodeComposer/ccsv6/tools/compiler/ti-cgt-arm_15.12.1
    2359                            .dwattr $C$DW$217, DW_AT_decl_line(0x60)
    2360                            .dwattr $C$DW$217, DW_AT_decl_column(0x16)
    2361                    
    2362                    $C$DW$218       .dwtag  DW_TAG_member
    2363                            .dwattr $C$DW$218, DW_AT_type(*$C$DW$T$11)
    2364                            .dwattr $C$DW$218, DW_AT_name("flags")
    2365                            .dwattr $C$DW$218, DW_AT_TI_symbol_name("flags")
    2366                            .dwattr $C$DW$218, DW_AT_data_member_location[DW_OP_plus_uconst 0x14]
    2367                            .dwattr $C$DW$218, DW_AT_accessibility(DW_ACCESS_public)
    2368                            .dwattr $C$DW$218, DW_AT_decl_file("C:/TI_CodeComposer/ccsv6/tools/compiler/ti-cgt-arm_15.12.1
    2369                            .dwattr $C$DW$218, DW_AT_decl_line(0x61)
TI ARM Assembler PC v15.12.1 Thu Oct 27 14:03:10 2016

Tools Copyright (c) 1996-2015 Texas Instruments Incorporated
Main_Base.asm                                                        PAGE   45

    2370                            .dwattr $C$DW$218, DW_AT_decl_column(0x16)
    2371                    
    2372                            .dwattr $C$DW$T$48, DW_AT_decl_file("C:/TI_CodeComposer/ccsv6/tools/compiler/ti-cgt-arm_15.12.
    2373                            .dwattr $C$DW$T$48, DW_AT_decl_line(0x5b)
    2374                            .dwattr $C$DW$T$48, DW_AT_decl_column(0x10)
    2375                            .dwendtag $C$DW$T$48
    2376                    
    2377                    $C$DW$T$95      .dwtag  DW_TAG_typedef
    2378                            .dwattr $C$DW$T$95, DW_AT_name("FILE")
    2379                            .dwattr $C$DW$T$95, DW_AT_type(*$C$DW$T$48)
    2380                            .dwattr $C$DW$T$95, DW_AT_language(DW_LANG_C)
    2381                            .dwattr $C$DW$T$95, DW_AT_decl_file("C:/TI_CodeComposer/ccsv6/tools/compiler/ti-cgt-arm_15.12.
    2382                            .dwattr $C$DW$T$95, DW_AT_decl_line(0x62)
    2383                            .dwattr $C$DW$T$95, DW_AT_decl_column(0x03)
    2384                    
    2385                    
    2386                    $C$DW$T$51      .dwtag  DW_TAG_union_type
    2387                            .dwattr $C$DW$T$51, DW_AT_byte_size(0x14)
    2388                    $C$DW$219       .dwtag  DW_TAG_member
    2389                            .dwattr $C$DW$219, DW_AT_type(*$C$DW$T$38)
    2390                            .dwattr $C$DW$219, DW_AT_name("pui8Buffer")
    2391                            .dwattr $C$DW$219, DW_AT_TI_symbol_name("pui8Buffer")
    2392                            .dwattr $C$DW$219, DW_AT_data_member_location[DW_OP_plus_uconst 0x0]
    2393                            .dwattr $C$DW$219, DW_AT_accessibility(DW_ACCESS_public)
    2394                            .dwattr $C$DW$219, DW_AT_decl_file("C:/TI_CodeComposer/TivaWare/sensorlib/ak8975.h")
    2395                            .dwattr $C$DW$219, DW_AT_decl_line(0x58)
    2396                            .dwattr $C$DW$219, DW_AT_decl_column(0x11)
    2397                    
    2398                    $C$DW$220       .dwtag  DW_TAG_member
    2399                            .dwattr $C$DW$220, DW_AT_type(*$C$DW$T$49)
    2400                            .dwattr $C$DW$220, DW_AT_name("sWriteState")
    2401                            .dwattr $C$DW$220, DW_AT_TI_symbol_name("sWriteState")
    2402                            .dwattr $C$DW$220, DW_AT_data_member_location[DW_OP_plus_uconst 0x0]
    2403                            .dwattr $C$DW$220, DW_AT_accessibility(DW_ACCESS_public)
    2404                            .dwattr $C$DW$220, DW_AT_decl_file("C:/TI_CodeComposer/TivaWare/sensorlib/ak8975.h")
    2405                            .dwattr $C$DW$220, DW_AT_decl_line(0x5d)
    2406                            .dwattr $C$DW$220, DW_AT_decl_column(0x15)
    2407                    
    2408                    $C$DW$221       .dwtag  DW_TAG_member
    2409                            .dwattr $C$DW$221, DW_AT_type(*$C$DW$T$50)
    2410                            .dwattr $C$DW$221, DW_AT_name("sReadModifyWriteState")
    2411                            .dwattr $C$DW$221, DW_AT_TI_symbol_name("sReadModifyWriteState")
    2412                            .dwattr $C$DW$221, DW_AT_data_member_location[DW_OP_plus_uconst 0x0]
    2413                            .dwattr $C$DW$221, DW_AT_accessibility(DW_ACCESS_public)
    2414                            .dwattr $C$DW$221, DW_AT_decl_file("C:/TI_CodeComposer/TivaWare/sensorlib/ak8975.h")
    2415                            .dwattr $C$DW$221, DW_AT_decl_line(0x62)
    2416                            .dwattr $C$DW$221, DW_AT_decl_column(0x1f)
    2417                    
    2418                            .dwattr $C$DW$T$51, DW_AT_decl_file("C:/TI_CodeComposer/TivaWare/sensorlib/ak8975.h")
    2419                            .dwattr $C$DW$T$51, DW_AT_decl_line(0x54)
    2420                            .dwattr $C$DW$T$51, DW_AT_decl_column(0x05)
    2421                            .dwendtag $C$DW$T$51
    2422                    
    2423                    
    2424                    $C$DW$T$53      .dwtag  DW_TAG_union_type
TI ARM Assembler PC v15.12.1 Thu Oct 27 14:03:10 2016

Tools Copyright (c) 1996-2015 Texas Instruments Incorporated
Main_Base.asm                                                        PAGE   46

    2425                            .dwattr $C$DW$T$53, DW_AT_byte_size(0x14)
    2426                    $C$DW$222       .dwtag  DW_TAG_member
    2427                            .dwattr $C$DW$222, DW_AT_type(*$C$DW$T$52)
    2428                            .dwattr $C$DW$222, DW_AT_name("pui8Buffer")
    2429                            .dwattr $C$DW$222, DW_AT_TI_symbol_name("pui8Buffer")
    2430                            .dwattr $C$DW$222, DW_AT_data_member_location[DW_OP_plus_uconst 0x0]
    2431                            .dwattr $C$DW$222, DW_AT_accessibility(DW_ACCESS_public)
    2432                            .dwattr $C$DW$222, DW_AT_decl_file("C:/TI_CodeComposer/TivaWare/sensorlib/mpu9150.h")
    2433                            .dwattr $C$DW$222, DW_AT_decl_line(0x74)
    2434                            .dwattr $C$DW$222, DW_AT_decl_column(0x11)
    2435                    
    2436                    $C$DW$223       .dwtag  DW_TAG_member
    2437                            .dwattr $C$DW$223, DW_AT_type(*$C$DW$T$49)
    2438                            .dwattr $C$DW$223, DW_AT_name("sWriteState")
    2439                            .dwattr $C$DW$223, DW_AT_TI_symbol_name("sWriteState")
    2440                            .dwattr $C$DW$223, DW_AT_data_member_location[DW_OP_plus_uconst 0x0]
    2441                            .dwattr $C$DW$223, DW_AT_accessibility(DW_ACCESS_public)
    2442                            .dwattr $C$DW$223, DW_AT_decl_file("C:/TI_CodeComposer/TivaWare/sensorlib/mpu9150.h")
    2443                            .dwattr $C$DW$223, DW_AT_decl_line(0x79)
    2444                            .dwattr $C$DW$223, DW_AT_decl_column(0x15)
    2445                    
    2446                    $C$DW$224       .dwtag  DW_TAG_member
    2447                            .dwattr $C$DW$224, DW_AT_type(*$C$DW$T$50)
    2448                            .dwattr $C$DW$224, DW_AT_name("sReadModifyWriteState")
    2449                            .dwattr $C$DW$224, DW_AT_TI_symbol_name("sReadModifyWriteState")
    2450                            .dwattr $C$DW$224, DW_AT_data_member_location[DW_OP_plus_uconst 0x0]
    2451                            .dwattr $C$DW$224, DW_AT_accessibility(DW_ACCESS_public)
    2452                            .dwattr $C$DW$224, DW_AT_decl_file("C:/TI_CodeComposer/TivaWare/sensorlib/mpu9150.h")
    2453                            .dwattr $C$DW$224, DW_AT_decl_line(0x7e)
    2454                            .dwattr $C$DW$224, DW_AT_decl_column(0x1f)
    2455                    
    2456                            .dwattr $C$DW$T$53, DW_AT_decl_file("C:/TI_CodeComposer/TivaWare/sensorlib/mpu9150.h")
    2457                            .dwattr $C$DW$T$53, DW_AT_decl_line(0x70)
    2458                            .dwattr $C$DW$T$53, DW_AT_decl_column(0x05)
    2459                            .dwendtag $C$DW$T$53
    2460                    
    2461                    
    2462                    $C$DW$T$55      .dwtag  DW_TAG_structure_type
    2463                            .dwattr $C$DW$T$55, DW_AT_name("HeapRegion")
    2464                            .dwattr $C$DW$T$55, DW_AT_byte_size(0x08)
    2465                    $C$DW$225       .dwtag  DW_TAG_member
    2466                            .dwattr $C$DW$225, DW_AT_type(*$C$DW$T$23)
    2467                            .dwattr $C$DW$225, DW_AT_name("pucStartAddress")
    2468                            .dwattr $C$DW$225, DW_AT_TI_symbol_name("pucStartAddress")
    2469                            .dwattr $C$DW$225, DW_AT_data_member_location[DW_OP_plus_uconst 0x0]
    2470                            .dwattr $C$DW$225, DW_AT_accessibility(DW_ACCESS_public)
    2471                            .dwattr $C$DW$225, DW_AT_decl_file("C:\TI_ARM_Tiva_Projects\Source\include\portable.h")
    2472                            .dwattr $C$DW$225, DW_AT_decl_line(0x96)
    2473                            .dwattr $C$DW$225, DW_AT_decl_column(0x0b)
    2474                    
    2475                    $C$DW$226       .dwtag  DW_TAG_member
    2476                            .dwattr $C$DW$226, DW_AT_type(*$C$DW$T$54)
    2477                            .dwattr $C$DW$226, DW_AT_name("xSizeInBytes")
    2478                            .dwattr $C$DW$226, DW_AT_TI_symbol_name("xSizeInBytes")
    2479                            .dwattr $C$DW$226, DW_AT_data_member_location[DW_OP_plus_uconst 0x4]
TI ARM Assembler PC v15.12.1 Thu Oct 27 14:03:10 2016

Tools Copyright (c) 1996-2015 Texas Instruments Incorporated
Main_Base.asm                                                        PAGE   47

    2480                            .dwattr $C$DW$226, DW_AT_accessibility(DW_ACCESS_public)
    2481                            .dwattr $C$DW$226, DW_AT_decl_file("C:\TI_ARM_Tiva_Projects\Source\include\portable.h")
    2482                            .dwattr $C$DW$226, DW_AT_decl_line(0x97)
    2483                            .dwattr $C$DW$226, DW_AT_decl_column(0x09)
    2484                    
    2485                            .dwattr $C$DW$T$55, DW_AT_decl_file("C:\TI_ARM_Tiva_Projects\Source\include\portable.h")
    2486                            .dwattr $C$DW$T$55, DW_AT_decl_line(0x94)
    2487                            .dwattr $C$DW$T$55, DW_AT_decl_column(0x10)
    2488                            .dwendtag $C$DW$T$55
    2489                    
    2490                    $C$DW$T$96      .dwtag  DW_TAG_typedef
    2491                            .dwattr $C$DW$T$96, DW_AT_name("HeapRegion_t")
    2492                            .dwattr $C$DW$T$96, DW_AT_type(*$C$DW$T$55)
    2493                            .dwattr $C$DW$T$96, DW_AT_language(DW_LANG_C)
    2494                            .dwattr $C$DW$T$96, DW_AT_decl_file("C:\TI_ARM_Tiva_Projects\Source\include\portable.h")
    2495                            .dwattr $C$DW$T$96, DW_AT_decl_line(0x98)
    2496                            .dwattr $C$DW$T$96, DW_AT_decl_column(0x03)
    2497                    
    2498                    $C$DW$T$2       .dwtag  DW_TAG_unspecified_type
    2499                            .dwattr $C$DW$T$2, DW_AT_name("void")
    2500                    
    2501                    $C$DW$T$3       .dwtag  DW_TAG_pointer_type
    2502                            .dwattr $C$DW$T$3, DW_AT_type(*$C$DW$T$2)
    2503                            .dwattr $C$DW$T$3, DW_AT_address_class(0x20)
    2504                    
    2505                    $C$DW$T$79      .dwtag  DW_TAG_typedef
    2506                            .dwattr $C$DW$T$79, DW_AT_name("TaskHandle_t")
    2507                            .dwattr $C$DW$T$79, DW_AT_type(*$C$DW$T$3)
    2508                            .dwattr $C$DW$T$79, DW_AT_language(DW_LANG_C)
    2509                            .dwattr $C$DW$T$79, DW_AT_decl_file("C:/TI_ARM_Tiva_Projects/Source/include/task.h")
    2510                            .dwattr $C$DW$T$79, DW_AT_decl_line(0x67)
    2511                            .dwattr $C$DW$T$79, DW_AT_decl_column(0x10)
    2512                    
    2513                    $C$DW$T$97      .dwtag  DW_TAG_pointer_type
    2514                            .dwattr $C$DW$T$97, DW_AT_type(*$C$DW$T$79)
    2515                            .dwattr $C$DW$T$97, DW_AT_address_class(0x20)
    2516                    
    2517                    $C$DW$T$98      .dwtag  DW_TAG_const_type
    2518                            .dwattr $C$DW$T$98, DW_AT_type(*$C$DW$T$97)
    2519                    
    2520                    $C$DW$T$99      .dwtag  DW_TAG_const_type
    2521                            .dwattr $C$DW$T$99, DW_AT_type(*$C$DW$T$3)
    2522                    
    2523                    
    2524                    $C$DW$T$26      .dwtag  DW_TAG_subroutine_type
    2525                            .dwattr $C$DW$T$26, DW_AT_language(DW_LANG_C)
    2526                    $C$DW$227       .dwtag  DW_TAG_formal_parameter
    2527                            .dwattr $C$DW$227, DW_AT_type(*$C$DW$T$3)
    2528                    
    2529                    $C$DW$228       .dwtag  DW_TAG_formal_parameter
    2530                            .dwattr $C$DW$228, DW_AT_type(*$C$DW$T$25)
    2531                    
    2532                            .dwendtag $C$DW$T$26
    2533                    
    2534                    $C$DW$T$27      .dwtag  DW_TAG_typedef
TI ARM Assembler PC v15.12.1 Thu Oct 27 14:03:10 2016

Tools Copyright (c) 1996-2015 Texas Instruments Incorporated
Main_Base.asm                                                        PAGE   48

    2535                            .dwattr $C$DW$T$27, DW_AT_name("tSensorCallback")
    2536                            .dwattr $C$DW$T$27, DW_AT_type(*$C$DW$T$26)
    2537                            .dwattr $C$DW$T$27, DW_AT_language(DW_LANG_C)
    2538                            .dwattr $C$DW$T$27, DW_AT_decl_file("C:/TI_CodeComposer/TivaWare/sensorlib/i2cm_drv.h")
    2539                            .dwattr $C$DW$T$27, DW_AT_decl_line(0x2c)
    2540                            .dwattr $C$DW$T$27, DW_AT_decl_column(0x0f)
    2541                    
    2542                    $C$DW$T$28      .dwtag  DW_TAG_pointer_type
    2543                            .dwattr $C$DW$T$28, DW_AT_type(*$C$DW$T$27)
    2544                            .dwattr $C$DW$T$28, DW_AT_address_class(0x20)
    2545                    
    2546                    
    2547                    $C$DW$T$67      .dwtag  DW_TAG_subroutine_type
    2548                            .dwattr $C$DW$T$67, DW_AT_language(DW_LANG_C)
    2549                    $C$DW$229       .dwtag  DW_TAG_formal_parameter
    2550                            .dwattr $C$DW$229, DW_AT_type(*$C$DW$T$3)
    2551                    
    2552                            .dwendtag $C$DW$T$67
    2553                    
    2554                    $C$DW$T$68      .dwtag  DW_TAG_pointer_type
    2555                            .dwattr $C$DW$T$68, DW_AT_type(*$C$DW$T$67)
    2556                            .dwattr $C$DW$T$68, DW_AT_address_class(0x20)
    2557                    
    2558                    $C$DW$T$69      .dwtag  DW_TAG_typedef
    2559                            .dwattr $C$DW$T$69, DW_AT_name("TaskFunction_t")
    2560                            .dwattr $C$DW$T$69, DW_AT_type(*$C$DW$T$68)
    2561                            .dwattr $C$DW$T$69, DW_AT_language(DW_LANG_C)
    2562                            .dwattr $C$DW$T$69, DW_AT_decl_file("C:\TI_ARM_Tiva_Projects\Source\include\projdefs.h")
    2563                            .dwattr $C$DW$T$69, DW_AT_decl_line(0x4d)
    2564                            .dwattr $C$DW$T$69, DW_AT_decl_column(0x10)
    2565                    
    2566                    $C$DW$T$4       .dwtag  DW_TAG_base_type
    2567                            .dwattr $C$DW$T$4, DW_AT_encoding(DW_ATE_boolean)
    2568                            .dwattr $C$DW$T$4, DW_AT_name("bool")
    2569                            .dwattr $C$DW$T$4, DW_AT_byte_size(0x01)
    2570                    
    2571                    $C$DW$T$5       .dwtag  DW_TAG_base_type
    2572                            .dwattr $C$DW$T$5, DW_AT_encoding(DW_ATE_signed_char)
    2573                            .dwattr $C$DW$T$5, DW_AT_name("signed char")
    2574                            .dwattr $C$DW$T$5, DW_AT_byte_size(0x01)
    2575                    
    2576                    $C$DW$T$104     .dwtag  DW_TAG_typedef
    2577                            .dwattr $C$DW$T$104, DW_AT_name("int8_t")
    2578                            .dwattr $C$DW$T$104, DW_AT_type(*$C$DW$T$5)
    2579                            .dwattr $C$DW$T$104, DW_AT_language(DW_LANG_C)
    2580                            .dwattr $C$DW$T$104, DW_AT_decl_file("C:/TI_CodeComposer/ccsv6/tools/compiler/ti-cgt-arm_15.12
    2581                            .dwattr $C$DW$T$104, DW_AT_decl_line(0x2a)
    2582                            .dwattr $C$DW$T$104, DW_AT_decl_column(0x1d)
    2583                    
    2584                    $C$DW$T$105     .dwtag  DW_TAG_typedef
    2585                            .dwattr $C$DW$T$105, DW_AT_name("int_least8_t")
    2586                            .dwattr $C$DW$T$105, DW_AT_type(*$C$DW$T$104)
    2587                            .dwattr $C$DW$T$105, DW_AT_language(DW_LANG_C)
    2588                            .dwattr $C$DW$T$105, DW_AT_decl_file("C:/TI_CodeComposer/ccsv6/tools/compiler/ti-cgt-arm_15.12
    2589                            .dwattr $C$DW$T$105, DW_AT_decl_line(0x37)
TI ARM Assembler PC v15.12.1 Thu Oct 27 14:03:10 2016

Tools Copyright (c) 1996-2015 Texas Instruments Incorporated
Main_Base.asm                                                        PAGE   49

    2590                            .dwattr $C$DW$T$105, DW_AT_decl_column(0x17)
    2591                    
    2592                    $C$DW$T$6       .dwtag  DW_TAG_base_type
    2593                            .dwattr $C$DW$T$6, DW_AT_encoding(DW_ATE_unsigned_char)
    2594                            .dwattr $C$DW$T$6, DW_AT_name("unsigned char")
    2595                            .dwattr $C$DW$T$6, DW_AT_byte_size(0x01)
    2596                    
    2597                    $C$DW$T$47      .dwtag  DW_TAG_pointer_type
    2598                            .dwattr $C$DW$T$47, DW_AT_type(*$C$DW$T$6)
    2599                            .dwattr $C$DW$T$47, DW_AT_address_class(0x20)
    2600                    
    2601                    $C$DW$T$19      .dwtag  DW_TAG_typedef
    2602                            .dwattr $C$DW$T$19, DW_AT_name("uint8_t")
    2603                            .dwattr $C$DW$T$19, DW_AT_type(*$C$DW$T$6)
    2604                            .dwattr $C$DW$T$19, DW_AT_language(DW_LANG_C)
    2605                            .dwattr $C$DW$T$19, DW_AT_decl_file("C:/TI_CodeComposer/ccsv6/tools/compiler/ti-cgt-arm_15.12.
    2606                            .dwattr $C$DW$T$19, DW_AT_decl_line(0x2b)
    2607                            .dwattr $C$DW$T$19, DW_AT_decl_column(0x1c)
    2608                    
    2609                    $C$DW$T$23      .dwtag  DW_TAG_pointer_type
    2610                            .dwattr $C$DW$T$23, DW_AT_type(*$C$DW$T$19)
    2611                            .dwattr $C$DW$T$23, DW_AT_address_class(0x20)
    2612                    
    2613                    
    2614                    $C$DW$T$35      .dwtag  DW_TAG_array_type
    2615                            .dwattr $C$DW$T$35, DW_AT_type(*$C$DW$T$19)
    2616                            .dwattr $C$DW$T$35, DW_AT_language(DW_LANG_C)
    2617                            .dwattr $C$DW$T$35, DW_AT_byte_size(0x04)
    2618                    $C$DW$230       .dwtag  DW_TAG_subrange_type
    2619                            .dwattr $C$DW$230, DW_AT_upper_bound(0x03)
    2620                    
    2621                            .dwendtag $C$DW$T$35
    2622                    
    2623                    
    2624                    $C$DW$T$38      .dwtag  DW_TAG_array_type
    2625                            .dwattr $C$DW$T$38, DW_AT_type(*$C$DW$T$19)
    2626                            .dwattr $C$DW$T$38, DW_AT_language(DW_LANG_C)
    2627                            .dwattr $C$DW$T$38, DW_AT_byte_size(0x02)
    2628                    $C$DW$231       .dwtag  DW_TAG_subrange_type
    2629                            .dwattr $C$DW$231, DW_AT_upper_bound(0x01)
    2630                    
    2631                            .dwendtag $C$DW$T$38
    2632                    
    2633                    
    2634                    $C$DW$T$42      .dwtag  DW_TAG_array_type
    2635                            .dwattr $C$DW$T$42, DW_AT_type(*$C$DW$T$19)
    2636                            .dwattr $C$DW$T$42, DW_AT_language(DW_LANG_C)
    2637                            .dwattr $C$DW$T$42, DW_AT_byte_size(0x08)
    2638                    $C$DW$232       .dwtag  DW_TAG_subrange_type
    2639                            .dwattr $C$DW$232, DW_AT_upper_bound(0x07)
    2640                    
    2641                            .dwendtag $C$DW$T$42
    2642                    
    2643                    
    2644                    $C$DW$T$45      .dwtag  DW_TAG_array_type
TI ARM Assembler PC v15.12.1 Thu Oct 27 14:03:10 2016

Tools Copyright (c) 1996-2015 Texas Instruments Incorporated
Main_Base.asm                                                        PAGE   50

    2645                            .dwattr $C$DW$T$45, DW_AT_type(*$C$DW$T$19)
    2646                            .dwattr $C$DW$T$45, DW_AT_language(DW_LANG_C)
    2647                            .dwattr $C$DW$T$45, DW_AT_byte_size(0x18)
    2648                    $C$DW$233       .dwtag  DW_TAG_subrange_type
    2649                            .dwattr $C$DW$233, DW_AT_upper_bound(0x17)
    2650                    
    2651                            .dwendtag $C$DW$T$45
    2652                    
    2653                    
    2654                    $C$DW$T$52      .dwtag  DW_TAG_array_type
    2655                            .dwattr $C$DW$T$52, DW_AT_type(*$C$DW$T$19)
    2656                            .dwattr $C$DW$T$52, DW_AT_language(DW_LANG_C)
    2657                            .dwattr $C$DW$T$52, DW_AT_byte_size(0x06)
    2658                    $C$DW$234       .dwtag  DW_TAG_subrange_type
    2659                            .dwattr $C$DW$234, DW_AT_upper_bound(0x05)
    2660                    
    2661                            .dwendtag $C$DW$T$52
    2662                    
    2663                    $C$DW$T$106     .dwtag  DW_TAG_typedef
    2664                            .dwattr $C$DW$T$106, DW_AT_name("portCHAR")
    2665                            .dwattr $C$DW$T$106, DW_AT_type(*$C$DW$T$19)
    2666                            .dwattr $C$DW$T$106, DW_AT_language(DW_LANG_C)
    2667                            .dwattr $C$DW$T$106, DW_AT_decl_file("C:/TI_ARM_Tiva_Projects/Source/portable/CCS/ARM_CM4F/por
    2668                            .dwattr $C$DW$T$106, DW_AT_decl_line(0x60)
    2669                            .dwattr $C$DW$T$106, DW_AT_decl_column(0x12)
    2670                    
    2671                    $C$DW$T$20      .dwtag  DW_TAG_const_type
    2672                            .dwattr $C$DW$T$20, DW_AT_type(*$C$DW$T$19)
    2673                    
    2674                    $C$DW$T$21      .dwtag  DW_TAG_pointer_type
    2675                            .dwattr $C$DW$T$21, DW_AT_type(*$C$DW$T$20)
    2676                            .dwattr $C$DW$T$21, DW_AT_address_class(0x20)
    2677                    
    2678                    $C$DW$T$107     .dwtag  DW_TAG_typedef
    2679                            .dwattr $C$DW$T$107, DW_AT_name("uint_least8_t")
    2680                            .dwattr $C$DW$T$107, DW_AT_type(*$C$DW$T$19)
    2681                            .dwattr $C$DW$T$107, DW_AT_language(DW_LANG_C)
    2682                            .dwattr $C$DW$T$107, DW_AT_decl_file("C:/TI_CodeComposer/ccsv6/tools/compiler/ti-cgt-arm_15.12
    2683                            .dwattr $C$DW$T$107, DW_AT_decl_line(0x38)
    2684                            .dwattr $C$DW$T$107, DW_AT_decl_column(0x16)
    2685                    
    2686                    $C$DW$T$7       .dwtag  DW_TAG_base_type
    2687                            .dwattr $C$DW$T$7, DW_AT_encoding(DW_ATE_signed_char)
    2688                            .dwattr $C$DW$T$7, DW_AT_name("wchar_t")
    2689                            .dwattr $C$DW$T$7, DW_AT_byte_size(0x02)
    2690                    
    2691                    $C$DW$T$8       .dwtag  DW_TAG_base_type
    2692                            .dwattr $C$DW$T$8, DW_AT_encoding(DW_ATE_signed)
    2693                            .dwattr $C$DW$T$8, DW_AT_name("short")
    2694                            .dwattr $C$DW$T$8, DW_AT_byte_size(0x02)
    2695                    
    2696                    $C$DW$T$108     .dwtag  DW_TAG_typedef
    2697                            .dwattr $C$DW$T$108, DW_AT_name("int16_t")
    2698                            .dwattr $C$DW$T$108, DW_AT_type(*$C$DW$T$8)
    2699                            .dwattr $C$DW$T$108, DW_AT_language(DW_LANG_C)
TI ARM Assembler PC v15.12.1 Thu Oct 27 14:03:10 2016

Tools Copyright (c) 1996-2015 Texas Instruments Incorporated
Main_Base.asm                                                        PAGE   51

    2700                            .dwattr $C$DW$T$108, DW_AT_decl_file("C:/TI_CodeComposer/ccsv6/tools/compiler/ti-cgt-arm_15.12
    2701                            .dwattr $C$DW$T$108, DW_AT_decl_line(0x2c)
    2702                            .dwattr $C$DW$T$108, DW_AT_decl_column(0x1d)
    2703                    
    2704                    $C$DW$T$109     .dwtag  DW_TAG_typedef
    2705                            .dwattr $C$DW$T$109, DW_AT_name("int_least16_t")
    2706                            .dwattr $C$DW$T$109, DW_AT_type(*$C$DW$T$108)
    2707                            .dwattr $C$DW$T$109, DW_AT_language(DW_LANG_C)
    2708                            .dwattr $C$DW$T$109, DW_AT_decl_file("C:/TI_CodeComposer/ccsv6/tools/compiler/ti-cgt-arm_15.12
    2709                            .dwattr $C$DW$T$109, DW_AT_decl_line(0x3a)
    2710                            .dwattr $C$DW$T$109, DW_AT_decl_column(0x17)
    2711                    
    2712                    $C$DW$T$110     .dwtag  DW_TAG_typedef
    2713                            .dwattr $C$DW$T$110, DW_AT_name("portSHORT")
    2714                            .dwattr $C$DW$T$110, DW_AT_type(*$C$DW$T$108)
    2715                            .dwattr $C$DW$T$110, DW_AT_language(DW_LANG_C)
    2716                            .dwattr $C$DW$T$110, DW_AT_decl_file("C:/TI_ARM_Tiva_Projects/Source/portable/CCS/ARM_CM4F/por
    2717                            .dwattr $C$DW$T$110, DW_AT_decl_line(0x64)
    2718                            .dwattr $C$DW$T$110, DW_AT_decl_column(0x12)
    2719                    
    2720                    $C$DW$T$9       .dwtag  DW_TAG_base_type
    2721                            .dwattr $C$DW$T$9, DW_AT_encoding(DW_ATE_unsigned)
    2722                            .dwattr $C$DW$T$9, DW_AT_name("unsigned short")
    2723                            .dwattr $C$DW$T$9, DW_AT_byte_size(0x02)
    2724                    
    2725                    $C$DW$T$22      .dwtag  DW_TAG_typedef
    2726                            .dwattr $C$DW$T$22, DW_AT_name("uint16_t")
    2727                            .dwattr $C$DW$T$22, DW_AT_type(*$C$DW$T$9)
    2728                            .dwattr $C$DW$T$22, DW_AT_language(DW_LANG_C)
    2729                            .dwattr $C$DW$T$22, DW_AT_decl_file("C:/TI_CodeComposer/ccsv6/tools/compiler/ti-cgt-arm_15.12.
    2730                            .dwattr $C$DW$T$22, DW_AT_decl_line(0x2d)
    2731                            .dwattr $C$DW$T$22, DW_AT_decl_column(0x1c)
    2732                    
    2733                    $C$DW$T$111     .dwtag  DW_TAG_const_type
    2734                            .dwattr $C$DW$T$111, DW_AT_type(*$C$DW$T$22)
    2735                    
    2736                    $C$DW$T$112     .dwtag  DW_TAG_typedef
    2737                            .dwattr $C$DW$T$112, DW_AT_name("uint_least16_t")
    2738                            .dwattr $C$DW$T$112, DW_AT_type(*$C$DW$T$22)
    2739                            .dwattr $C$DW$T$112, DW_AT_language(DW_LANG_C)
    2740                            .dwattr $C$DW$T$112, DW_AT_decl_file("C:/TI_CodeComposer/ccsv6/tools/compiler/ti-cgt-arm_15.12
    2741                            .dwattr $C$DW$T$112, DW_AT_decl_line(0x3b)
    2742                            .dwattr $C$DW$T$112, DW_AT_decl_column(0x16)
    2743                    
    2744                    $C$DW$T$113     .dwtag  DW_TAG_typedef
    2745                            .dwattr $C$DW$T$113, DW_AT_name("wchar_t")
    2746                            .dwattr $C$DW$T$113, DW_AT_type(*$C$DW$T$9)
    2747                            .dwattr $C$DW$T$113, DW_AT_language(DW_LANG_C)
    2748                            .dwattr $C$DW$T$113, DW_AT_decl_file("C:/TI_CodeComposer/ccsv6/tools/compiler/ti-cgt-arm_15.12
    2749                            .dwattr $C$DW$T$113, DW_AT_decl_line(0x41)
    2750                            .dwattr $C$DW$T$113, DW_AT_decl_column(0x1a)
    2751                    
    2752                    $C$DW$T$10      .dwtag  DW_TAG_base_type
    2753                            .dwattr $C$DW$T$10, DW_AT_encoding(DW_ATE_signed)
    2754                            .dwattr $C$DW$T$10, DW_AT_name("int")
TI ARM Assembler PC v15.12.1 Thu Oct 27 14:03:10 2016

Tools Copyright (c) 1996-2015 Texas Instruments Incorporated
Main_Base.asm                                                        PAGE   52

    2755                            .dwattr $C$DW$T$10, DW_AT_byte_size(0x04)
    2756                    
    2757                    $C$DW$T$83      .dwtag  DW_TAG_typedef
    2758                            .dwattr $C$DW$T$83, DW_AT_name("int32_t")
    2759                            .dwattr $C$DW$T$83, DW_AT_type(*$C$DW$T$10)
    2760                            .dwattr $C$DW$T$83, DW_AT_language(DW_LANG_C)
    2761                            .dwattr $C$DW$T$83, DW_AT_decl_file("C:/TI_CodeComposer/ccsv6/tools/compiler/ti-cgt-arm_15.12.
    2762                            .dwattr $C$DW$T$83, DW_AT_decl_line(0x2e)
    2763                            .dwattr $C$DW$T$83, DW_AT_decl_column(0x1d)
    2764                    
    2765                    $C$DW$T$84      .dwtag  DW_TAG_typedef
    2766                            .dwattr $C$DW$T$84, DW_AT_name("BaseType_t")
    2767                            .dwattr $C$DW$T$84, DW_AT_type(*$C$DW$T$83)
    2768                            .dwattr $C$DW$T$84, DW_AT_language(DW_LANG_C)
    2769                            .dwattr $C$DW$T$84, DW_AT_decl_file("C:/TI_ARM_Tiva_Projects/Source/portable/CCS/ARM_CM4F/port
    2770                            .dwattr $C$DW$T$84, DW_AT_decl_line(0x69)
    2771                            .dwattr $C$DW$T$84, DW_AT_decl_column(0x12)
    2772                    
    2773                    
    2774                    $C$DW$T$121     .dwtag  DW_TAG_subroutine_type
    2775                            .dwattr $C$DW$T$121, DW_AT_type(*$C$DW$T$84)
    2776                            .dwattr $C$DW$T$121, DW_AT_language(DW_LANG_C)
    2777                    $C$DW$235       .dwtag  DW_TAG_formal_parameter
    2778                            .dwattr $C$DW$235, DW_AT_type(*$C$DW$T$3)
    2779                    
    2780                            .dwendtag $C$DW$T$121
    2781                    
    2782                    $C$DW$T$122     .dwtag  DW_TAG_pointer_type
    2783                            .dwattr $C$DW$T$122, DW_AT_type(*$C$DW$T$121)
    2784                            .dwattr $C$DW$T$122, DW_AT_address_class(0x20)
    2785                    
    2786                    $C$DW$T$123     .dwtag  DW_TAG_typedef
    2787                            .dwattr $C$DW$T$123, DW_AT_name("TaskHookFunction_t")
    2788                            .dwattr $C$DW$T$123, DW_AT_type(*$C$DW$T$122)
    2789                            .dwattr $C$DW$T$123, DW_AT_language(DW_LANG_C)
    2790                            .dwattr $C$DW$T$123, DW_AT_decl_file("C:/TI_ARM_Tiva_Projects/Source/include/task.h")
    2791                            .dwattr $C$DW$T$123, DW_AT_decl_line(0x6d)
    2792                            .dwattr $C$DW$T$123, DW_AT_decl_column(0x16)
    2793                    
    2794                    $C$DW$T$124     .dwtag  DW_TAG_typedef
    2795                            .dwattr $C$DW$T$124, DW_AT_name("int_fast16_t")
    2796                            .dwattr $C$DW$T$124, DW_AT_type(*$C$DW$T$83)
    2797                            .dwattr $C$DW$T$124, DW_AT_language(DW_LANG_C)
    2798                            .dwattr $C$DW$T$124, DW_AT_decl_file("C:/TI_CodeComposer/ccsv6/tools/compiler/ti-cgt-arm_15.12
    2799                            .dwattr $C$DW$T$124, DW_AT_decl_line(0x47)
    2800                            .dwattr $C$DW$T$124, DW_AT_decl_column(0x17)
    2801                    
    2802                    $C$DW$T$125     .dwtag  DW_TAG_typedef
    2803                            .dwattr $C$DW$T$125, DW_AT_name("int_fast32_t")
    2804                            .dwattr $C$DW$T$125, DW_AT_type(*$C$DW$T$83)
    2805                            .dwattr $C$DW$T$125, DW_AT_language(DW_LANG_C)
    2806                            .dwattr $C$DW$T$125, DW_AT_decl_file("C:/TI_CodeComposer/ccsv6/tools/compiler/ti-cgt-arm_15.12
    2807                            .dwattr $C$DW$T$125, DW_AT_decl_line(0x4a)
    2808                            .dwattr $C$DW$T$125, DW_AT_decl_column(0x17)
    2809                    
TI ARM Assembler PC v15.12.1 Thu Oct 27 14:03:10 2016

Tools Copyright (c) 1996-2015 Texas Instruments Incorporated
Main_Base.asm                                                        PAGE   53

    2810                    $C$DW$T$126     .dwtag  DW_TAG_typedef
    2811                            .dwattr $C$DW$T$126, DW_AT_name("int_fast8_t")
    2812                            .dwattr $C$DW$T$126, DW_AT_type(*$C$DW$T$83)
    2813                            .dwattr $C$DW$T$126, DW_AT_language(DW_LANG_C)
    2814                            .dwattr $C$DW$T$126, DW_AT_decl_file("C:/TI_CodeComposer/ccsv6/tools/compiler/ti-cgt-arm_15.12
    2815                            .dwattr $C$DW$T$126, DW_AT_decl_line(0x45)
    2816                            .dwattr $C$DW$T$126, DW_AT_decl_column(0x17)
    2817                    
    2818                    $C$DW$T$127     .dwtag  DW_TAG_typedef
    2819                            .dwattr $C$DW$T$127, DW_AT_name("int_least32_t")
    2820                            .dwattr $C$DW$T$127, DW_AT_type(*$C$DW$T$83)
    2821                            .dwattr $C$DW$T$127, DW_AT_language(DW_LANG_C)
    2822                            .dwattr $C$DW$T$127, DW_AT_decl_file("C:/TI_CodeComposer/ccsv6/tools/compiler/ti-cgt-arm_15.12
    2823                            .dwattr $C$DW$T$127, DW_AT_decl_line(0x3c)
    2824                            .dwattr $C$DW$T$127, DW_AT_decl_column(0x17)
    2825                    
    2826                    $C$DW$T$128     .dwtag  DW_TAG_typedef
    2827                            .dwattr $C$DW$T$128, DW_AT_name("portBASE_TYPE")
    2828                            .dwattr $C$DW$T$128, DW_AT_type(*$C$DW$T$83)
    2829                            .dwattr $C$DW$T$128, DW_AT_language(DW_LANG_C)
    2830                            .dwattr $C$DW$T$128, DW_AT_decl_file("C:/TI_ARM_Tiva_Projects/Source/portable/CCS/ARM_CM4F/por
    2831                            .dwattr $C$DW$T$128, DW_AT_decl_line(0x66)
    2832                            .dwattr $C$DW$T$128, DW_AT_decl_column(0x12)
    2833                    
    2834                    $C$DW$T$129     .dwtag  DW_TAG_typedef
    2835                            .dwattr $C$DW$T$129, DW_AT_name("portLONG")
    2836                            .dwattr $C$DW$T$129, DW_AT_type(*$C$DW$T$83)
    2837                            .dwattr $C$DW$T$129, DW_AT_language(DW_LANG_C)
    2838                            .dwattr $C$DW$T$129, DW_AT_decl_file("C:/TI_ARM_Tiva_Projects/Source/portable/CCS/ARM_CM4F/por
    2839                            .dwattr $C$DW$T$129, DW_AT_decl_line(0x63)
    2840                            .dwattr $C$DW$T$129, DW_AT_decl_column(0x12)
    2841                    
    2842                    $C$DW$T$130     .dwtag  DW_TAG_typedef
    2843                            .dwattr $C$DW$T$130, DW_AT_name("intptr_t")
    2844                            .dwattr $C$DW$T$130, DW_AT_type(*$C$DW$T$10)
    2845                            .dwattr $C$DW$T$130, DW_AT_language(DW_LANG_C)
    2846                            .dwattr $C$DW$T$130, DW_AT_decl_file("C:/TI_CodeComposer/ccsv6/tools/compiler/ti-cgt-arm_15.12
    2847                            .dwattr $C$DW$T$130, DW_AT_decl_line(0x52)
    2848                            .dwattr $C$DW$T$130, DW_AT_decl_column(0x1a)
    2849                    
    2850                    $C$DW$T$131     .dwtag  DW_TAG_typedef
    2851                            .dwattr $C$DW$T$131, DW_AT_name("ptrdiff_t")
    2852                            .dwattr $C$DW$T$131, DW_AT_type(*$C$DW$T$10)
    2853                            .dwattr $C$DW$T$131, DW_AT_language(DW_LANG_C)
    2854                            .dwattr $C$DW$T$131, DW_AT_decl_file("C:/TI_CodeComposer/ccsv6/tools/compiler/ti-cgt-arm_15.12
    2855                            .dwattr $C$DW$T$131, DW_AT_decl_line(0x36)
    2856                            .dwattr $C$DW$T$131, DW_AT_decl_column(0x1c)
    2857                    
    2858                    $C$DW$T$11      .dwtag  DW_TAG_base_type
    2859                            .dwattr $C$DW$T$11, DW_AT_encoding(DW_ATE_unsigned)
    2860                            .dwattr $C$DW$T$11, DW_AT_name("unsigned int")
    2861                            .dwattr $C$DW$T$11, DW_AT_byte_size(0x04)
    2862                    
    2863                    $C$DW$T$54      .dwtag  DW_TAG_typedef
    2864                            .dwattr $C$DW$T$54, DW_AT_name("size_t")
TI ARM Assembler PC v15.12.1 Thu Oct 27 14:03:10 2016

Tools Copyright (c) 1996-2015 Texas Instruments Incorporated
Main_Base.asm                                                        PAGE   54

    2865                            .dwattr $C$DW$T$54, DW_AT_type(*$C$DW$T$11)
    2866                            .dwattr $C$DW$T$54, DW_AT_language(DW_LANG_C)
    2867                            .dwattr $C$DW$T$54, DW_AT_decl_file("C:/TI_CodeComposer/ccsv6/tools/compiler/ti-cgt-arm_15.12.
    2868                            .dwattr $C$DW$T$54, DW_AT_decl_line(0x3a)
    2869                            .dwattr $C$DW$T$54, DW_AT_decl_column(0x19)
    2870                    
    2871                    $C$DW$T$24      .dwtag  DW_TAG_typedef
    2872                            .dwattr $C$DW$T$24, DW_AT_name("uint32_t")
    2873                            .dwattr $C$DW$T$24, DW_AT_type(*$C$DW$T$11)
    2874                            .dwattr $C$DW$T$24, DW_AT_language(DW_LANG_C)
    2875                            .dwattr $C$DW$T$24, DW_AT_decl_file("C:/TI_CodeComposer/ccsv6/tools/compiler/ti-cgt-arm_15.12.
    2876                            .dwattr $C$DW$T$24, DW_AT_decl_line(0x2f)
    2877                            .dwattr $C$DW$T$24, DW_AT_decl_column(0x1c)
    2878                    
    2879                    $C$DW$T$74      .dwtag  DW_TAG_typedef
    2880                            .dwattr $C$DW$T$74, DW_AT_name("StackType_t")
    2881                            .dwattr $C$DW$T$74, DW_AT_type(*$C$DW$T$24)
    2882                            .dwattr $C$DW$T$74, DW_AT_language(DW_LANG_C)
    2883                            .dwattr $C$DW$T$74, DW_AT_decl_file("C:/TI_ARM_Tiva_Projects/Source/portable/CCS/ARM_CM4F/port
    2884                            .dwattr $C$DW$T$74, DW_AT_decl_line(0x68)
    2885                            .dwattr $C$DW$T$74, DW_AT_decl_column(0x12)
    2886                    
    2887                    $C$DW$T$75      .dwtag  DW_TAG_pointer_type
    2888                            .dwattr $C$DW$T$75, DW_AT_type(*$C$DW$T$74)
    2889                            .dwattr $C$DW$T$75, DW_AT_address_class(0x20)
    2890                    
    2891                    $C$DW$T$115     .dwtag  DW_TAG_const_type
    2892                            .dwattr $C$DW$T$115, DW_AT_type(*$C$DW$T$75)
    2893                    
    2894                    $C$DW$T$62      .dwtag  DW_TAG_typedef
    2895                            .dwattr $C$DW$T$62, DW_AT_name("TickType_t")
    2896                            .dwattr $C$DW$T$62, DW_AT_type(*$C$DW$T$24)
    2897                            .dwattr $C$DW$T$62, DW_AT_language(DW_LANG_C)
    2898                            .dwattr $C$DW$T$62, DW_AT_decl_file("C:/TI_ARM_Tiva_Projects/Source/portable/CCS/ARM_CM4F/port
    2899                            .dwattr $C$DW$T$62, DW_AT_decl_line(0x70)
    2900                            .dwattr $C$DW$T$62, DW_AT_decl_column(0x13)
    2901                    
    2902                    $C$DW$T$57      .dwtag  DW_TAG_typedef
    2903                            .dwattr $C$DW$T$57, DW_AT_name("UBaseType_t")
    2904                            .dwattr $C$DW$T$57, DW_AT_type(*$C$DW$T$24)
    2905                            .dwattr $C$DW$T$57, DW_AT_language(DW_LANG_C)
    2906                            .dwattr $C$DW$T$57, DW_AT_decl_file("C:/TI_ARM_Tiva_Projects/Source/portable/CCS/ARM_CM4F/port
    2907                            .dwattr $C$DW$T$57, DW_AT_decl_line(0x6a)
    2908                            .dwattr $C$DW$T$57, DW_AT_decl_column(0x12)
    2909                    
    2910                    $C$DW$T$134     .dwtag  DW_TAG_typedef
    2911                            .dwattr $C$DW$T$134, DW_AT_name("portSTACK_TYPE")
    2912                            .dwattr $C$DW$T$134, DW_AT_type(*$C$DW$T$24)
    2913                            .dwattr $C$DW$T$134, DW_AT_language(DW_LANG_C)
    2914                            .dwattr $C$DW$T$134, DW_AT_decl_file("C:/TI_ARM_Tiva_Projects/Source/portable/CCS/ARM_CM4F/por
    2915                            .dwattr $C$DW$T$134, DW_AT_decl_line(0x65)
    2916                            .dwattr $C$DW$T$134, DW_AT_decl_column(0x12)
    2917                    
    2918                    $C$DW$T$135     .dwtag  DW_TAG_typedef
    2919                            .dwattr $C$DW$T$135, DW_AT_name("uint_fast16_t")
TI ARM Assembler PC v15.12.1 Thu Oct 27 14:03:10 2016

Tools Copyright (c) 1996-2015 Texas Instruments Incorporated
Main_Base.asm                                                        PAGE   55

    2920                            .dwattr $C$DW$T$135, DW_AT_type(*$C$DW$T$24)
    2921                            .dwattr $C$DW$T$135, DW_AT_language(DW_LANG_C)
    2922                            .dwattr $C$DW$T$135, DW_AT_decl_file("C:/TI_CodeComposer/ccsv6/tools/compiler/ti-cgt-arm_15.12
    2923                            .dwattr $C$DW$T$135, DW_AT_decl_line(0x48)
    2924                            .dwattr $C$DW$T$135, DW_AT_decl_column(0x16)
    2925                    
    2926                    $C$DW$T$136     .dwtag  DW_TAG_typedef
    2927                            .dwattr $C$DW$T$136, DW_AT_name("uint_fast32_t")
    2928                            .dwattr $C$DW$T$136, DW_AT_type(*$C$DW$T$24)
    2929                            .dwattr $C$DW$T$136, DW_AT_language(DW_LANG_C)
    2930                            .dwattr $C$DW$T$136, DW_AT_decl_file("C:/TI_CodeComposer/ccsv6/tools/compiler/ti-cgt-arm_15.12
    2931                            .dwattr $C$DW$T$136, DW_AT_decl_line(0x4b)
    2932                            .dwattr $C$DW$T$136, DW_AT_decl_column(0x16)
    2933                    
    2934                    $C$DW$T$25      .dwtag  DW_TAG_typedef
    2935                            .dwattr $C$DW$T$25, DW_AT_name("uint_fast8_t")
    2936                            .dwattr $C$DW$T$25, DW_AT_type(*$C$DW$T$24)
    2937                            .dwattr $C$DW$T$25, DW_AT_language(DW_LANG_C)
    2938                            .dwattr $C$DW$T$25, DW_AT_decl_file("C:/TI_CodeComposer/ccsv6/tools/compiler/ti-cgt-arm_15.12.
    2939                            .dwattr $C$DW$T$25, DW_AT_decl_line(0x46)
    2940                            .dwattr $C$DW$T$25, DW_AT_decl_column(0x16)
    2941                    
    2942                    $C$DW$T$144     .dwtag  DW_TAG_typedef
    2943                            .dwattr $C$DW$T$144, DW_AT_name("uint_least32_t")
    2944                            .dwattr $C$DW$T$144, DW_AT_type(*$C$DW$T$24)
    2945                            .dwattr $C$DW$T$144, DW_AT_language(DW_LANG_C)
    2946                            .dwattr $C$DW$T$144, DW_AT_decl_file("C:/TI_CodeComposer/ccsv6/tools/compiler/ti-cgt-arm_15.12
    2947                            .dwattr $C$DW$T$144, DW_AT_decl_line(0x3d)
    2948                            .dwattr $C$DW$T$144, DW_AT_decl_column(0x16)
    2949                    
    2950                    $C$DW$T$145     .dwtag  DW_TAG_typedef
    2951                            .dwattr $C$DW$T$145, DW_AT_name("uintptr_t")
    2952                            .dwattr $C$DW$T$145, DW_AT_type(*$C$DW$T$11)
    2953                            .dwattr $C$DW$T$145, DW_AT_language(DW_LANG_C)
    2954                            .dwattr $C$DW$T$145, DW_AT_decl_file("C:/TI_CodeComposer/ccsv6/tools/compiler/ti-cgt-arm_15.12
    2955                            .dwattr $C$DW$T$145, DW_AT_decl_line(0x53)
    2956                            .dwattr $C$DW$T$145, DW_AT_decl_column(0x1a)
    2957                    
    2958                    $C$DW$T$12      .dwtag  DW_TAG_base_type
    2959                            .dwattr $C$DW$T$12, DW_AT_encoding(DW_ATE_signed)
    2960                            .dwattr $C$DW$T$12, DW_AT_name("long")
    2961                            .dwattr $C$DW$T$12, DW_AT_byte_size(0x04)
    2962                    
    2963                    $C$DW$T$146     .dwtag  DW_TAG_typedef
    2964                            .dwattr $C$DW$T$146, DW_AT_name("fpos_t")
    2965                            .dwattr $C$DW$T$146, DW_AT_type(*$C$DW$T$12)
    2966                            .dwattr $C$DW$T$146, DW_AT_language(DW_LANG_C)
    2967                            .dwattr $C$DW$T$146, DW_AT_decl_file("C:/TI_CodeComposer/ccsv6/tools/compiler/ti-cgt-arm_15.12
    2968                            .dwattr $C$DW$T$146, DW_AT_decl_line(0x6e)
    2969                            .dwattr $C$DW$T$146, DW_AT_decl_column(0x0e)
    2970                    
    2971                    $C$DW$T$13      .dwtag  DW_TAG_base_type
    2972                            .dwattr $C$DW$T$13, DW_AT_encoding(DW_ATE_unsigned)
    2973                            .dwattr $C$DW$T$13, DW_AT_name("unsigned long")
    2974                            .dwattr $C$DW$T$13, DW_AT_byte_size(0x04)
TI ARM Assembler PC v15.12.1 Thu Oct 27 14:03:10 2016

Tools Copyright (c) 1996-2015 Texas Instruments Incorporated
Main_Base.asm                                                        PAGE   56

    2975                    
    2976                    $C$DW$T$14      .dwtag  DW_TAG_base_type
    2977                            .dwattr $C$DW$T$14, DW_AT_encoding(DW_ATE_signed)
    2978                            .dwattr $C$DW$T$14, DW_AT_name("long long")
    2979                            .dwattr $C$DW$T$14, DW_AT_byte_size(0x08)
    2980                    
    2981                    $C$DW$T$147     .dwtag  DW_TAG_typedef
    2982                            .dwattr $C$DW$T$147, DW_AT_name("int64_t")
    2983                            .dwattr $C$DW$T$147, DW_AT_type(*$C$DW$T$14)
    2984                            .dwattr $C$DW$T$147, DW_AT_language(DW_LANG_C)
    2985                            .dwattr $C$DW$T$147, DW_AT_decl_file("C:/TI_CodeComposer/ccsv6/tools/compiler/ti-cgt-arm_15.12
    2986                            .dwattr $C$DW$T$147, DW_AT_decl_line(0x32)
    2987                            .dwattr $C$DW$T$147, DW_AT_decl_column(0x21)
    2988                    
    2989                    $C$DW$T$148     .dwtag  DW_TAG_typedef
    2990                            .dwattr $C$DW$T$148, DW_AT_name("int_fast64_t")
    2991                            .dwattr $C$DW$T$148, DW_AT_type(*$C$DW$T$147)
    2992                            .dwattr $C$DW$T$148, DW_AT_language(DW_LANG_C)
    2993                            .dwattr $C$DW$T$148, DW_AT_decl_file("C:/TI_CodeComposer/ccsv6/tools/compiler/ti-cgt-arm_15.12
    2994                            .dwattr $C$DW$T$148, DW_AT_decl_line(0x4e)
    2995                            .dwattr $C$DW$T$148, DW_AT_decl_column(0x17)
    2996                    
    2997                    $C$DW$T$149     .dwtag  DW_TAG_typedef
    2998                            .dwattr $C$DW$T$149, DW_AT_name("int_least64_t")
    2999                            .dwattr $C$DW$T$149, DW_AT_type(*$C$DW$T$147)
    3000                            .dwattr $C$DW$T$149, DW_AT_language(DW_LANG_C)
    3001                            .dwattr $C$DW$T$149, DW_AT_decl_file("C:/TI_CodeComposer/ccsv6/tools/compiler/ti-cgt-arm_15.12
    3002                            .dwattr $C$DW$T$149, DW_AT_decl_line(0x40)
    3003                            .dwattr $C$DW$T$149, DW_AT_decl_column(0x17)
    3004                    
    3005                    $C$DW$T$150     .dwtag  DW_TAG_typedef
    3006                            .dwattr $C$DW$T$150, DW_AT_name("portDOUBLE")
    3007                            .dwattr $C$DW$T$150, DW_AT_type(*$C$DW$T$147)
    3008                            .dwattr $C$DW$T$150, DW_AT_language(DW_LANG_C)
    3009                            .dwattr $C$DW$T$150, DW_AT_decl_file("C:/TI_ARM_Tiva_Projects/Source/portable/CCS/ARM_CM4F/por
    3010                            .dwattr $C$DW$T$150, DW_AT_decl_line(0x62)
    3011                            .dwattr $C$DW$T$150, DW_AT_decl_column(0x12)
    3012                    
    3013                    $C$DW$T$151     .dwtag  DW_TAG_typedef
    3014                            .dwattr $C$DW$T$151, DW_AT_name("intmax_t")
    3015                            .dwattr $C$DW$T$151, DW_AT_type(*$C$DW$T$14)
    3016                            .dwattr $C$DW$T$151, DW_AT_language(DW_LANG_C)
    3017                            .dwattr $C$DW$T$151, DW_AT_decl_file("C:/TI_CodeComposer/ccsv6/tools/compiler/ti-cgt-arm_15.12
    3018                            .dwattr $C$DW$T$151, DW_AT_decl_line(0x56)
    3019                            .dwattr $C$DW$T$151, DW_AT_decl_column(0x20)
    3020                    
    3021                    $C$DW$T$15      .dwtag  DW_TAG_base_type
    3022                            .dwattr $C$DW$T$15, DW_AT_encoding(DW_ATE_unsigned)
    3023                            .dwattr $C$DW$T$15, DW_AT_name("unsigned long long")
    3024                            .dwattr $C$DW$T$15, DW_AT_byte_size(0x08)
    3025                    
    3026                    $C$DW$T$152     .dwtag  DW_TAG_typedef
    3027                            .dwattr $C$DW$T$152, DW_AT_name("uint64_t")
    3028                            .dwattr $C$DW$T$152, DW_AT_type(*$C$DW$T$15)
    3029                            .dwattr $C$DW$T$152, DW_AT_language(DW_LANG_C)
TI ARM Assembler PC v15.12.1 Thu Oct 27 14:03:10 2016

Tools Copyright (c) 1996-2015 Texas Instruments Incorporated
Main_Base.asm                                                        PAGE   57

    3030                            .dwattr $C$DW$T$152, DW_AT_decl_file("C:/TI_CodeComposer/ccsv6/tools/compiler/ti-cgt-arm_15.12
    3031                            .dwattr $C$DW$T$152, DW_AT_decl_line(0x33)
    3032                            .dwattr $C$DW$T$152, DW_AT_decl_column(0x20)
    3033                    
    3034                    $C$DW$T$153     .dwtag  DW_TAG_typedef
    3035                            .dwattr $C$DW$T$153, DW_AT_name("uint_fast64_t")
    3036                            .dwattr $C$DW$T$153, DW_AT_type(*$C$DW$T$152)
    3037                            .dwattr $C$DW$T$153, DW_AT_language(DW_LANG_C)
    3038                            .dwattr $C$DW$T$153, DW_AT_decl_file("C:/TI_CodeComposer/ccsv6/tools/compiler/ti-cgt-arm_15.12
    3039                            .dwattr $C$DW$T$153, DW_AT_decl_line(0x4f)
    3040                            .dwattr $C$DW$T$153, DW_AT_decl_column(0x16)
    3041                    
    3042                    $C$DW$T$154     .dwtag  DW_TAG_typedef
