TI ARM Assembler PC v15.12.1 Tue Nov 01 13:44:09 2016

Tools Copyright (c) 1996-2015 Texas Instruments Incorporated
AccelTest.asm                                                        PAGE    1

       1                    ;******************************************************************************
       2                    ;* TI ARM C/C++ Codegen                                       PC v15.12.1.LTS *
       3                    ;* Date/Time created: Tue Nov 01 13:44:08 2016                                *
       4                    ;******************************************************************************
       5                            .compiler_opts --abi=eabi --arm_vmrs_si_workaround=off --code_state=16 --diag_wrap=off --disab
       6 00000000                   .thumb
       7                    
       8                    $C$DW$CU        .dwtag  DW_TAG_compile_unit
       9                            .dwattr $C$DW$CU, DW_AT_name("../Tasks/AccelTest.c")
      10                            .dwattr $C$DW$CU, DW_AT_producer("TI TI ARM C/C++ Codegen PC v15.12.1.LTS Copyright (c) 1996-2
      11                            .dwattr $C$DW$CU, DW_AT_TI_version(0x01)
      12                            .dwattr $C$DW$CU, DW_AT_comp_dir("C:\TI_ARM_Tiva_Projects\Proj2_Magnetometer\Debug")
      13                    
      14                    $C$DW$1 .dwtag  DW_TAG_subprogram
      15                            .dwattr $C$DW$1, DW_AT_name("I2CMCommand")
      16                            .dwattr $C$DW$1, DW_AT_TI_symbol_name("I2CMCommand")
      17                            .dwattr $C$DW$1, DW_AT_type(*$C$DW$T$25)
      18                            .dwattr $C$DW$1, DW_AT_declaration
      19                            .dwattr $C$DW$1, DW_AT_external
      20                            .dwattr $C$DW$1, DW_AT_decl_file("C:/TI_CodeComposer/TivaWare/sensorlib/i2cm_drv.h")
      21                            .dwattr $C$DW$1, DW_AT_decl_line(0x196)
      22                            .dwattr $C$DW$1, DW_AT_decl_column(0x15)
      23                    $C$DW$2 .dwtag  DW_TAG_formal_parameter
      24                            .dwattr $C$DW$2, DW_AT_type(*$C$DW$T$34)
      25                    
      26                    $C$DW$3 .dwtag  DW_TAG_formal_parameter
      27                            .dwattr $C$DW$3, DW_AT_type(*$C$DW$T$25)
      28                    
      29                    $C$DW$4 .dwtag  DW_TAG_formal_parameter
      30                            .dwattr $C$DW$4, DW_AT_type(*$C$DW$T$21)
      31                    
      32                    $C$DW$5 .dwtag  DW_TAG_formal_parameter
      33                            .dwattr $C$DW$5, DW_AT_type(*$C$DW$T$143)
      34                    
      35                    $C$DW$6 .dwtag  DW_TAG_formal_parameter
      36                            .dwattr $C$DW$6, DW_AT_type(*$C$DW$T$143)
      37                    
      38                    $C$DW$7 .dwtag  DW_TAG_formal_parameter
      39                            .dwattr $C$DW$7, DW_AT_type(*$C$DW$T$23)
      40                    
      41                    $C$DW$8 .dwtag  DW_TAG_formal_parameter
      42                            .dwattr $C$DW$8, DW_AT_type(*$C$DW$T$143)
      43                    
      44                    $C$DW$9 .dwtag  DW_TAG_formal_parameter
      45                            .dwattr $C$DW$9, DW_AT_type(*$C$DW$T$143)
      46                    
      47                    $C$DW$10        .dwtag  DW_TAG_formal_parameter
      48                            .dwattr $C$DW$10, DW_AT_type(*$C$DW$T$28)
      49                    
      50                    $C$DW$11        .dwtag  DW_TAG_formal_parameter
      51                            .dwattr $C$DW$11, DW_AT_type(*$C$DW$T$3)
      52                    
      53                            .dwendtag $C$DW$1
      54                    
      55                    
TI ARM Assembler PC v15.12.1 Tue Nov 01 13:44:09 2016

Tools Copyright (c) 1996-2015 Texas Instruments Incorporated
AccelTest.asm                                                        PAGE    2

      56                    $C$DW$12        .dwtag  DW_TAG_subprogram
      57                            .dwattr $C$DW$12, DW_AT_name("I2CMReadModifyWrite16LE")
      58                            .dwattr $C$DW$12, DW_AT_TI_symbol_name("I2CMReadModifyWrite16LE")
      59                            .dwattr $C$DW$12, DW_AT_type(*$C$DW$T$25)
      60                            .dwattr $C$DW$12, DW_AT_declaration
      61                            .dwattr $C$DW$12, DW_AT_external
      62                            .dwattr $C$DW$12, DW_AT_decl_file("C:/TI_CodeComposer/TivaWare/sensorlib/i2cm_drv.h")
      63                            .dwattr $C$DW$12, DW_AT_decl_line(0x1a9)
      64                            .dwattr $C$DW$12, DW_AT_decl_column(0x15)
      65                    $C$DW$13        .dwtag  DW_TAG_formal_parameter
      66                            .dwattr $C$DW$13, DW_AT_type(*$C$DW$T$95)
      67                    
      68                    $C$DW$14        .dwtag  DW_TAG_formal_parameter
      69                            .dwattr $C$DW$14, DW_AT_type(*$C$DW$T$34)
      70                    
      71                    $C$DW$15        .dwtag  DW_TAG_formal_parameter
      72                            .dwattr $C$DW$15, DW_AT_type(*$C$DW$T$25)
      73                    
      74                    $C$DW$16        .dwtag  DW_TAG_formal_parameter
      75                            .dwattr $C$DW$16, DW_AT_type(*$C$DW$T$25)
      76                    
      77                    $C$DW$17        .dwtag  DW_TAG_formal_parameter
      78                            .dwattr $C$DW$17, DW_AT_type(*$C$DW$T$143)
      79                    
      80                    $C$DW$18        .dwtag  DW_TAG_formal_parameter
      81                            .dwattr $C$DW$18, DW_AT_type(*$C$DW$T$143)
      82                    
      83                    $C$DW$19        .dwtag  DW_TAG_formal_parameter
      84                            .dwattr $C$DW$19, DW_AT_type(*$C$DW$T$28)
      85                    
      86                    $C$DW$20        .dwtag  DW_TAG_formal_parameter
      87                            .dwattr $C$DW$20, DW_AT_type(*$C$DW$T$3)
      88                    
      89                            .dwendtag $C$DW$12
      90                    
      91                    
      92                    $C$DW$21        .dwtag  DW_TAG_subprogram
      93                            .dwattr $C$DW$21, DW_AT_name("vTaskDelay")
      94                            .dwattr $C$DW$21, DW_AT_TI_symbol_name("vTaskDelay")
      95                            .dwattr $C$DW$21, DW_AT_declaration
      96                            .dwattr $C$DW$21, DW_AT_external
      97                            .dwattr $C$DW$21, DW_AT_decl_file("C:/TI_ARM_Tiva_Projects/Source/include/task.h")
      98                            .dwattr $C$DW$21, DW_AT_decl_line(0x22b)
      99                            .dwattr $C$DW$21, DW_AT_decl_column(0x06)
     100                    $C$DW$22        .dwtag  DW_TAG_formal_parameter
     101                            .dwattr $C$DW$22, DW_AT_type(*$C$DW$T$109)
     102                    
     103                            .dwendtag $C$DW$21
     104                    
     105                    
     106                    $C$DW$23        .dwtag  DW_TAG_subprogram
     107                            .dwattr $C$DW$23, DW_AT_name("xQueueGenericSend")
     108                            .dwattr $C$DW$23, DW_AT_TI_symbol_name("xQueueGenericSend")
     109                            .dwattr $C$DW$23, DW_AT_type(*$C$DW$T$88)
     110                            .dwattr $C$DW$23, DW_AT_declaration
TI ARM Assembler PC v15.12.1 Tue Nov 01 13:44:09 2016

Tools Copyright (c) 1996-2015 Texas Instruments Incorporated
AccelTest.asm                                                        PAGE    3

     111                            .dwattr $C$DW$23, DW_AT_external
     112                            .dwattr $C$DW$23, DW_AT_decl_file("C:/TI_ARM_Tiva_Projects/Source/include/queue.h")
     113                            .dwattr $C$DW$23, DW_AT_decl_line(0x250)
     114                            .dwattr $C$DW$23, DW_AT_decl_column(0x0c)
     115                    $C$DW$24        .dwtag  DW_TAG_formal_parameter
     116                            .dwattr $C$DW$24, DW_AT_type(*$C$DW$T$106)
     117                    
     118                    $C$DW$25        .dwtag  DW_TAG_formal_parameter
     119                            .dwattr $C$DW$25, DW_AT_type(*$C$DW$T$114)
     120                    
     121                    $C$DW$26        .dwtag  DW_TAG_formal_parameter
     122                            .dwattr $C$DW$26, DW_AT_type(*$C$DW$T$66)
     123                    
     124                    $C$DW$27        .dwtag  DW_TAG_formal_parameter
     125                            .dwattr $C$DW$27, DW_AT_type(*$C$DW$T$127)
     126                    
     127                            .dwendtag $C$DW$23
     128                    
     129                    
     130                    $C$DW$28        .dwtag  DW_TAG_subprogram
     131                            .dwattr $C$DW$28, DW_AT_name("getAcceleration")
     132                            .dwattr $C$DW$28, DW_AT_TI_symbol_name("getAcceleration")
     133                            .dwattr $C$DW$28, DW_AT_declaration
     134                            .dwattr $C$DW$28, DW_AT_external
     135                            .dwattr $C$DW$28, DW_AT_decl_file("..\Tasks\MPU9150Manager.h")
     136                            .dwattr $C$DW$28, DW_AT_decl_line(0x13)
     137                            .dwattr $C$DW$28, DW_AT_decl_column(0x0d)
     138                    $C$DW$29        .dwtag  DW_TAG_formal_parameter
     139                            .dwattr $C$DW$29, DW_AT_type(*$C$DW$T$115)
     140                    
     141                    $C$DW$30        .dwtag  DW_TAG_formal_parameter
     142                            .dwattr $C$DW$30, DW_AT_type(*$C$DW$T$115)
     143                    
     144                    $C$DW$31        .dwtag  DW_TAG_formal_parameter
     145                            .dwattr $C$DW$31, DW_AT_type(*$C$DW$T$115)
     146                    
     147                            .dwendtag $C$DW$28
     148                    
     149                    $C$DW$32        .dwtag  DW_TAG_variable
     150                            .dwattr $C$DW$32, DW_AT_name("xPortSysTickCount")
     151                            .dwattr $C$DW$32, DW_AT_TI_symbol_name("xPortSysTickCount")
     152                            .dwattr $C$DW$32, DW_AT_type(*$C$DW$T$142)
     153                            .dwattr $C$DW$32, DW_AT_declaration
     154                            .dwattr $C$DW$32, DW_AT_external
     155                            .dwattr $C$DW$32, DW_AT_decl_file("C:/TI_ARM_Tiva_Projects/Proj2_Magnetometer/Tasks/Task_Repor
     156                            .dwattr $C$DW$32, DW_AT_decl_line(0x12)
     157                            .dwattr $C$DW$32, DW_AT_decl_column(0x1a)
     158                    
     159                    $C$DW$33        .dwtag  DW_TAG_variable
     160                            .dwattr $C$DW$33, DW_AT_name("ReportData_Queue")
     161                            .dwattr $C$DW$33, DW_AT_TI_symbol_name("ReportData_Queue")
     162                            .dwattr $C$DW$33, DW_AT_type(*$C$DW$T$106)
     163                            .dwattr $C$DW$33, DW_AT_declaration
     164                            .dwattr $C$DW$33, DW_AT_external
     165                            .dwattr $C$DW$33, DW_AT_decl_file("C:/TI_ARM_Tiva_Projects/Proj2_Magnetometer/Tasks/Task_Repor
TI ARM Assembler PC v15.12.1 Tue Nov 01 13:44:09 2016

Tools Copyright (c) 1996-2015 Texas Instruments Incorporated
AccelTest.asm                                                        PAGE    4

     166                            .dwattr $C$DW$33, DW_AT_decl_line(0x1c)
     167                            .dwattr $C$DW$33, DW_AT_decl_column(0x16)
     168                    
     169                            .global MPU9150Inst
     170                            .common MPU9150Inst,108,4
     171                    $C$DW$34        .dwtag  DW_TAG_variable
     172                            .dwattr $C$DW$34, DW_AT_name("MPU9150Inst")
     173                            .dwattr $C$DW$34, DW_AT_TI_symbol_name("MPU9150Inst")
     174                            .dwattr $C$DW$34, DW_AT_location[DW_OP_addr MPU9150Inst]
     175                            .dwattr $C$DW$34, DW_AT_type(*$C$DW$T$96)
     176                            .dwattr $C$DW$34, DW_AT_external
     177                            .dwattr $C$DW$34, DW_AT_decl_file("..\Tasks\MPU9150Manager.h")
     178                            .dwattr $C$DW$34, DW_AT_decl_line(0x0d)
     179                            .dwattr $C$DW$34, DW_AT_decl_column(0x0a)
     180                    
     181                    ;       C:\TI_CodeComposer\ccsv6\tools\compiler\ti-cgt-arm_15.12.1.LTS\bin\armacpia.exe -@C:\\Users\\R
     182 00000000                   .sect   ".text:I2CMWrite"
     183                            .clink
     184                            .thumbfunc I2CMWrite
     185 00000000                   .thumb
     186                            .global I2CMWrite
     187                    
     188                    $C$DW$35        .dwtag  DW_TAG_subprogram
     189                            .dwattr $C$DW$35, DW_AT_name("I2CMWrite")
     190                            .dwattr $C$DW$35, DW_AT_low_pc(I2CMWrite)
     191                            .dwattr $C$DW$35, DW_AT_high_pc(0x00)
     192                            .dwattr $C$DW$35, DW_AT_TI_symbol_name("I2CMWrite")
     193                            .dwattr $C$DW$35, DW_AT_external
     194                            .dwattr $C$DW$35, DW_AT_type(*$C$DW$T$25)
     195                            .dwattr $C$DW$35, DW_AT_TI_begin_file("C:/TI_CodeComposer/TivaWare/sensorlib/i2cm_drv.h")
     196                            .dwattr $C$DW$35, DW_AT_TI_begin_line(0x1cb)
     197                            .dwattr $C$DW$35, DW_AT_TI_begin_column(0x01)
     198                            .dwattr $C$DW$35, DW_AT_decl_file("C:/TI_CodeComposer/TivaWare/sensorlib/i2cm_drv.h")
     199                            .dwattr $C$DW$35, DW_AT_decl_line(0x1cb)
     200                            .dwattr $C$DW$35, DW_AT_decl_column(0x01)
     201                            .dwattr $C$DW$35, DW_AT_TI_max_frame_size(0x30)
     202                            .dwpsn  file "C:/TI_CodeComposer/TivaWare/sensorlib/i2cm_drv.h",line 462,column 1,is_stmt,addr
     203                    
     204                            .dwfde $C$DW$CIE, I2CMWrite
     205                    $C$DW$36        .dwtag  DW_TAG_formal_parameter
     206                            .dwattr $C$DW$36, DW_AT_name("psInst")
     207                            .dwattr $C$DW$36, DW_AT_TI_symbol_name("psInst")
     208                            .dwattr $C$DW$36, DW_AT_type(*$C$DW$T$34)
     209                            .dwattr $C$DW$36, DW_AT_location[DW_OP_reg0]
     210                    
     211                    $C$DW$37        .dwtag  DW_TAG_formal_parameter
     212                            .dwattr $C$DW$37, DW_AT_name("ui8Addr")
     213                            .dwattr $C$DW$37, DW_AT_TI_symbol_name("ui8Addr")
     214                            .dwattr $C$DW$37, DW_AT_type(*$C$DW$T$25)
     215                            .dwattr $C$DW$37, DW_AT_location[DW_OP_reg1]
     216                    
     217                    $C$DW$38        .dwtag  DW_TAG_formal_parameter
     218                            .dwattr $C$DW$38, DW_AT_name("pui8Data")
     219                            .dwattr $C$DW$38, DW_AT_TI_symbol_name("pui8Data")
     220                            .dwattr $C$DW$38, DW_AT_type(*$C$DW$T$21)
TI ARM Assembler PC v15.12.1 Tue Nov 01 13:44:09 2016

Tools Copyright (c) 1996-2015 Texas Instruments Incorporated
AccelTest.asm                                                        PAGE    5

     221                            .dwattr $C$DW$38, DW_AT_location[DW_OP_reg2]
     222                    
     223                    $C$DW$39        .dwtag  DW_TAG_formal_parameter
     224                            .dwattr $C$DW$39, DW_AT_name("ui16Count")
     225                            .dwattr $C$DW$39, DW_AT_TI_symbol_name("ui16Count")
     226                            .dwattr $C$DW$39, DW_AT_type(*$C$DW$T$143)
     227                            .dwattr $C$DW$39, DW_AT_location[DW_OP_reg3]
     228                    
     229                    $C$DW$40        .dwtag  DW_TAG_formal_parameter
     230                            .dwattr $C$DW$40, DW_AT_name("pfnCallback")
     231                            .dwattr $C$DW$40, DW_AT_TI_symbol_name("pfnCallback")
     232                            .dwattr $C$DW$40, DW_AT_type(*$C$DW$T$28)
     233                            .dwattr $C$DW$40, DW_AT_location[DW_OP_breg13 48]
     234                    
     235                    $C$DW$41        .dwtag  DW_TAG_formal_parameter
     236                            .dwattr $C$DW$41, DW_AT_name("pvCallbackData")
     237                            .dwattr $C$DW$41, DW_AT_TI_symbol_name("pvCallbackData")
     238                            .dwattr $C$DW$41, DW_AT_type(*$C$DW$T$3)
     239                            .dwattr $C$DW$41, DW_AT_location[DW_OP_breg13 52]
     240                    
     241                    
     242                    ;*****************************************************************************
     243                    ;* FUNCTION NAME: I2CMWrite                                                  *
     244                    ;*                                                                           *
     245                    ;*   Regs Modified     : A1,A2,A3,A4,V9,SP,LR,SR,D0,D0_hi,D1,D1_hi,D2,D2_hi, *
     246                    ;*                           D3,D3_hi,D4,D4_hi,D5,D5_hi,D6,D6_hi,D7,D7_hi,   *
     247                    ;*                           FPEXC,FPSCR                                     *
     248                    ;*   Regs Used         : A1,A2,A3,A4,V9,SP,LR,SR,D0,D0_hi,D1,D1_hi,D2,D2_hi, *
     249                    ;*                           D3,D3_hi,D4,D4_hi,D5,D5_hi,D6,D6_hi,D7,D7_hi,   *
     250                    ;*                           FPEXC,FPSCR                                     *
     251                    ;*   Local Frame Size  : 24 Args + 16 Auto + 4 Save = 44 byte                *
     252                    ;*****************************************************************************
     253 00000000           I2CMWrite:
     254                    ;* --------------------------------------------------------------------------*
     255                            .dwcfi  cfa_offset, 0
     256 00000000 B500              PUSH      {LR}                  ; [DPU_3_PIPE]  ; [ORIG 16-BIT INS]
     257                            .dwcfi  cfa_offset, 4
     258                            .dwcfi  save_reg_to_mem, 14, -4
     259 00000002 0D2CF1AD          SUB       SP, SP, #44           ; [DPU_3_PIPE]  ; [KEEP 32-BIT INS]
     260                            .dwcfi  cfa_offset, 48
     261                    $C$DW$42        .dwtag  DW_TAG_variable
     262                            .dwattr $C$DW$42, DW_AT_name("psInst")
     263                            .dwattr $C$DW$42, DW_AT_TI_symbol_name("psInst")
     264                            .dwattr $C$DW$42, DW_AT_type(*$C$DW$T$34)
     265                            .dwattr $C$DW$42, DW_AT_location[DW_OP_breg13 24]
     266                    
     267                    $C$DW$43        .dwtag  DW_TAG_variable
     268                            .dwattr $C$DW$43, DW_AT_name("ui8Addr")
     269                            .dwattr $C$DW$43, DW_AT_TI_symbol_name("ui8Addr")
     270                            .dwattr $C$DW$43, DW_AT_type(*$C$DW$T$25)
     271                            .dwattr $C$DW$43, DW_AT_location[DW_OP_breg13 28]
     272                    
     273                    $C$DW$44        .dwtag  DW_TAG_variable
     274                            .dwattr $C$DW$44, DW_AT_name("pui8Data")
     275                            .dwattr $C$DW$44, DW_AT_TI_symbol_name("pui8Data")
TI ARM Assembler PC v15.12.1 Tue Nov 01 13:44:09 2016

Tools Copyright (c) 1996-2015 Texas Instruments Incorporated
AccelTest.asm                                                        PAGE    6

     276                            .dwattr $C$DW$44, DW_AT_type(*$C$DW$T$21)
     277                            .dwattr $C$DW$44, DW_AT_location[DW_OP_breg13 32]
     278                    
     279                    $C$DW$45        .dwtag  DW_TAG_variable
     280                            .dwattr $C$DW$45, DW_AT_name("ui16Count")
     281                            .dwattr $C$DW$45, DW_AT_TI_symbol_name("ui16Count")
     282                            .dwattr $C$DW$45, DW_AT_type(*$C$DW$T$143)
     283                            .dwattr $C$DW$45, DW_AT_location[DW_OP_breg13 36]
     284                    
     285 00000006 9309              STR       A4, [SP, #36]         ; [DPU_3_PIPE] |462|  ; [ORIG 16-BIT INS]
     286 00000008 9208              STR       A3, [SP, #32]         ; [DPU_3_PIPE] |462|  ; [ORIG 16-BIT INS]
     287 0000000a 9107              STR       A2, [SP, #28]         ; [DPU_3_PIPE] |462|  ; [ORIG 16-BIT INS]
     288 0000000c 9006              STR       A1, [SP, #24]         ; [DPU_3_PIPE] |462|  ; [ORIG 16-BIT INS]
     289                            .dwpsn  file "C:/TI_CodeComposer/TivaWare/sensorlib/i2cm_drv.h",line 463,column 5,is_stmt,isa 
     290 0000000e 9809              LDR       A1, [SP, #36]         ; [DPU_3_PIPE] |463|  ; [ORIG 16-BIT INS]
     291 00000010 9000              STR       A1, [SP, #0]          ; [DPU_3_PIPE] |463|  ; [ORIG 16-BIT INS]
     292 00000012 2000              MOVS      A1, #0                ; [DPU_3_PIPE] |463|  ; [ORIG 16-BIT INS]
     293 00000014 9001              STR       A1, [SP, #4]          ; [DPU_3_PIPE] |463|  ; [ORIG 16-BIT INS]
     294 00000016 2000              MOVS      A1, #0                ; [DPU_3_PIPE] |463|  ; [ORIG 16-BIT INS]
     295 00000018 9002              STR       A1, [SP, #8]          ; [DPU_3_PIPE] |463|  ; [ORIG 16-BIT INS]
     296 0000001a 2000              MOVS      A1, #0                ; [DPU_3_PIPE] |463|  ; [ORIG 16-BIT INS]
     297 0000001c 9003              STR       A1, [SP, #12]         ; [DPU_3_PIPE] |463|  ; [ORIG 16-BIT INS]
     298 0000001e 980C              LDR       A1, [SP, #48]         ; [DPU_3_PIPE] |463|  ; [ORIG 16-BIT INS]
     299 00000020 9004              STR       A1, [SP, #16]         ; [DPU_3_PIPE] |463|  ; [ORIG 16-BIT INS]
     300 00000022 980D              LDR       A1, [SP, #52]         ; [DPU_3_PIPE] |463|  ; [ORIG 16-BIT INS]
     301 00000024 9005              STR       A1, [SP, #20]         ; [DPU_3_PIPE] |463|  ; [ORIG 16-BIT INS]
     302 00000026 9B09              LDR       A4, [SP, #36]         ; [DPU_3_PIPE] |463|  ; [ORIG 16-BIT INS]
     303 00000028 9A08              LDR       A3, [SP, #32]         ; [DPU_3_PIPE] |463|  ; [ORIG 16-BIT INS]
     304 0000002a 9907              LDR       A2, [SP, #28]         ; [DPU_3_PIPE] |463|  ; [ORIG 16-BIT INS]
     305 0000002c 9806              LDR       A1, [SP, #24]         ; [DPU_3_PIPE] |463|  ; [ORIG 16-BIT INS]
     306                    $C$DW$46        .dwtag  DW_TAG_TI_branch
     307                            .dwattr $C$DW$46, DW_AT_low_pc(0x00)
     308                            .dwattr $C$DW$46, DW_AT_name("I2CMCommand")
     309                            .dwattr $C$DW$46, DW_AT_TI_call
     310                    
     311 0000002e FFFEF7FF!         BL        I2CMCommand           ; [DPU_3_PIPE] |463|  ; [KEEP 32-BIT INS]
     312                            ; CALL OCCURS {I2CMCommand }     ; [] |463| 
     313                            .dwpsn  file "C:/TI_CodeComposer/TivaWare/sensorlib/i2cm_drv.h",line 465,column 1,is_stmt,isa 
     314 00000032 B00B              ADD       SP, SP, #44           ; [DPU_3_PIPE]  ; [ORIG 16-BIT INS]
     315                            .dwcfi  cfa_offset, 4
     316                    $C$DW$47        .dwtag  DW_TAG_TI_branch
     317                            .dwattr $C$DW$47, DW_AT_low_pc(0x00)
     318                            .dwattr $C$DW$47, DW_AT_TI_return
     319                    
     320 00000034 BD00              POP       {PC}                  ; [DPU_3_PIPE]  ; [ORIG 16-BIT INS]
     321                            .dwcfi  cfa_offset, 0
     322                            ; BRANCH OCCURS                  ; [] 
     323                            .dwattr $C$DW$35, DW_AT_TI_end_file("C:/TI_CodeComposer/TivaWare/sensorlib/i2cm_drv.h")
     324                            .dwattr $C$DW$35, DW_AT_TI_end_line(0x1d1)
     325                            .dwattr $C$DW$35, DW_AT_TI_end_column(0x01)
     326                            .dwendentry
     327                            .dwendtag $C$DW$35
     328                    
     329 00000000                   .sect   ".text:I2CMRead"
     330                            .clink
TI ARM Assembler PC v15.12.1 Tue Nov 01 13:44:09 2016

Tools Copyright (c) 1996-2015 Texas Instruments Incorporated
AccelTest.asm                                                        PAGE    7

     331                            .thumbfunc I2CMRead
     332 00000000                   .thumb
     333                            .global I2CMRead
     334                    
     335                    $C$DW$48        .dwtag  DW_TAG_subprogram
     336                            .dwattr $C$DW$48, DW_AT_name("I2CMRead")
     337                            .dwattr $C$DW$48, DW_AT_low_pc(I2CMRead)
     338                            .dwattr $C$DW$48, DW_AT_high_pc(0x00)
     339                            .dwattr $C$DW$48, DW_AT_TI_symbol_name("I2CMRead")
     340                            .dwattr $C$DW$48, DW_AT_external
     341                            .dwattr $C$DW$48, DW_AT_type(*$C$DW$T$25)
     342                            .dwattr $C$DW$48, DW_AT_TI_begin_file("C:/TI_CodeComposer/TivaWare/sensorlib/i2cm_drv.h")
     343                            .dwattr $C$DW$48, DW_AT_TI_begin_line(0x1d9)
     344                            .dwattr $C$DW$48, DW_AT_TI_begin_column(0x01)
     345                            .dwattr $C$DW$48, DW_AT_decl_file("C:/TI_CodeComposer/TivaWare/sensorlib/i2cm_drv.h")
     346                            .dwattr $C$DW$48, DW_AT_decl_line(0x1d9)
     347                            .dwattr $C$DW$48, DW_AT_decl_column(0x01)
     348                            .dwattr $C$DW$48, DW_AT_TI_max_frame_size(0x30)
     349                            .dwpsn  file "C:/TI_CodeComposer/TivaWare/sensorlib/i2cm_drv.h",line 477,column 1,is_stmt,addr
     350                    
     351                            .dwfde $C$DW$CIE, I2CMRead
     352                    $C$DW$49        .dwtag  DW_TAG_formal_parameter
     353                            .dwattr $C$DW$49, DW_AT_name("psInst")
     354                            .dwattr $C$DW$49, DW_AT_TI_symbol_name("psInst")
     355                            .dwattr $C$DW$49, DW_AT_type(*$C$DW$T$34)
     356                            .dwattr $C$DW$49, DW_AT_location[DW_OP_reg0]
     357                    
     358                    $C$DW$50        .dwtag  DW_TAG_formal_parameter
     359                            .dwattr $C$DW$50, DW_AT_name("ui8Addr")
     360                            .dwattr $C$DW$50, DW_AT_TI_symbol_name("ui8Addr")
     361                            .dwattr $C$DW$50, DW_AT_type(*$C$DW$T$25)
     362                            .dwattr $C$DW$50, DW_AT_location[DW_OP_reg1]
     363                    
     364                    $C$DW$51        .dwtag  DW_TAG_formal_parameter
     365                            .dwattr $C$DW$51, DW_AT_name("pui8WriteData")
     366                            .dwattr $C$DW$51, DW_AT_TI_symbol_name("pui8WriteData")
     367                            .dwattr $C$DW$51, DW_AT_type(*$C$DW$T$21)
     368                            .dwattr $C$DW$51, DW_AT_location[DW_OP_reg2]
     369                    
     370                    $C$DW$52        .dwtag  DW_TAG_formal_parameter
     371                            .dwattr $C$DW$52, DW_AT_name("ui16WriteCount")
     372                            .dwattr $C$DW$52, DW_AT_TI_symbol_name("ui16WriteCount")
     373                            .dwattr $C$DW$52, DW_AT_type(*$C$DW$T$143)
     374                            .dwattr $C$DW$52, DW_AT_location[DW_OP_reg3]
     375                    
     376                    $C$DW$53        .dwtag  DW_TAG_formal_parameter
     377                            .dwattr $C$DW$53, DW_AT_name("pui8ReadData")
     378                            .dwattr $C$DW$53, DW_AT_TI_symbol_name("pui8ReadData")
     379                            .dwattr $C$DW$53, DW_AT_type(*$C$DW$T$23)
     380                            .dwattr $C$DW$53, DW_AT_location[DW_OP_breg13 48]
     381                    
     382                    $C$DW$54        .dwtag  DW_TAG_formal_parameter
     383                            .dwattr $C$DW$54, DW_AT_name("ui16ReadCount")
     384                            .dwattr $C$DW$54, DW_AT_TI_symbol_name("ui16ReadCount")
     385                            .dwattr $C$DW$54, DW_AT_type(*$C$DW$T$143)
TI ARM Assembler PC v15.12.1 Tue Nov 01 13:44:09 2016

Tools Copyright (c) 1996-2015 Texas Instruments Incorporated
AccelTest.asm                                                        PAGE    8

     386                            .dwattr $C$DW$54, DW_AT_location[DW_OP_breg13 52]
     387                    
     388                    $C$DW$55        .dwtag  DW_TAG_formal_parameter
     389                            .dwattr $C$DW$55, DW_AT_name("pfnCallback")
     390                            .dwattr $C$DW$55, DW_AT_TI_symbol_name("pfnCallback")
     391                            .dwattr $C$DW$55, DW_AT_type(*$C$DW$T$28)
     392                            .dwattr $C$DW$55, DW_AT_location[DW_OP_breg13 56]
     393                    
     394                    $C$DW$56        .dwtag  DW_TAG_formal_parameter
     395                            .dwattr $C$DW$56, DW_AT_name("pvCallbackData")
     396                            .dwattr $C$DW$56, DW_AT_TI_symbol_name("pvCallbackData")
     397                            .dwattr $C$DW$56, DW_AT_type(*$C$DW$T$3)
     398                            .dwattr $C$DW$56, DW_AT_location[DW_OP_breg13 60]
     399                    
     400                    
     401                    ;*****************************************************************************
     402                    ;* FUNCTION NAME: I2CMRead                                                   *
     403                    ;*                                                                           *
     404                    ;*   Regs Modified     : A1,A2,A3,A4,V9,SP,LR,SR,D0,D0_hi,D1,D1_hi,D2,D2_hi, *
     405                    ;*                           D3,D3_hi,D4,D4_hi,D5,D5_hi,D6,D6_hi,D7,D7_hi,   *
     406                    ;*                           FPEXC,FPSCR                                     *
     407                    ;*   Regs Used         : A1,A2,A3,A4,V9,SP,LR,SR,D0,D0_hi,D1,D1_hi,D2,D2_hi, *
     408                    ;*                           D3,D3_hi,D4,D4_hi,D5,D5_hi,D6,D6_hi,D7,D7_hi,   *
     409                    ;*                           FPEXC,FPSCR                                     *
     410                    ;*   Local Frame Size  : 24 Args + 16 Auto + 4 Save = 44 byte                *
     411                    ;*****************************************************************************
     412 00000000           I2CMRead:
     413                    ;* --------------------------------------------------------------------------*
     414                            .dwcfi  cfa_offset, 0
     415 00000000 B500              PUSH      {LR}                  ; [DPU_3_PIPE]  ; [ORIG 16-BIT INS]
     416                            .dwcfi  cfa_offset, 4
     417                            .dwcfi  save_reg_to_mem, 14, -4
     418 00000002 0D2CF1AD          SUB       SP, SP, #44           ; [DPU_3_PIPE]  ; [KEEP 32-BIT INS]
     419                            .dwcfi  cfa_offset, 48
     420                    $C$DW$57        .dwtag  DW_TAG_variable
     421                            .dwattr $C$DW$57, DW_AT_name("psInst")
     422                            .dwattr $C$DW$57, DW_AT_TI_symbol_name("psInst")
     423                            .dwattr $C$DW$57, DW_AT_type(*$C$DW$T$34)
     424                            .dwattr $C$DW$57, DW_AT_location[DW_OP_breg13 24]
     425                    
     426                    $C$DW$58        .dwtag  DW_TAG_variable
     427                            .dwattr $C$DW$58, DW_AT_name("ui8Addr")
     428                            .dwattr $C$DW$58, DW_AT_TI_symbol_name("ui8Addr")
     429                            .dwattr $C$DW$58, DW_AT_type(*$C$DW$T$25)
     430                            .dwattr $C$DW$58, DW_AT_location[DW_OP_breg13 28]
     431                    
     432                    $C$DW$59        .dwtag  DW_TAG_variable
     433                            .dwattr $C$DW$59, DW_AT_name("pui8WriteData")
     434                            .dwattr $C$DW$59, DW_AT_TI_symbol_name("pui8WriteData")
     435                            .dwattr $C$DW$59, DW_AT_type(*$C$DW$T$21)
     436                            .dwattr $C$DW$59, DW_AT_location[DW_OP_breg13 32]
     437                    
     438                    $C$DW$60        .dwtag  DW_TAG_variable
     439                            .dwattr $C$DW$60, DW_AT_name("ui16WriteCount")
     440                            .dwattr $C$DW$60, DW_AT_TI_symbol_name("ui16WriteCount")
TI ARM Assembler PC v15.12.1 Tue Nov 01 13:44:09 2016

Tools Copyright (c) 1996-2015 Texas Instruments Incorporated
AccelTest.asm                                                        PAGE    9

     441                            .dwattr $C$DW$60, DW_AT_type(*$C$DW$T$143)
     442                            .dwattr $C$DW$60, DW_AT_location[DW_OP_breg13 36]
     443                    
     444 00000006 9309              STR       A4, [SP, #36]         ; [DPU_3_PIPE] |477|  ; [ORIG 16-BIT INS]
     445 00000008 9208              STR       A3, [SP, #32]         ; [DPU_3_PIPE] |477|  ; [ORIG 16-BIT INS]
     446 0000000a 9107              STR       A2, [SP, #28]         ; [DPU_3_PIPE] |477|  ; [ORIG 16-BIT INS]
     447 0000000c 9006              STR       A1, [SP, #24]         ; [DPU_3_PIPE] |477|  ; [ORIG 16-BIT INS]
     448                            .dwpsn  file "C:/TI_CodeComposer/TivaWare/sensorlib/i2cm_drv.h",line 478,column 5,is_stmt,isa 
     449 0000000e 9809              LDR       A1, [SP, #36]         ; [DPU_3_PIPE] |478|  ; [ORIG 16-BIT INS]
     450 00000010 9000              STR       A1, [SP, #0]          ; [DPU_3_PIPE] |478|  ; [ORIG 16-BIT INS]
     451 00000012 980C              LDR       A1, [SP, #48]         ; [DPU_3_PIPE] |478|  ; [ORIG 16-BIT INS]
     452 00000014 9001              STR       A1, [SP, #4]          ; [DPU_3_PIPE] |478|  ; [ORIG 16-BIT INS]
     453 00000016 980D              LDR       A1, [SP, #52]         ; [DPU_3_PIPE] |478|  ; [ORIG 16-BIT INS]
     454 00000018 9002              STR       A1, [SP, #8]          ; [DPU_3_PIPE] |478|  ; [ORIG 16-BIT INS]
     455 0000001a 980D              LDR       A1, [SP, #52]         ; [DPU_3_PIPE] |478|  ; [ORIG 16-BIT INS]
     456 0000001c 9003              STR       A1, [SP, #12]         ; [DPU_3_PIPE] |478|  ; [ORIG 16-BIT INS]
     457 0000001e 980E              LDR       A1, [SP, #56]         ; [DPU_3_PIPE] |478|  ; [ORIG 16-BIT INS]
     458 00000020 9004              STR       A1, [SP, #16]         ; [DPU_3_PIPE] |478|  ; [ORIG 16-BIT INS]
     459 00000022 980F              LDR       A1, [SP, #60]         ; [DPU_3_PIPE] |478|  ; [ORIG 16-BIT INS]
     460 00000024 9005              STR       A1, [SP, #20]         ; [DPU_3_PIPE] |478|  ; [ORIG 16-BIT INS]
     461 00000026 9B09              LDR       A4, [SP, #36]         ; [DPU_3_PIPE] |478|  ; [ORIG 16-BIT INS]
     462 00000028 9A08              LDR       A3, [SP, #32]         ; [DPU_3_PIPE] |478|  ; [ORIG 16-BIT INS]
     463 0000002a 9907              LDR       A2, [SP, #28]         ; [DPU_3_PIPE] |478|  ; [ORIG 16-BIT INS]
     464 0000002c 9806              LDR       A1, [SP, #24]         ; [DPU_3_PIPE] |478|  ; [ORIG 16-BIT INS]
     465                    $C$DW$61        .dwtag  DW_TAG_TI_branch
     466                            .dwattr $C$DW$61, DW_AT_low_pc(0x00)
     467                            .dwattr $C$DW$61, DW_AT_name("I2CMCommand")
     468                            .dwattr $C$DW$61, DW_AT_TI_call
     469                    
     470 0000002e FFFEF7FF!         BL        I2CMCommand           ; [DPU_3_PIPE] |478|  ; [KEEP 32-BIT INS]
     471                            ; CALL OCCURS {I2CMCommand }     ; [] |478| 
     472                            .dwpsn  file "C:/TI_CodeComposer/TivaWare/sensorlib/i2cm_drv.h",line 481,column 1,is_stmt,isa 
     473 00000032 B00B              ADD       SP, SP, #44           ; [DPU_3_PIPE]  ; [ORIG 16-BIT INS]
     474                            .dwcfi  cfa_offset, 4
     475                    $C$DW$62        .dwtag  DW_TAG_TI_branch
     476                            .dwattr $C$DW$62, DW_AT_low_pc(0x00)
     477                            .dwattr $C$DW$62, DW_AT_TI_return
     478                    
     479 00000034 BD00              POP       {PC}                  ; [DPU_3_PIPE]  ; [ORIG 16-BIT INS]
     480                            .dwcfi  cfa_offset, 0
     481                            ; BRANCH OCCURS                  ; [] 
     482                            .dwattr $C$DW$48, DW_AT_TI_end_file("C:/TI_CodeComposer/TivaWare/sensorlib/i2cm_drv.h")
     483                            .dwattr $C$DW$48, DW_AT_TI_end_line(0x1e1)
     484                            .dwattr $C$DW$48, DW_AT_TI_end_column(0x01)
     485                            .dwendentry
     486                            .dwendtag $C$DW$48
     487                    
     488 00000000                   .sect   ".text:I2CMWriteBatched"
     489                            .clink
     490                            .thumbfunc I2CMWriteBatched
     491 00000000                   .thumb
     492                            .global I2CMWriteBatched
     493                    
     494                    $C$DW$63        .dwtag  DW_TAG_subprogram
     495                            .dwattr $C$DW$63, DW_AT_name("I2CMWriteBatched")
TI ARM Assembler PC v15.12.1 Tue Nov 01 13:44:09 2016

Tools Copyright (c) 1996-2015 Texas Instruments Incorporated
AccelTest.asm                                                        PAGE   10

     496                            .dwattr $C$DW$63, DW_AT_low_pc(I2CMWriteBatched)
     497                            .dwattr $C$DW$63, DW_AT_high_pc(0x00)
     498                            .dwattr $C$DW$63, DW_AT_TI_symbol_name("I2CMWriteBatched")
     499                            .dwattr $C$DW$63, DW_AT_external
     500                            .dwattr $C$DW$63, DW_AT_type(*$C$DW$T$25)
     501                            .dwattr $C$DW$63, DW_AT_TI_begin_file("C:/TI_CodeComposer/TivaWare/sensorlib/i2cm_drv.h")
     502                            .dwattr $C$DW$63, DW_AT_TI_begin_line(0x1e9)
     503                            .dwattr $C$DW$63, DW_AT_TI_begin_column(0x01)
     504                            .dwattr $C$DW$63, DW_AT_decl_file("C:/TI_CodeComposer/TivaWare/sensorlib/i2cm_drv.h")
     505                            .dwattr $C$DW$63, DW_AT_decl_line(0x1e9)
     506                            .dwattr $C$DW$63, DW_AT_decl_column(0x01)
     507                            .dwattr $C$DW$63, DW_AT_TI_max_frame_size(0x30)
     508                            .dwpsn  file "C:/TI_CodeComposer/TivaWare/sensorlib/i2cm_drv.h",line 493,column 1,is_stmt,addr
     509                    
     510                            .dwfde $C$DW$CIE, I2CMWriteBatched
     511                    $C$DW$64        .dwtag  DW_TAG_formal_parameter
     512                            .dwattr $C$DW$64, DW_AT_name("psInst")
     513                            .dwattr $C$DW$64, DW_AT_TI_symbol_name("psInst")
     514                            .dwattr $C$DW$64, DW_AT_type(*$C$DW$T$34)
     515                            .dwattr $C$DW$64, DW_AT_location[DW_OP_reg0]
     516                    
     517                    $C$DW$65        .dwtag  DW_TAG_formal_parameter
     518                            .dwattr $C$DW$65, DW_AT_name("ui8Addr")
     519                            .dwattr $C$DW$65, DW_AT_TI_symbol_name("ui8Addr")
     520                            .dwattr $C$DW$65, DW_AT_type(*$C$DW$T$25)
     521                            .dwattr $C$DW$65, DW_AT_location[DW_OP_reg1]
     522                    
     523                    $C$DW$66        .dwtag  DW_TAG_formal_parameter
     524                            .dwattr $C$DW$66, DW_AT_name("pui8Data")
     525                            .dwattr $C$DW$66, DW_AT_TI_symbol_name("pui8Data")
     526                            .dwattr $C$DW$66, DW_AT_type(*$C$DW$T$21)
     527                            .dwattr $C$DW$66, DW_AT_location[DW_OP_reg2]
     528                    
     529                    $C$DW$67        .dwtag  DW_TAG_formal_parameter
     530                            .dwattr $C$DW$67, DW_AT_name("ui16Count")
     531                            .dwattr $C$DW$67, DW_AT_TI_symbol_name("ui16Count")
     532                            .dwattr $C$DW$67, DW_AT_type(*$C$DW$T$143)
     533                            .dwattr $C$DW$67, DW_AT_location[DW_OP_reg3]
     534                    
     535                    $C$DW$68        .dwtag  DW_TAG_formal_parameter
     536                            .dwattr $C$DW$68, DW_AT_name("ui16BatchSize")
     537                            .dwattr $C$DW$68, DW_AT_TI_symbol_name("ui16BatchSize")
     538                            .dwattr $C$DW$68, DW_AT_type(*$C$DW$T$143)
     539                            .dwattr $C$DW$68, DW_AT_location[DW_OP_breg13 48]
     540                    
     541                    $C$DW$69        .dwtag  DW_TAG_formal_parameter
     542                            .dwattr $C$DW$69, DW_AT_name("pfnCallback")
     543                            .dwattr $C$DW$69, DW_AT_TI_symbol_name("pfnCallback")
     544                            .dwattr $C$DW$69, DW_AT_type(*$C$DW$T$28)
     545                            .dwattr $C$DW$69, DW_AT_location[DW_OP_breg13 52]
     546                    
     547                    $C$DW$70        .dwtag  DW_TAG_formal_parameter
     548                            .dwattr $C$DW$70, DW_AT_name("pvCallbackData")
     549                            .dwattr $C$DW$70, DW_AT_TI_symbol_name("pvCallbackData")
     550                            .dwattr $C$DW$70, DW_AT_type(*$C$DW$T$3)
TI ARM Assembler PC v15.12.1 Tue Nov 01 13:44:09 2016

Tools Copyright (c) 1996-2015 Texas Instruments Incorporated
AccelTest.asm                                                        PAGE   11

     551                            .dwattr $C$DW$70, DW_AT_location[DW_OP_breg13 56]
     552                    
     553                    
     554                    ;*****************************************************************************
     555                    ;* FUNCTION NAME: I2CMWriteBatched                                           *
     556                    ;*                                                                           *
     557                    ;*   Regs Modified     : A1,A2,A3,A4,V9,SP,LR,SR,D0,D0_hi,D1,D1_hi,D2,D2_hi, *
     558                    ;*                           D3,D3_hi,D4,D4_hi,D5,D5_hi,D6,D6_hi,D7,D7_hi,   *
     559                    ;*                           FPEXC,FPSCR                                     *
     560                    ;*   Regs Used         : A1,A2,A3,A4,V9,SP,LR,SR,D0,D0_hi,D1,D1_hi,D2,D2_hi, *
     561                    ;*                           D3,D3_hi,D4,D4_hi,D5,D5_hi,D6,D6_hi,D7,D7_hi,   *
     562                    ;*                           FPEXC,FPSCR                                     *
     563                    ;*   Local Frame Size  : 24 Args + 16 Auto + 4 Save = 44 byte                *
     564                    ;*****************************************************************************
     565 00000000           I2CMWriteBatched:
     566                    ;* --------------------------------------------------------------------------*
     567                            .dwcfi  cfa_offset, 0
     568 00000000 B500              PUSH      {LR}                  ; [DPU_3_PIPE]  ; [ORIG 16-BIT INS]
     569                            .dwcfi  cfa_offset, 4
     570                            .dwcfi  save_reg_to_mem, 14, -4
     571 00000002 0D2CF1AD          SUB       SP, SP, #44           ; [DPU_3_PIPE]  ; [KEEP 32-BIT INS]
     572                            .dwcfi  cfa_offset, 48
     573                    $C$DW$71        .dwtag  DW_TAG_variable
     574                            .dwattr $C$DW$71, DW_AT_name("psInst")
     575                            .dwattr $C$DW$71, DW_AT_TI_symbol_name("psInst")
     576                            .dwattr $C$DW$71, DW_AT_type(*$C$DW$T$34)
     577                            .dwattr $C$DW$71, DW_AT_location[DW_OP_breg13 24]
     578                    
     579                    $C$DW$72        .dwtag  DW_TAG_variable
     580                            .dwattr $C$DW$72, DW_AT_name("ui8Addr")
     581                            .dwattr $C$DW$72, DW_AT_TI_symbol_name("ui8Addr")
     582                            .dwattr $C$DW$72, DW_AT_type(*$C$DW$T$25)
     583                            .dwattr $C$DW$72, DW_AT_location[DW_OP_breg13 28]
     584                    
     585                    $C$DW$73        .dwtag  DW_TAG_variable
     586                            .dwattr $C$DW$73, DW_AT_name("pui8Data")
     587                            .dwattr $C$DW$73, DW_AT_TI_symbol_name("pui8Data")
     588                            .dwattr $C$DW$73, DW_AT_type(*$C$DW$T$21)
     589                            .dwattr $C$DW$73, DW_AT_location[DW_OP_breg13 32]
     590                    
     591                    $C$DW$74        .dwtag  DW_TAG_variable
     592                            .dwattr $C$DW$74, DW_AT_name("ui16Count")
     593                            .dwattr $C$DW$74, DW_AT_TI_symbol_name("ui16Count")
     594                            .dwattr $C$DW$74, DW_AT_type(*$C$DW$T$143)
     595                            .dwattr $C$DW$74, DW_AT_location[DW_OP_breg13 36]
     596                    
     597 00000006 9309              STR       A4, [SP, #36]         ; [DPU_3_PIPE] |493|  ; [ORIG 16-BIT INS]
     598 00000008 9208              STR       A3, [SP, #32]         ; [DPU_3_PIPE] |493|  ; [ORIG 16-BIT INS]
     599 0000000a 9107              STR       A2, [SP, #28]         ; [DPU_3_PIPE] |493|  ; [ORIG 16-BIT INS]
     600 0000000c 9006              STR       A1, [SP, #24]         ; [DPU_3_PIPE] |493|  ; [ORIG 16-BIT INS]
     601                            .dwpsn  file "C:/TI_CodeComposer/TivaWare/sensorlib/i2cm_drv.h",line 494,column 5,is_stmt,isa 
     602 0000000e 980C              LDR       A1, [SP, #48]         ; [DPU_3_PIPE] |494|  ; [ORIG 16-BIT INS]
     603 00000010 9000              STR       A1, [SP, #0]          ; [DPU_3_PIPE] |494|  ; [ORIG 16-BIT INS]
     604 00000012 2000              MOVS      A1, #0                ; [DPU_3_PIPE] |494|  ; [ORIG 16-BIT INS]
     605 00000014 9001              STR       A1, [SP, #4]          ; [DPU_3_PIPE] |494|  ; [ORIG 16-BIT INS]
TI ARM Assembler PC v15.12.1 Tue Nov 01 13:44:09 2016

Tools Copyright (c) 1996-2015 Texas Instruments Incorporated
AccelTest.asm                                                        PAGE   12

     606 00000016 2000              MOVS      A1, #0                ; [DPU_3_PIPE] |494|  ; [ORIG 16-BIT INS]
     607 00000018 9002              STR       A1, [SP, #8]          ; [DPU_3_PIPE] |494|  ; [ORIG 16-BIT INS]
     608 0000001a 2000              MOVS      A1, #0                ; [DPU_3_PIPE] |494|  ; [ORIG 16-BIT INS]
     609 0000001c 9003              STR       A1, [SP, #12]         ; [DPU_3_PIPE] |494|  ; [ORIG 16-BIT INS]
     610 0000001e 980D              LDR       A1, [SP, #52]         ; [DPU_3_PIPE] |494|  ; [ORIG 16-BIT INS]
     611 00000020 9004              STR       A1, [SP, #16]         ; [DPU_3_PIPE] |494|  ; [ORIG 16-BIT INS]
     612 00000022 980E              LDR       A1, [SP, #56]         ; [DPU_3_PIPE] |494|  ; [ORIG 16-BIT INS]
     613 00000024 9005              STR       A1, [SP, #20]         ; [DPU_3_PIPE] |494|  ; [ORIG 16-BIT INS]
     614 00000026 9B09              LDR       A4, [SP, #36]         ; [DPU_3_PIPE] |494|  ; [ORIG 16-BIT INS]
     615 00000028 9A08              LDR       A3, [SP, #32]         ; [DPU_3_PIPE] |494|  ; [ORIG 16-BIT INS]
     616 0000002a 9907              LDR       A2, [SP, #28]         ; [DPU_3_PIPE] |494|  ; [ORIG 16-BIT INS]
     617 0000002c 9806              LDR       A1, [SP, #24]         ; [DPU_3_PIPE] |494|  ; [ORIG 16-BIT INS]
     618                    $C$DW$75        .dwtag  DW_TAG_TI_branch
     619                            .dwattr $C$DW$75, DW_AT_low_pc(0x00)
     620                            .dwattr $C$DW$75, DW_AT_name("I2CMCommand")
     621                            .dwattr $C$DW$75, DW_AT_TI_call
     622                    
     623 0000002e FFFEF7FF!         BL        I2CMCommand           ; [DPU_3_PIPE] |494|  ; [KEEP 32-BIT INS]
     624                            ; CALL OCCURS {I2CMCommand }     ; [] |494| 
     625                            .dwpsn  file "C:/TI_CodeComposer/TivaWare/sensorlib/i2cm_drv.h",line 496,column 1,is_stmt,isa 
     626 00000032 B00B              ADD       SP, SP, #44           ; [DPU_3_PIPE]  ; [ORIG 16-BIT INS]
     627                            .dwcfi  cfa_offset, 4
     628                    $C$DW$76        .dwtag  DW_TAG_TI_branch
     629                            .dwattr $C$DW$76, DW_AT_low_pc(0x00)
     630                            .dwattr $C$DW$76, DW_AT_TI_return
     631                    
     632 00000034 BD00              POP       {PC}                  ; [DPU_3_PIPE]  ; [ORIG 16-BIT INS]
     633                            .dwcfi  cfa_offset, 0
     634                            ; BRANCH OCCURS                  ; [] 
     635                            .dwattr $C$DW$63, DW_AT_TI_end_file("C:/TI_CodeComposer/TivaWare/sensorlib/i2cm_drv.h")
     636                            .dwattr $C$DW$63, DW_AT_TI_end_line(0x1f0)
     637                            .dwattr $C$DW$63, DW_AT_TI_end_column(0x01)
     638                            .dwendentry
     639                            .dwendtag $C$DW$63
     640                    
     641 00000000                   .sect   ".text:I2CMReadBatched"
     642                            .clink
     643                            .thumbfunc I2CMReadBatched
     644 00000000                   .thumb
     645                            .global I2CMReadBatched
     646                    
     647                    $C$DW$77        .dwtag  DW_TAG_subprogram
     648                            .dwattr $C$DW$77, DW_AT_name("I2CMReadBatched")
     649                            .dwattr $C$DW$77, DW_AT_low_pc(I2CMReadBatched)
     650                            .dwattr $C$DW$77, DW_AT_high_pc(0x00)
     651                            .dwattr $C$DW$77, DW_AT_TI_symbol_name("I2CMReadBatched")
     652                            .dwattr $C$DW$77, DW_AT_external
     653                            .dwattr $C$DW$77, DW_AT_type(*$C$DW$T$25)
     654                            .dwattr $C$DW$77, DW_AT_TI_begin_file("C:/TI_CodeComposer/TivaWare/sensorlib/i2cm_drv.h")
     655                            .dwattr $C$DW$77, DW_AT_TI_begin_line(0x1f8)
     656                            .dwattr $C$DW$77, DW_AT_TI_begin_column(0x01)
     657                            .dwattr $C$DW$77, DW_AT_decl_file("C:/TI_CodeComposer/TivaWare/sensorlib/i2cm_drv.h")
     658                            .dwattr $C$DW$77, DW_AT_decl_line(0x1f8)
     659                            .dwattr $C$DW$77, DW_AT_decl_column(0x01)
     660                            .dwattr $C$DW$77, DW_AT_TI_max_frame_size(0x30)
TI ARM Assembler PC v15.12.1 Tue Nov 01 13:44:09 2016

Tools Copyright (c) 1996-2015 Texas Instruments Incorporated
AccelTest.asm                                                        PAGE   13

     661                            .dwpsn  file "C:/TI_CodeComposer/TivaWare/sensorlib/i2cm_drv.h",line 509,column 1,is_stmt,addr
     662                    
     663                            .dwfde $C$DW$CIE, I2CMReadBatched
     664                    $C$DW$78        .dwtag  DW_TAG_formal_parameter
     665                            .dwattr $C$DW$78, DW_AT_name("psInst")
     666                            .dwattr $C$DW$78, DW_AT_TI_symbol_name("psInst")
     667                            .dwattr $C$DW$78, DW_AT_type(*$C$DW$T$34)
     668                            .dwattr $C$DW$78, DW_AT_location[DW_OP_reg0]
     669                    
     670                    $C$DW$79        .dwtag  DW_TAG_formal_parameter
     671                            .dwattr $C$DW$79, DW_AT_name("ui8Addr")
     672                            .dwattr $C$DW$79, DW_AT_TI_symbol_name("ui8Addr")
     673                            .dwattr $C$DW$79, DW_AT_type(*$C$DW$T$25)
     674                            .dwattr $C$DW$79, DW_AT_location[DW_OP_reg1]
     675                    
     676                    $C$DW$80        .dwtag  DW_TAG_formal_parameter
     677                            .dwattr $C$DW$80, DW_AT_name("pui8WriteData")
     678                            .dwattr $C$DW$80, DW_AT_TI_symbol_name("pui8WriteData")
     679                            .dwattr $C$DW$80, DW_AT_type(*$C$DW$T$21)
     680                            .dwattr $C$DW$80, DW_AT_location[DW_OP_reg2]
     681                    
     682                    $C$DW$81        .dwtag  DW_TAG_formal_parameter
     683                            .dwattr $C$DW$81, DW_AT_name("ui16WriteCount")
     684                            .dwattr $C$DW$81, DW_AT_TI_symbol_name("ui16WriteCount")
     685                            .dwattr $C$DW$81, DW_AT_type(*$C$DW$T$143)
     686                            .dwattr $C$DW$81, DW_AT_location[DW_OP_reg3]
     687                    
     688                    $C$DW$82        .dwtag  DW_TAG_formal_parameter
     689                            .dwattr $C$DW$82, DW_AT_name("ui16WriteBatchSize")
     690                            .dwattr $C$DW$82, DW_AT_TI_symbol_name("ui16WriteBatchSize")
     691                            .dwattr $C$DW$82, DW_AT_type(*$C$DW$T$143)
     692                            .dwattr $C$DW$82, DW_AT_location[DW_OP_breg13 48]
     693                    
     694                    $C$DW$83        .dwtag  DW_TAG_formal_parameter
     695                            .dwattr $C$DW$83, DW_AT_name("pui8ReadData")
     696                            .dwattr $C$DW$83, DW_AT_TI_symbol_name("pui8ReadData")
     697                            .dwattr $C$DW$83, DW_AT_type(*$C$DW$T$23)
     698                            .dwattr $C$DW$83, DW_AT_location[DW_OP_breg13 52]
     699                    
     700                    $C$DW$84        .dwtag  DW_TAG_formal_parameter
     701                            .dwattr $C$DW$84, DW_AT_name("ui16ReadCount")
     702                            .dwattr $C$DW$84, DW_AT_TI_symbol_name("ui16ReadCount")
     703                            .dwattr $C$DW$84, DW_AT_type(*$C$DW$T$143)
     704                            .dwattr $C$DW$84, DW_AT_location[DW_OP_breg13 56]
     705                    
     706                    $C$DW$85        .dwtag  DW_TAG_formal_parameter
     707                            .dwattr $C$DW$85, DW_AT_name("ui16ReadBatchSize")
     708                            .dwattr $C$DW$85, DW_AT_TI_symbol_name("ui16ReadBatchSize")
     709                            .dwattr $C$DW$85, DW_AT_type(*$C$DW$T$143)
     710                            .dwattr $C$DW$85, DW_AT_location[DW_OP_breg13 60]
     711                    
     712                    $C$DW$86        .dwtag  DW_TAG_formal_parameter
     713                            .dwattr $C$DW$86, DW_AT_name("pfnCallback")
     714                            .dwattr $C$DW$86, DW_AT_TI_symbol_name("pfnCallback")
     715                            .dwattr $C$DW$86, DW_AT_type(*$C$DW$T$28)
TI ARM Assembler PC v15.12.1 Tue Nov 01 13:44:09 2016

Tools Copyright (c) 1996-2015 Texas Instruments Incorporated
AccelTest.asm                                                        PAGE   14

     716                            .dwattr $C$DW$86, DW_AT_location[DW_OP_breg13 64]
     717                    
     718                    $C$DW$87        .dwtag  DW_TAG_formal_parameter
     719                            .dwattr $C$DW$87, DW_AT_name("pvCallbackData")
     720                            .dwattr $C$DW$87, DW_AT_TI_symbol_name("pvCallbackData")
     721                            .dwattr $C$DW$87, DW_AT_type(*$C$DW$T$3)
     722                            .dwattr $C$DW$87, DW_AT_location[DW_OP_breg13 68]
     723                    
     724                    
     725                    ;*****************************************************************************
     726                    ;* FUNCTION NAME: I2CMReadBatched                                            *
     727                    ;*                                                                           *
     728                    ;*   Regs Modified     : A1,A2,A3,A4,V9,SP,LR,SR,D0,D0_hi,D1,D1_hi,D2,D2_hi, *
     729                    ;*                           D3,D3_hi,D4,D4_hi,D5,D5_hi,D6,D6_hi,D7,D7_hi,   *
     730                    ;*                           FPEXC,FPSCR                                     *
     731                    ;*   Regs Used         : A1,A2,A3,A4,V9,SP,LR,SR,D0,D0_hi,D1,D1_hi,D2,D2_hi, *
     732                    ;*                           D3,D3_hi,D4,D4_hi,D5,D5_hi,D6,D6_hi,D7,D7_hi,   *
     733                    ;*                           FPEXC,FPSCR                                     *
     734                    ;*   Local Frame Size  : 24 Args + 16 Auto + 4 Save = 44 byte                *
     735                    ;*****************************************************************************
     736 00000000           I2CMReadBatched:
     737                    ;* --------------------------------------------------------------------------*
     738                            .dwcfi  cfa_offset, 0
     739 00000000 B500              PUSH      {LR}                  ; [DPU_3_PIPE]  ; [ORIG 16-BIT INS]
     740                            .dwcfi  cfa_offset, 4
     741                            .dwcfi  save_reg_to_mem, 14, -4
     742 00000002 0D2CF1AD          SUB       SP, SP, #44           ; [DPU_3_PIPE]  ; [KEEP 32-BIT INS]
     743                            .dwcfi  cfa_offset, 48
     744                    $C$DW$88        .dwtag  DW_TAG_variable
     745                            .dwattr $C$DW$88, DW_AT_name("psInst")
     746                            .dwattr $C$DW$88, DW_AT_TI_symbol_name("psInst")
     747                            .dwattr $C$DW$88, DW_AT_type(*$C$DW$T$34)
     748                            .dwattr $C$DW$88, DW_AT_location[DW_OP_breg13 24]
     749                    
     750                    $C$DW$89        .dwtag  DW_TAG_variable
     751                            .dwattr $C$DW$89, DW_AT_name("ui8Addr")
     752                            .dwattr $C$DW$89, DW_AT_TI_symbol_name("ui8Addr")
     753                            .dwattr $C$DW$89, DW_AT_type(*$C$DW$T$25)
     754                            .dwattr $C$DW$89, DW_AT_location[DW_OP_breg13 28]
     755                    
     756                    $C$DW$90        .dwtag  DW_TAG_variable
     757                            .dwattr $C$DW$90, DW_AT_name("pui8WriteData")
     758                            .dwattr $C$DW$90, DW_AT_TI_symbol_name("pui8WriteData")
     759                            .dwattr $C$DW$90, DW_AT_type(*$C$DW$T$21)
     760                            .dwattr $C$DW$90, DW_AT_location[DW_OP_breg13 32]
     761                    
     762                    $C$DW$91        .dwtag  DW_TAG_variable
     763                            .dwattr $C$DW$91, DW_AT_name("ui16WriteCount")
     764                            .dwattr $C$DW$91, DW_AT_TI_symbol_name("ui16WriteCount")
     765                            .dwattr $C$DW$91, DW_AT_type(*$C$DW$T$143)
     766                            .dwattr $C$DW$91, DW_AT_location[DW_OP_breg13 36]
     767                    
     768 00000006 9309              STR       A4, [SP, #36]         ; [DPU_3_PIPE] |509|  ; [ORIG 16-BIT INS]
     769 00000008 9208              STR       A3, [SP, #32]         ; [DPU_3_PIPE] |509|  ; [ORIG 16-BIT INS]
     770 0000000a 9107              STR       A2, [SP, #28]         ; [DPU_3_PIPE] |509|  ; [ORIG 16-BIT INS]
TI ARM Assembler PC v15.12.1 Tue Nov 01 13:44:09 2016

Tools Copyright (c) 1996-2015 Texas Instruments Incorporated
AccelTest.asm                                                        PAGE   15

     771 0000000c 9006              STR       A1, [SP, #24]         ; [DPU_3_PIPE] |509|  ; [ORIG 16-BIT INS]
     772                            .dwpsn  file "C:/TI_CodeComposer/TivaWare/sensorlib/i2cm_drv.h",line 510,column 5,is_stmt,isa 
     773 0000000e 980C              LDR       A1, [SP, #48]         ; [DPU_3_PIPE] |510|  ; [ORIG 16-BIT INS]
     774 00000010 9000              STR       A1, [SP, #0]          ; [DPU_3_PIPE] |510|  ; [ORIG 16-BIT INS]
     775 00000012 980D              LDR       A1, [SP, #52]         ; [DPU_3_PIPE] |510|  ; [ORIG 16-BIT INS]
     776 00000014 9001              STR       A1, [SP, #4]          ; [DPU_3_PIPE] |510|  ; [ORIG 16-BIT INS]
     777 00000016 980E              LDR       A1, [SP, #56]         ; [DPU_3_PIPE] |510|  ; [ORIG 16-BIT INS]
     778 00000018 9002              STR       A1, [SP, #8]          ; [DPU_3_PIPE] |510|  ; [ORIG 16-BIT INS]
     779 0000001a 980F              LDR       A1, [SP, #60]         ; [DPU_3_PIPE] |510|  ; [ORIG 16-BIT INS]
     780 0000001c 9003              STR       A1, [SP, #12]         ; [DPU_3_PIPE] |510|  ; [ORIG 16-BIT INS]
     781 0000001e 9810              LDR       A1, [SP, #64]         ; [DPU_3_PIPE] |510|  ; [ORIG 16-BIT INS]
     782 00000020 9004              STR       A1, [SP, #16]         ; [DPU_3_PIPE] |510|  ; [ORIG 16-BIT INS]
     783 00000022 9811              LDR       A1, [SP, #68]         ; [DPU_3_PIPE] |510|  ; [ORIG 16-BIT INS]
     784 00000024 9005              STR       A1, [SP, #20]         ; [DPU_3_PIPE] |510|  ; [ORIG 16-BIT INS]
     785 00000026 9B09              LDR       A4, [SP, #36]         ; [DPU_3_PIPE] |510|  ; [ORIG 16-BIT INS]
     786 00000028 9A08              LDR       A3, [SP, #32]         ; [DPU_3_PIPE] |510|  ; [ORIG 16-BIT INS]
     787 0000002a 9907              LDR       A2, [SP, #28]         ; [DPU_3_PIPE] |510|  ; [ORIG 16-BIT INS]
     788 0000002c 9806              LDR       A1, [SP, #24]         ; [DPU_3_PIPE] |510|  ; [ORIG 16-BIT INS]
     789                    $C$DW$92        .dwtag  DW_TAG_TI_branch
     790                            .dwattr $C$DW$92, DW_AT_low_pc(0x00)
     791                            .dwattr $C$DW$92, DW_AT_name("I2CMCommand")
     792                            .dwattr $C$DW$92, DW_AT_TI_call
     793                    
     794 0000002e FFFEF7FF!         BL        I2CMCommand           ; [DPU_3_PIPE] |510|  ; [KEEP 32-BIT INS]
     795                            ; CALL OCCURS {I2CMCommand }     ; [] |510| 
     796                            .dwpsn  file "C:/TI_CodeComposer/TivaWare/sensorlib/i2cm_drv.h",line 513,column 1,is_stmt,isa 
     797 00000032 B00B              ADD       SP, SP, #44           ; [DPU_3_PIPE]  ; [ORIG 16-BIT INS]
     798                            .dwcfi  cfa_offset, 4
     799                    $C$DW$93        .dwtag  DW_TAG_TI_branch
     800                            .dwattr $C$DW$93, DW_AT_low_pc(0x00)
     801                            .dwattr $C$DW$93, DW_AT_TI_return
     802                    
     803 00000034 BD00              POP       {PC}                  ; [DPU_3_PIPE]  ; [ORIG 16-BIT INS]
     804                            .dwcfi  cfa_offset, 0
     805                            ; BRANCH OCCURS                  ; [] 
     806                            .dwattr $C$DW$77, DW_AT_TI_end_file("C:/TI_CodeComposer/TivaWare/sensorlib/i2cm_drv.h")
     807                            .dwattr $C$DW$77, DW_AT_TI_end_line(0x201)
     808                            .dwattr $C$DW$77, DW_AT_TI_end_column(0x01)
     809                            .dwendentry
     810                            .dwendtag $C$DW$77
     811                    
     812 00000000                   .sect   ".text:I2CMReadModifyWrite16BE"
     813                            .clink
     814                            .thumbfunc I2CMReadModifyWrite16BE
     815 00000000                   .thumb
     816                            .global I2CMReadModifyWrite16BE
     817                    
     818                    $C$DW$94        .dwtag  DW_TAG_subprogram
     819                            .dwattr $C$DW$94, DW_AT_name("I2CMReadModifyWrite16BE")
     820                            .dwattr $C$DW$94, DW_AT_low_pc(I2CMReadModifyWrite16BE)
     821                            .dwattr $C$DW$94, DW_AT_high_pc(0x00)
     822                            .dwattr $C$DW$94, DW_AT_TI_symbol_name("I2CMReadModifyWrite16BE")
     823                            .dwattr $C$DW$94, DW_AT_external
     824                            .dwattr $C$DW$94, DW_AT_type(*$C$DW$T$25)
     825                            .dwattr $C$DW$94, DW_AT_TI_begin_file("C:/TI_CodeComposer/TivaWare/sensorlib/i2cm_drv.h")
TI ARM Assembler PC v15.12.1 Tue Nov 01 13:44:09 2016

Tools Copyright (c) 1996-2015 Texas Instruments Incorporated
AccelTest.asm                                                        PAGE   16

     826                            .dwattr $C$DW$94, DW_AT_TI_begin_line(0x209)
     827                            .dwattr $C$DW$94, DW_AT_TI_begin_column(0x01)
     828                            .dwattr $C$DW$94, DW_AT_decl_file("C:/TI_CodeComposer/TivaWare/sensorlib/i2cm_drv.h")
     829                            .dwattr $C$DW$94, DW_AT_decl_line(0x209)
     830                            .dwattr $C$DW$94, DW_AT_decl_column(0x01)
     831                            .dwattr $C$DW$94, DW_AT_TI_max_frame_size(0x28)
     832                            .dwpsn  file "C:/TI_CodeComposer/TivaWare/sensorlib/i2cm_drv.h",line 526,column 1,is_stmt,addr
     833                    
     834                            .dwfde $C$DW$CIE, I2CMReadModifyWrite16BE
     835                    $C$DW$95        .dwtag  DW_TAG_formal_parameter
     836                            .dwattr $C$DW$95, DW_AT_name("psInst")
     837                            .dwattr $C$DW$95, DW_AT_TI_symbol_name("psInst")
     838                            .dwattr $C$DW$95, DW_AT_type(*$C$DW$T$95)
     839                            .dwattr $C$DW$95, DW_AT_location[DW_OP_reg0]
     840                    
     841                    $C$DW$96        .dwtag  DW_TAG_formal_parameter
     842                            .dwattr $C$DW$96, DW_AT_name("psI2CInst")
     843                            .dwattr $C$DW$96, DW_AT_TI_symbol_name("psI2CInst")
     844                            .dwattr $C$DW$96, DW_AT_type(*$C$DW$T$34)
     845                            .dwattr $C$DW$96, DW_AT_location[DW_OP_reg1]
     846                    
     847                    $C$DW$97        .dwtag  DW_TAG_formal_parameter
     848                            .dwattr $C$DW$97, DW_AT_name("ui8Addr")
     849                            .dwattr $C$DW$97, DW_AT_TI_symbol_name("ui8Addr")
     850                            .dwattr $C$DW$97, DW_AT_type(*$C$DW$T$25)
     851                            .dwattr $C$DW$97, DW_AT_location[DW_OP_reg2]
     852                    
     853                    $C$DW$98        .dwtag  DW_TAG_formal_parameter
     854                            .dwattr $C$DW$98, DW_AT_name("ui8Reg")
     855                            .dwattr $C$DW$98, DW_AT_TI_symbol_name("ui8Reg")
     856                            .dwattr $C$DW$98, DW_AT_type(*$C$DW$T$25)
     857                            .dwattr $C$DW$98, DW_AT_location[DW_OP_reg3]
     858                    
     859                    $C$DW$99        .dwtag  DW_TAG_formal_parameter
     860                            .dwattr $C$DW$99, DW_AT_name("ui16Mask")
     861                            .dwattr $C$DW$99, DW_AT_TI_symbol_name("ui16Mask")
     862                            .dwattr $C$DW$99, DW_AT_type(*$C$DW$T$143)
     863                            .dwattr $C$DW$99, DW_AT_location[DW_OP_breg13 40]
     864                    
     865                    $C$DW$100       .dwtag  DW_TAG_formal_parameter
     866                            .dwattr $C$DW$100, DW_AT_name("ui16Value")
     867                            .dwattr $C$DW$100, DW_AT_TI_symbol_name("ui16Value")
     868                            .dwattr $C$DW$100, DW_AT_type(*$C$DW$T$143)
     869                            .dwattr $C$DW$100, DW_AT_location[DW_OP_breg13 44]
     870                    
     871                    $C$DW$101       .dwtag  DW_TAG_formal_parameter
     872                            .dwattr $C$DW$101, DW_AT_name("pfnCallback")
     873                            .dwattr $C$DW$101, DW_AT_TI_symbol_name("pfnCallback")
     874                            .dwattr $C$DW$101, DW_AT_type(*$C$DW$T$28)
     875                            .dwattr $C$DW$101, DW_AT_location[DW_OP_breg13 48]
     876                    
     877                    $C$DW$102       .dwtag  DW_TAG_formal_parameter
     878                            .dwattr $C$DW$102, DW_AT_name("pvCallbackData")
     879                            .dwattr $C$DW$102, DW_AT_TI_symbol_name("pvCallbackData")
     880                            .dwattr $C$DW$102, DW_AT_type(*$C$DW$T$3)
TI ARM Assembler PC v15.12.1 Tue Nov 01 13:44:09 2016

Tools Copyright (c) 1996-2015 Texas Instruments Incorporated
AccelTest.asm                                                        PAGE   17

     881                            .dwattr $C$DW$102, DW_AT_location[DW_OP_breg13 52]
     882                    
     883                    
     884                    ;*****************************************************************************
     885                    ;* FUNCTION NAME: I2CMReadModifyWrite16BE                                    *
     886                    ;*                                                                           *
     887                    ;*   Regs Modified     : A1,A2,A3,A4,V9,SP,LR,SR,D0,D0_hi,D1,D1_hi,D2,D2_hi, *
     888                    ;*                           D3,D3_hi,D4,D4_hi,D5,D5_hi,D6,D6_hi,D7,D7_hi,   *
     889                    ;*                           FPEXC,FPSCR                                     *
     890                    ;*   Regs Used         : A1,A2,A3,A4,V9,SP,LR,SR,D0,D0_hi,D1,D1_hi,D2,D2_hi, *
     891                    ;*                           D3,D3_hi,D4,D4_hi,D5,D5_hi,D6,D6_hi,D7,D7_hi,   *
     892                    ;*                           FPEXC,FPSCR                                     *
     893                    ;*   Local Frame Size  : 16 Args + 16 Auto + 4 Save = 36 byte                *
     894                    ;*****************************************************************************
     895 00000000           I2CMReadModifyWrite16BE:
     896                    ;* --------------------------------------------------------------------------*
     897                            .dwcfi  cfa_offset, 0
     898 00000000 B500              PUSH      {LR}                  ; [DPU_3_PIPE]  ; [ORIG 16-BIT INS]
     899                            .dwcfi  cfa_offset, 4
     900                            .dwcfi  save_reg_to_mem, 14, -4
     901 00000002 0D24F1AD          SUB       SP, SP, #36           ; [DPU_3_PIPE]  ; [KEEP 32-BIT INS]
     902                            .dwcfi  cfa_offset, 40
     903                    $C$DW$103       .dwtag  DW_TAG_variable
     904                            .dwattr $C$DW$103, DW_AT_name("psInst")
     905                            .dwattr $C$DW$103, DW_AT_TI_symbol_name("psInst")
     906                            .dwattr $C$DW$103, DW_AT_type(*$C$DW$T$95)
     907                            .dwattr $C$DW$103, DW_AT_location[DW_OP_breg13 16]
     908                    
     909                    $C$DW$104       .dwtag  DW_TAG_variable
     910                            .dwattr $C$DW$104, DW_AT_name("psI2CInst")
     911                            .dwattr $C$DW$104, DW_AT_TI_symbol_name("psI2CInst")
     912                            .dwattr $C$DW$104, DW_AT_type(*$C$DW$T$34)
     913                            .dwattr $C$DW$104, DW_AT_location[DW_OP_breg13 20]
     914                    
     915                    $C$DW$105       .dwtag  DW_TAG_variable
     916                            .dwattr $C$DW$105, DW_AT_name("ui8Addr")
     917                            .dwattr $C$DW$105, DW_AT_TI_symbol_name("ui8Addr")
     918                            .dwattr $C$DW$105, DW_AT_type(*$C$DW$T$25)
     919                            .dwattr $C$DW$105, DW_AT_location[DW_OP_breg13 24]
     920                    
     921                    $C$DW$106       .dwtag  DW_TAG_variable
     922                            .dwattr $C$DW$106, DW_AT_name("ui8Reg")
     923                            .dwattr $C$DW$106, DW_AT_TI_symbol_name("ui8Reg")
     924                            .dwattr $C$DW$106, DW_AT_type(*$C$DW$T$25)
     925                            .dwattr $C$DW$106, DW_AT_location[DW_OP_breg13 28]
     926                    
     927 00000006 9307              STR       A4, [SP, #28]         ; [DPU_3_PIPE] |526|  ; [ORIG 16-BIT INS]
     928 00000008 9206              STR       A3, [SP, #24]         ; [DPU_3_PIPE] |526|  ; [ORIG 16-BIT INS]
     929 0000000a 9105              STR       A2, [SP, #20]         ; [DPU_3_PIPE] |526|  ; [ORIG 16-BIT INS]
     930 0000000c 9004              STR       A1, [SP, #16]         ; [DPU_3_PIPE] |526|  ; [ORIG 16-BIT INS]
     931                            .dwpsn  file "C:/TI_CodeComposer/TivaWare/sensorlib/i2cm_drv.h",line 527,column 5,is_stmt,isa 
     932 0000000e 980A              LDR       A1, [SP, #40]         ; [DPU_3_PIPE] |527|  ; [ORIG 16-BIT INS]
     933 00000010 990A              LDR       A2, [SP, #40]         ; [DPU_3_PIPE] |527|  ; [ORIG 16-BIT INS]
     934 00000012 407FF400          AND       A1, A1, #65280        ; [DPU_3_PIPE] |527|  ; [KEEP 32-BIT INS]
     935 00000016 01FFF001          AND       A2, A2, #255          ; [DPU_3_PIPE] |527|  ; [KEEP 32-BIT INS]
TI ARM Assembler PC v15.12.1 Tue Nov 01 13:44:09 2016

Tools Copyright (c) 1996-2015 Texas Instruments Incorporated
AccelTest.asm                                                        PAGE   18

     936 0000001a 0A00              LSRS      A1, A1, #8            ; [DPU_3_PIPE] |527|  ; [ORIG 16-BIT INS]
     937 0000001c 2001EA40          ORR       A1, A1, A2, LSL #8    ; [DPU_3_PIPE] |527|  ; [KEEP 32-BIT INS]
     938 00000020 990B              LDR       A2, [SP, #44]         ; [DPU_3_PIPE] |527|  ; [ORIG 16-BIT INS]
     939 00000022 9000              STR       A1, [SP, #0]          ; [DPU_3_PIPE] |527|  ; [ORIG 16-BIT INS]
     940 00000024 980B              LDR       A1, [SP, #44]         ; [DPU_3_PIPE] |527|  ; [ORIG 16-BIT INS]
     941 00000026 01FFF001          AND       A2, A2, #255          ; [DPU_3_PIPE] |527|  ; [KEEP 32-BIT INS]
     942 0000002a 407FF400          AND       A1, A1, #65280        ; [DPU_3_PIPE] |527|  ; [KEEP 32-BIT INS]
     943 0000002e 0A00              LSRS      A1, A1, #8            ; [DPU_3_PIPE] |527|  ; [ORIG 16-BIT INS]
     944 00000030 2001EA40          ORR       A1, A1, A2, LSL #8    ; [DPU_3_PIPE] |527|  ; [KEEP 32-BIT INS]
     945 00000034 9001              STR       A1, [SP, #4]          ; [DPU_3_PIPE] |527|  ; [ORIG 16-BIT INS]
     946 00000036 980C              LDR       A1, [SP, #48]         ; [DPU_3_PIPE] |527|  ; [ORIG 16-BIT INS]
     947 00000038 9002              STR       A1, [SP, #8]          ; [DPU_3_PIPE] |527|  ; [ORIG 16-BIT INS]
     948 0000003a 980D              LDR       A1, [SP, #52]         ; [DPU_3_PIPE] |527|  ; [ORIG 16-BIT INS]
     949 0000003c 9003              STR       A1, [SP, #12]         ; [DPU_3_PIPE] |527|  ; [ORIG 16-BIT INS]
     950 0000003e 9A06              LDR       A3, [SP, #24]         ; [DPU_3_PIPE] |527|  ; [ORIG 16-BIT INS]
     951 00000040 9B07              LDR       A4, [SP, #28]         ; [DPU_3_PIPE] |527|  ; [ORIG 16-BIT INS]
     952 00000042 9905              LDR       A2, [SP, #20]         ; [DPU_3_PIPE] |527|  ; [ORIG 16-BIT INS]
     953 00000044 9804              LDR       A1, [SP, #16]         ; [DPU_3_PIPE] |527|  ; [ORIG 16-BIT INS]
     954                    $C$DW$107       .dwtag  DW_TAG_TI_branch
     955                            .dwattr $C$DW$107, DW_AT_low_pc(0x00)
     956                            .dwattr $C$DW$107, DW_AT_name("I2CMReadModifyWrite16LE")
     957                            .dwattr $C$DW$107, DW_AT_TI_call
     958                    
     959 00000046 FFFEF7FF!         BL        I2CMReadModifyWrite16LE ; [DPU_3_PIPE] |527|  ; [KEEP 32-BIT INS]
     960                            ; CALL OCCURS {I2CMReadModifyWrite16LE }  ; [] |527| 
     961                            .dwpsn  file "C:/TI_CodeComposer/TivaWare/sensorlib/i2cm_drv.h",line 533,column 1,is_stmt,isa 
     962 0000004a B009              ADD       SP, SP, #36           ; [DPU_3_PIPE]  ; [ORIG 16-BIT INS]
     963                            .dwcfi  cfa_offset, 4
     964                    $C$DW$108       .dwtag  DW_TAG_TI_branch
     965                            .dwattr $C$DW$108, DW_AT_low_pc(0x00)
     966                            .dwattr $C$DW$108, DW_AT_TI_return
     967                    
     968 0000004c BD00              POP       {PC}                  ; [DPU_3_PIPE]  ; [ORIG 16-BIT INS]
     969                            .dwcfi  cfa_offset, 0
     970                            ; BRANCH OCCURS                  ; [] 
     971                            .dwattr $C$DW$94, DW_AT_TI_end_file("C:/TI_CodeComposer/TivaWare/sensorlib/i2cm_drv.h")
     972                            .dwattr $C$DW$94, DW_AT_TI_end_line(0x215)
     973                            .dwattr $C$DW$94, DW_AT_TI_end_column(0x01)
     974                            .dwendentry
     975                            .dwendtag $C$DW$94
     976                    
     977 00000000                   .sect   ".text"
     978                            .clink
     979                            .thumbfunc Task_AccRead
     980 00000000                   .thumb
     981                            .global Task_AccRead
     982                    
     983                    $C$DW$109       .dwtag  DW_TAG_subprogram
     984                            .dwattr $C$DW$109, DW_AT_name("Task_AccRead")
     985                            .dwattr $C$DW$109, DW_AT_low_pc(Task_AccRead)
     986                            .dwattr $C$DW$109, DW_AT_high_pc(0x00)
     987                            .dwattr $C$DW$109, DW_AT_TI_symbol_name("Task_AccRead")
     988                            .dwattr $C$DW$109, DW_AT_external
     989                            .dwattr $C$DW$109, DW_AT_TI_begin_file("../Tasks/AccelTest.c")
     990                            .dwattr $C$DW$109, DW_AT_TI_begin_line(0x2c)
TI ARM Assembler PC v15.12.1 Tue Nov 01 13:44:09 2016

Tools Copyright (c) 1996-2015 Texas Instruments Incorporated
AccelTest.asm                                                        PAGE   19

     991                            .dwattr $C$DW$109, DW_AT_TI_begin_column(0x06)
     992                            .dwattr $C$DW$109, DW_AT_decl_file("../Tasks/AccelTest.c")
     993                            .dwattr $C$DW$109, DW_AT_decl_line(0x2c)
     994                            .dwattr $C$DW$109, DW_AT_decl_column(0x06)
     995                            .dwattr $C$DW$109, DW_AT_TI_max_frame_size(0x30)
     996                            .dwpsn  file "../Tasks/AccelTest.c",line 45,column 1,is_stmt,address Task_AccRead,isa 1
     997                    
     998                            .dwfde $C$DW$CIE, Task_AccRead
     999                    $C$DW$110       .dwtag  DW_TAG_formal_parameter
    1000                            .dwattr $C$DW$110, DW_AT_name("pvParameters")
    1001                            .dwattr $C$DW$110, DW_AT_TI_symbol_name("pvParameters")
    1002                            .dwattr $C$DW$110, DW_AT_type(*$C$DW$T$3)
    1003                            .dwattr $C$DW$110, DW_AT_location[DW_OP_reg0]
    1004                    
    1005                    
    1006                    ;*****************************************************************************
    1007                    ;* FUNCTION NAME: Task_AccRead                                               *
    1008                    ;*                                                                           *
    1009                    ;*   Regs Modified     : A1,A2,A3,A4,V9,SP,LR,SR,D0,D0_hi,D1,D1_hi,D2,D2_hi, *
    1010                    ;*                           D3,D3_hi,D4,D4_hi,D5,D5_hi,D6,D6_hi,D7,D7_hi,   *
    1011                    ;*                           FPEXC,FPSCR                                     *
    1012                    ;*   Regs Used         : A1,A2,A3,A4,V9,SP,LR,SR,D0,D0_hi,D1,D1_hi,D2,D2_hi, *
    1013                    ;*                           D3,D3_hi,D4,D4_hi,D5,D5_hi,D6,D6_hi,D7,D7_hi,   *
    1014                    ;*                           FPEXC,FPSCR                                     *
    1015                    ;*   Local Frame Size  : 0 Args + 40 Auto + 4 Save = 44 byte                 *
    1016                    ;*****************************************************************************
    1017 00000000           Task_AccRead:
    1018                    ;* --------------------------------------------------------------------------*
    1019                            .dwcfi  cfa_offset, 0
    1020 00000000 B500              PUSH      {LR}                  ; [DPU_3_PIPE]  ; [ORIG 16-BIT INS]
    1021                            .dwcfi  cfa_offset, 4
    1022                            .dwcfi  save_reg_to_mem, 14, -4
    1023 00000002 0D2CF1AD          SUB       SP, SP, #44           ; [DPU_3_PIPE]  ; [KEEP 32-BIT INS]
    1024                            .dwcfi  cfa_offset, 48
    1025                    $C$DW$111       .dwtag  DW_TAG_variable
    1026                            .dwattr $C$DW$111, DW_AT_name("pvParameters")
    1027                            .dwattr $C$DW$111, DW_AT_TI_symbol_name("pvParameters")
    1028                            .dwattr $C$DW$111, DW_AT_type(*$C$DW$T$3)
    1029                            .dwattr $C$DW$111, DW_AT_location[DW_OP_breg13 0]
    1030                    
    1031                    $C$DW$112       .dwtag  DW_TAG_variable
    1032                            .dwattr $C$DW$112, DW_AT_name("theAccelReport")
    1033                            .dwattr $C$DW$112, DW_AT_TI_symbol_name("theAccelReport")
    1034                            .dwattr $C$DW$112, DW_AT_type(*$C$DW$T$102)
    1035                            .dwattr $C$DW$112, DW_AT_location[DW_OP_breg13 4]
    1036                    
    1037                    $C$DW$113       .dwtag  DW_TAG_variable
    1038                            .dwattr $C$DW$113, DW_AT_name("xaccel")
    1039                            .dwattr $C$DW$113, DW_AT_TI_symbol_name("xaccel")
    1040                            .dwattr $C$DW$113, DW_AT_type(*$C$DW$T$16)
    1041                            .dwattr $C$DW$113, DW_AT_location[DW_OP_breg13 28]
    1042                    
    1043                    $C$DW$114       .dwtag  DW_TAG_variable
    1044                            .dwattr $C$DW$114, DW_AT_name("yaccel")
    1045                            .dwattr $C$DW$114, DW_AT_TI_symbol_name("yaccel")
TI ARM Assembler PC v15.12.1 Tue Nov 01 13:44:09 2016

Tools Copyright (c) 1996-2015 Texas Instruments Incorporated
AccelTest.asm                                                        PAGE   20

    1046                            .dwattr $C$DW$114, DW_AT_type(*$C$DW$T$16)
    1047                            .dwattr $C$DW$114, DW_AT_location[DW_OP_breg13 32]
    1048                    
    1049                    $C$DW$115       .dwtag  DW_TAG_variable
    1050                            .dwattr $C$DW$115, DW_AT_name("zaccel")
    1051                            .dwattr $C$DW$115, DW_AT_TI_symbol_name("zaccel")
    1052                            .dwattr $C$DW$115, DW_AT_type(*$C$DW$T$16)
    1053                            .dwattr $C$DW$115, DW_AT_location[DW_OP_breg13 36]
    1054                    
    1055 00000006 9000              STR       A1, [SP, #0]          ; [DPU_3_PIPE] |45|  ; [ORIG 16-BIT INS]
    1056                            .dwpsn  file "../Tasks/AccelTest.c",line 58,column 2,is_stmt,isa 1
    1057 00000008 60FAF44F          MOV       A1, #2000             ; [DPU_3_PIPE] |58|  ; [KEEP 32-BIT INS]
    1058                    $C$DW$116       .dwtag  DW_TAG_TI_branch
    1059                            .dwattr $C$DW$116, DW_AT_low_pc(0x00)
    1060                            .dwattr $C$DW$116, DW_AT_name("vTaskDelay")
    1061                            .dwattr $C$DW$116, DW_AT_TI_call
    1062                    
    1063 0000000c FFFEF7FF!         BL        vTaskDelay            ; [DPU_3_PIPE] |58|  ; [KEEP 32-BIT INS]
    1064                            ; CALL OCCURS {vTaskDelay }      ; [] |58| 
    1065                            .dwpsn  file "../Tasks/AccelTest.c",line 63,column 10,is_stmt,isa 1
    1066                    ;* --------------------------------------------------------------------------*
    1067                    ;*   BEGIN LOOP ||$C$L1||
    1068                    ;*
    1069                    ;*   Loop source line                : 63
    1070                    ;*   Loop closing brace source line  : 78
    1071                    ;*   Known Minimum Trip Count        : 1
    1072                    ;*   Known Maximum Trip Count        : 4294967295
    1073                    ;*   Known Max Trip Count Factor     : 1
    1074                    ;* --------------------------------------------------------------------------*
    1075 00000010           ||$C$L1||:    
    1076                            .dwpsn  file "../Tasks/AccelTest.c",line 64,column 3,is_stmt,isa 1
    1077 00000010 0A00EEB7          VMOV.F32  S0, #1.00000000000000000000e+00 ; [DPU_LIN_PIPE] |64|  ; [KEEP 32-BIT INS]
    1078 00000014 0A07ED8D          VSTR.32   S0, [SP, #28]         ; [DPU_LIN_PIPE] |64|  ; [KEEP 32-BIT INS]
    1079                            .dwpsn  file "../Tasks/AccelTest.c",line 65,column 3,is_stmt,isa 1
    1080 00000018 0A00EEB7          VMOV.F32  S0, #1.00000000000000000000e+00 ; [DPU_LIN_PIPE] |65|  ; [KEEP 32-BIT INS]
    1081 0000001c 0A08ED8D          VSTR.32   S0, [SP, #32]         ; [DPU_LIN_PIPE] |65|  ; [KEEP 32-BIT INS]
    1082                            .dwpsn  file "../Tasks/AccelTest.c",line 66,column 3,is_stmt,isa 1
    1083 00000020 0A00EEB7          VMOV.F32  S0, #1.00000000000000000000e+00 ; [DPU_LIN_PIPE] |66|  ; [KEEP 32-BIT INS]
    1084 00000024 0A09ED8D          VSTR.32   S0, [SP, #36]         ; [DPU_LIN_PIPE] |66|  ; [KEEP 32-BIT INS]
    1085                            .dwpsn  file "../Tasks/AccelTest.c",line 67,column 3,is_stmt,isa 1
    1086 00000028 A807              ADD       A1, SP, #28           ; [DPU_3_PIPE] |67|  ; [ORIG 16-BIT INS]
    1087 0000002a A908              ADD       A2, SP, #32           ; [DPU_3_PIPE] |67|  ; [ORIG 16-BIT INS]
    1088 0000002c AA09              ADD       A3, SP, #36           ; [DPU_3_PIPE] |67|  ; [ORIG 16-BIT INS]
    1089                    $C$DW$117       .dwtag  DW_TAG_TI_branch
    1090                            .dwattr $C$DW$117, DW_AT_low_pc(0x00)
    1091                            .dwattr $C$DW$117, DW_AT_name("getAcceleration")
    1092                            .dwattr $C$DW$117, DW_AT_TI_call
    1093                    
    1094 0000002e FFFEF7FF!         BL        getAcceleration       ; [DPU_3_PIPE] |67|  ; [KEEP 32-BIT INS]
    1095                            ; CALL OCCURS {getAcceleration }  ; [] |67| 
    1096                            .dwpsn  file "../Tasks/AccelTest.c",line 68,column 3,is_stmt,isa 1
    1097 00000032 481C              LDR       A1, $C$CON1           ; [DPU_3_PIPE] |68|  ; [ORIG 16-BIT INS]
    1098 00000034 6800              LDR       A1, [A1, #0]          ; [DPU_3_PIPE] |68|  ; [ORIG 16-BIT INS]
    1099 00000036 9001              STR       A1, [SP, #4]          ; [DPU_3_PIPE] |68|  ; [ORIG 16-BIT INS]
    1100                            .dwpsn  file "../Tasks/AccelTest.c",line 69,column 3,is_stmt,isa 1
TI ARM Assembler PC v15.12.1 Tue Nov 01 13:44:09 2016

Tools Copyright (c) 1996-2015 Texas Instruments Incorporated
AccelTest.asm                                                        PAGE   21

    1101 00000038 2001              MOVS      A1, #1                ; [DPU_3_PIPE] |69|  ; [ORIG 16-BIT INS]
    1102 0000003a 9002              STR       A1, [SP, #8]          ; [DPU_3_PIPE] |69|  ; [ORIG 16-BIT INS]
    1103                            .dwpsn  file "../Tasks/AccelTest.c",line 70,column 3,is_stmt,isa 1
    1104 0000003c 0A07ED9D          VLDR.32   S0, [SP, #28]         ; [DPU_LIN_PIPE] |70|  ; [KEEP 32-BIT INS]
    1105 00000040 4817              LDR       A1, $C$FL1            ; [DPU_3_PIPE] |70|  ; [ORIG 16-BIT INS]
    1106 00000042 0A90EE00          VMOV      S1, A1                ; [DPU_LIN_PIPE] |70|  ; [KEEP 32-BIT INS]
    1107 00000046 0A80EE20          VMUL.F32  S0, S1, S0            ; [DPU_LIN_PIPE] |70|  ; [KEEP 32-BIT INS]
    1108 0000004a 0AC0EEBD          VCVT.S32.F32 S0, S0             ; [DPU_LIN_PIPE] |70|  ; [KEEP 32-BIT INS]
    1109 0000004e 0A10EE10          VMOV      A1, S0                ; [DPU_LIN_PIPE] |70|  ; [KEEP 32-BIT INS]
    1110 00000052 9003              STR       A1, [SP, #12]         ; [DPU_3_PIPE] |70|  ; [ORIG 16-BIT INS]
    1111                            .dwpsn  file "../Tasks/AccelTest.c",line 71,column 3,is_stmt,isa 1
    1112 00000054 0A08ED9D          VLDR.32   S0, [SP, #32]         ; [DPU_LIN_PIPE] |71|  ; [KEEP 32-BIT INS]
    1113 00000058 4811              LDR       A1, $C$FL1            ; [DPU_3_PIPE] |71|  ; [ORIG 16-BIT INS]
    1114 0000005a 0A90EE00          VMOV      S1, A1                ; [DPU_LIN_PIPE] |71|  ; [KEEP 32-BIT INS]
    1115 0000005e 0A80EE20          VMUL.F32  S0, S1, S0            ; [DPU_LIN_PIPE] |71|  ; [KEEP 32-BIT INS]
    1116 00000062 0AC0EEBD          VCVT.S32.F32 S0, S0             ; [DPU_LIN_PIPE] |71|  ; [KEEP 32-BIT INS]
    1117 00000066 0A10EE10          VMOV      A1, S0                ; [DPU_LIN_PIPE] |71|  ; [KEEP 32-BIT INS]
    1118 0000006a 9004              STR       A1, [SP, #16]         ; [DPU_3_PIPE] |71|  ; [ORIG 16-BIT INS]
    1119                            .dwpsn  file "../Tasks/AccelTest.c",line 72,column 3,is_stmt,isa 1
    1120 0000006c 0A09ED9D          VLDR.32   S0, [SP, #36]         ; [DPU_LIN_PIPE] |72|  ; [KEEP 32-BIT INS]
    1121 00000070 480B              LDR       A1, $C$FL1            ; [DPU_3_PIPE] |72|  ; [ORIG 16-BIT INS]
    1122 00000072 0A90EE00          VMOV      S1, A1                ; [DPU_LIN_PIPE] |72|  ; [KEEP 32-BIT INS]
    1123 00000076 0A80EE20          VMUL.F32  S0, S1, S0            ; [DPU_LIN_PIPE] |72|  ; [KEEP 32-BIT INS]
    1124 0000007a 0AC0EEBD          VCVT.S32.F32 S0, S0             ; [DPU_LIN_PIPE] |72|  ; [KEEP 32-BIT INS]
    1125 0000007e 0A10EE10          VMOV      A1, S0                ; [DPU_LIN_PIPE] |72|  ; [KEEP 32-BIT INS]
    1126 00000082 9005              STR       A1, [SP, #20]         ; [DPU_3_PIPE] |72|  ; [ORIG 16-BIT INS]
    1127                            .dwpsn  file "../Tasks/AccelTest.c",line 73,column 3,is_stmt,isa 1
    1128 00000084 2000              MOVS      A1, #0                ; [DPU_3_PIPE] |73|  ; [ORIG 16-BIT INS]
    1129 00000086 9006              STR       A1, [SP, #24]         ; [DPU_3_PIPE] |73|  ; [ORIG 16-BIT INS]
    1130                            .dwpsn  file "../Tasks/AccelTest.c",line 75,column 3,is_stmt,isa 1
    1131 00000088 4807              LDR       A1, $C$CON2           ; [DPU_3_PIPE] |75|  ; [ORIG 16-BIT INS]
    1132 0000008a 6800              LDR       A1, [A1, #0]          ; [DPU_3_PIPE] |75|  ; [ORIG 16-BIT INS]
    1133 0000008c A901              ADD       A2, SP, #4            ; [DPU_3_PIPE] |75|  ; [ORIG 16-BIT INS]
    1134 0000008e 2200              MOVS      A3, #0                ; [DPU_3_PIPE] |75|  ; [ORIG 16-BIT INS]
    1135 00000090 2300              MOVS      A4, #0                ; [DPU_3_PIPE] |75|  ; [ORIG 16-BIT INS]
    1136                    $C$DW$118       .dwtag  DW_TAG_TI_branch
    1137                            .dwattr $C$DW$118, DW_AT_low_pc(0x00)
    1138                            .dwattr $C$DW$118, DW_AT_name("xQueueGenericSend")
    1139                            .dwattr $C$DW$118, DW_AT_TI_call
    1140                    
    1141 00000092 FFFEF7FF!         BL        xQueueGenericSend     ; [DPU_3_PIPE] |75|  ; [KEEP 32-BIT INS]
    1142                            ; CALL OCCURS {xQueueGenericSend }  ; [] |75| 
    1143                            .dwpsn  file "../Tasks/AccelTest.c",line 77,column 3,is_stmt,isa 1
    1144 00000096 60FAF44F          MOV       A1, #2000             ; [DPU_3_PIPE] |77|  ; [KEEP 32-BIT INS]
    1145                    $C$DW$119       .dwtag  DW_TAG_TI_branch
    1146                            .dwattr $C$DW$119, DW_AT_low_pc(0x00)
    1147                            .dwattr $C$DW$119, DW_AT_name("vTaskDelay")
    1148                            .dwattr $C$DW$119, DW_AT_TI_call
    1149                    
    1150 0000009a FFFEF7FF!         BL        vTaskDelay            ; [DPU_3_PIPE] |77|  ; [KEEP 32-BIT INS]
    1151                            ; CALL OCCURS {vTaskDelay }      ; [] |77| 
    1152                            .dwpsn  file "../Tasks/AccelTest.c",line 63,column 10,is_stmt,isa 1
    1153 0000009e E7B7              B         ||$C$L1||             ; [DPU_3_PIPE] |63|  ; [ORIG 16-BIT INS]
    1154                            ; BRANCH OCCURS {||$C$L1||}      ; [] |63| 
    1155                    ;* --------------------------------------------------------------------------*
TI ARM Assembler PC v15.12.1 Tue Nov 01 13:44:09 2016

Tools Copyright (c) 1996-2015 Texas Instruments Incorporated
AccelTest.asm                                                        PAGE   22

    1156                            .dwattr $C$DW$109, DW_AT_TI_end_file("../Tasks/AccelTest.c")
    1157                            .dwattr $C$DW$109, DW_AT_TI_end_line(0x4f)
    1158                            .dwattr $C$DW$109, DW_AT_TI_end_column(0x01)
    1159                            .dwendentry
    1160                            .dwendtag $C$DW$109
    1161                    
    1162                    ;******************************************************************************
    1163                    ;* FLOATING-POINT CONSTANTS                                                   *
    1164                    ;******************************************************************************
    1165 000000a0                   .sect   ".text"
    1166                            .align  4
    1167 000000a0 42C80000  ||$C$FL1||:     .word   042c80000h      ; 100
    1168                    ;******************************************************************************
    1169                    ;* CONSTANT TABLE                                                             *
    1170                    ;******************************************************************************
    1171 000000a4                   .sect   ".text"
    1172                            .align  4
    1173 000000a4 00000000! ||$C$CON1||:    .bits   xPortSysTickCount,32
    1174                            .align  4
    1175 000000a8 00000000! ||$C$CON2||:    .bits   ReportData_Queue,32
    1176                    ;*****************************************************************************
    1177                    ;* UNDEFINED EXTERNAL REFERENCES                                             *
    1178                    ;*****************************************************************************
    1179                            .global I2CMCommand
    1180                            .global I2CMReadModifyWrite16LE
    1181                            .global vTaskDelay
    1182                            .global xQueueGenericSend
    1183                            .global getAcceleration
    1184                            .global xPortSysTickCount
    1185                            .global ReportData_Queue
    1186                    ;*****************************************************************************
    1187                    ;* SECTION GROUPS                                                            *
    1188                    ;*****************************************************************************
    1189                            .group    "I2CMRead", 1
    1190                            .gmember  ".text:I2CMRead"
    1191                            .endgroup
    1192                            .group    "I2CMReadBatched", 1
    1193                            .gmember  ".text:I2CMReadBatched"
    1194                            .endgroup
    1195                            .group    "I2CMReadModifyWrite16BE", 1
    1196                            .gmember  ".text:I2CMReadModifyWrite16BE"
    1197                            .endgroup
    1198                            .group    "I2CMWrite", 1
    1199                            .gmember  ".text:I2CMWrite"
    1200                            .endgroup
    1201                            .group    "I2CMWriteBatched", 1
    1202                            .gmember  ".text:I2CMWriteBatched"
    1203                            .endgroup
    1204                    
    1205                    
    1206                    ;******************************************************************************
    1207                    ;* BUILD ATTRIBUTES                                                           *
    1208                    ;******************************************************************************
    1209                            .battr "aeabi", Tag_File, 1, Tag_ABI_PCS_wchar_t(2)
    1210                            .battr "aeabi", Tag_File, 1, Tag_ABI_FP_rounding(0)
TI ARM Assembler PC v15.12.1 Tue Nov 01 13:44:09 2016

Tools Copyright (c) 1996-2015 Texas Instruments Incorporated
AccelTest.asm                                                        PAGE   23

    1211                            .battr "aeabi", Tag_File, 1, Tag_ABI_FP_denormal(0)
    1212                            .battr "aeabi", Tag_File, 1, Tag_ABI_FP_exceptions(0)
    1213                            .battr "aeabi", Tag_File, 1, Tag_ABI_FP_number_model(1)
    1214                            .battr "aeabi", Tag_File, 1, Tag_ABI_enum_size(1)
    1215                            .battr "aeabi", Tag_File, 1, Tag_ABI_optimization_goals(5)
    1216                            .battr "aeabi", Tag_File, 1, Tag_ABI_FP_optimization_goals(0)
    1217                            .battr "TI", Tag_File, 1, Tag_Bitfield_layout(2)
    1218                            .battr "TI", Tag_File, 1, Tag_FP_interface(1)
    1219                    
    1220                    ;******************************************************************************
    1221                    ;* TYPE INFORMATION                                                           *
    1222                    ;******************************************************************************
    1223                    
    1224                    $C$DW$T$84      .dwtag  DW_TAG_enumeration_type
    1225                            .dwattr $C$DW$T$84, DW_AT_byte_size(0x01)
    1226                    $C$DW$120       .dwtag  DW_TAG_enumerator
    1227                            .dwattr $C$DW$120, DW_AT_name("eRunning")
    1228                            .dwattr $C$DW$120, DW_AT_const_value(0x00)
    1229                            .dwattr $C$DW$120, DW_AT_decl_file("C:/TI_ARM_Tiva_Projects/Source/include/task.h")
    1230                            .dwattr $C$DW$120, DW_AT_decl_line(0x72)
    1231                            .dwattr $C$DW$120, DW_AT_decl_column(0x02)
    1232                    
    1233                    $C$DW$121       .dwtag  DW_TAG_enumerator
    1234                            .dwattr $C$DW$121, DW_AT_name("eReady")
    1235                            .dwattr $C$DW$121, DW_AT_const_value(0x01)
    1236                            .dwattr $C$DW$121, DW_AT_decl_file("C:/TI_ARM_Tiva_Projects/Source/include/task.h")
    1237                            .dwattr $C$DW$121, DW_AT_decl_line(0x73)
    1238                            .dwattr $C$DW$121, DW_AT_decl_column(0x02)
    1239                    
    1240                    $C$DW$122       .dwtag  DW_TAG_enumerator
    1241                            .dwattr $C$DW$122, DW_AT_name("eBlocked")
    1242                            .dwattr $C$DW$122, DW_AT_const_value(0x02)
    1243                            .dwattr $C$DW$122, DW_AT_decl_file("C:/TI_ARM_Tiva_Projects/Source/include/task.h")
    1244                            .dwattr $C$DW$122, DW_AT_decl_line(0x74)
    1245                            .dwattr $C$DW$122, DW_AT_decl_column(0x02)
    1246                    
    1247                    $C$DW$123       .dwtag  DW_TAG_enumerator
    1248                            .dwattr $C$DW$123, DW_AT_name("eSuspended")
    1249                            .dwattr $C$DW$123, DW_AT_const_value(0x03)
    1250                            .dwattr $C$DW$123, DW_AT_decl_file("C:/TI_ARM_Tiva_Projects/Source/include/task.h")
    1251                            .dwattr $C$DW$123, DW_AT_decl_line(0x75)
    1252                            .dwattr $C$DW$123, DW_AT_decl_column(0x02)
    1253                    
    1254                    $C$DW$124       .dwtag  DW_TAG_enumerator
    1255                            .dwattr $C$DW$124, DW_AT_name("eDeleted")
    1256                            .dwattr $C$DW$124, DW_AT_const_value(0x04)
    1257                            .dwattr $C$DW$124, DW_AT_decl_file("C:/TI_ARM_Tiva_Projects/Source/include/task.h")
    1258                            .dwattr $C$DW$124, DW_AT_decl_line(0x76)
    1259                            .dwattr $C$DW$124, DW_AT_decl_column(0x02)
    1260                    
    1261                            .dwattr $C$DW$T$84, DW_AT_decl_file("C:/TI_ARM_Tiva_Projects/Source/include/task.h")
    1262                            .dwattr $C$DW$T$84, DW_AT_decl_line(0x71)
    1263                            .dwattr $C$DW$T$84, DW_AT_decl_column(0x01)
    1264                            .dwendtag $C$DW$T$84
    1265                    
TI ARM Assembler PC v15.12.1 Tue Nov 01 13:44:09 2016

Tools Copyright (c) 1996-2015 Texas Instruments Incorporated
AccelTest.asm                                                        PAGE   24

    1266                    $C$DW$T$85      .dwtag  DW_TAG_typedef
    1267                            .dwattr $C$DW$T$85, DW_AT_name("eTaskState")
    1268                            .dwattr $C$DW$T$85, DW_AT_type(*$C$DW$T$84)
    1269                            .dwattr $C$DW$T$85, DW_AT_language(DW_LANG_C)
    1270                            .dwattr $C$DW$T$85, DW_AT_decl_file("C:/TI_ARM_Tiva_Projects/Source/include/task.h")
    1271                            .dwattr $C$DW$T$85, DW_AT_decl_line(0x77)
    1272                            .dwattr $C$DW$T$85, DW_AT_decl_column(0x03)
    1273                    
    1274                    
    1275                    $C$DW$T$90      .dwtag  DW_TAG_enumeration_type
    1276                            .dwattr $C$DW$T$90, DW_AT_byte_size(0x01)
    1277                    $C$DW$125       .dwtag  DW_TAG_enumerator
    1278                            .dwattr $C$DW$125, DW_AT_name("eNoAction")
    1279                            .dwattr $C$DW$125, DW_AT_const_value(0x00)
    1280                            .dwattr $C$DW$125, DW_AT_decl_file("C:/TI_ARM_Tiva_Projects/Source/include/task.h")
    1281                            .dwattr $C$DW$125, DW_AT_decl_line(0x7c)
    1282                            .dwattr $C$DW$125, DW_AT_decl_column(0x02)
    1283                    
    1284                    $C$DW$126       .dwtag  DW_TAG_enumerator
    1285                            .dwattr $C$DW$126, DW_AT_name("eSetBits")
    1286                            .dwattr $C$DW$126, DW_AT_const_value(0x01)
    1287                            .dwattr $C$DW$126, DW_AT_decl_file("C:/TI_ARM_Tiva_Projects/Source/include/task.h")
    1288                            .dwattr $C$DW$126, DW_AT_decl_line(0x7d)
    1289                            .dwattr $C$DW$126, DW_AT_decl_column(0x02)
    1290                    
    1291                    $C$DW$127       .dwtag  DW_TAG_enumerator
    1292                            .dwattr $C$DW$127, DW_AT_name("eIncrement")
    1293                            .dwattr $C$DW$127, DW_AT_const_value(0x02)
    1294                            .dwattr $C$DW$127, DW_AT_decl_file("C:/TI_ARM_Tiva_Projects/Source/include/task.h")
    1295                            .dwattr $C$DW$127, DW_AT_decl_line(0x7e)
    1296                            .dwattr $C$DW$127, DW_AT_decl_column(0x02)
    1297                    
    1298                    $C$DW$128       .dwtag  DW_TAG_enumerator
    1299                            .dwattr $C$DW$128, DW_AT_name("eSetValueWithOverwrite")
    1300                            .dwattr $C$DW$128, DW_AT_const_value(0x03)
    1301                            .dwattr $C$DW$128, DW_AT_decl_file("C:/TI_ARM_Tiva_Projects/Source/include/task.h")
    1302                            .dwattr $C$DW$128, DW_AT_decl_line(0x7f)
    1303                            .dwattr $C$DW$128, DW_AT_decl_column(0x02)
    1304                    
    1305                    $C$DW$129       .dwtag  DW_TAG_enumerator
    1306                            .dwattr $C$DW$129, DW_AT_name("eSetValueWithoutOverwrite")
    1307                            .dwattr $C$DW$129, DW_AT_const_value(0x04)
    1308                            .dwattr $C$DW$129, DW_AT_decl_file("C:/TI_ARM_Tiva_Projects/Source/include/task.h")
    1309                            .dwattr $C$DW$129, DW_AT_decl_line(0x80)
    1310                            .dwattr $C$DW$129, DW_AT_decl_column(0x02)
    1311                    
    1312                            .dwattr $C$DW$T$90, DW_AT_decl_file("C:/TI_ARM_Tiva_Projects/Source/include/task.h")
    1313                            .dwattr $C$DW$T$90, DW_AT_decl_line(0x7b)
    1314                            .dwattr $C$DW$T$90, DW_AT_decl_column(0x01)
    1315                            .dwendtag $C$DW$T$90
    1316                    
    1317                    $C$DW$T$91      .dwtag  DW_TAG_typedef
    1318                            .dwattr $C$DW$T$91, DW_AT_name("eNotifyAction")
    1319                            .dwattr $C$DW$T$91, DW_AT_type(*$C$DW$T$90)
    1320                            .dwattr $C$DW$T$91, DW_AT_language(DW_LANG_C)
TI ARM Assembler PC v15.12.1 Tue Nov 01 13:44:09 2016

Tools Copyright (c) 1996-2015 Texas Instruments Incorporated
AccelTest.asm                                                        PAGE   25

    1321                            .dwattr $C$DW$T$91, DW_AT_decl_file("C:/TI_ARM_Tiva_Projects/Source/include/task.h")
    1322                            .dwattr $C$DW$T$91, DW_AT_decl_line(0x81)
    1323                            .dwattr $C$DW$T$91, DW_AT_decl_column(0x03)
    1324                    
    1325                    
    1326                    $C$DW$T$92      .dwtag  DW_TAG_enumeration_type
    1327                            .dwattr $C$DW$T$92, DW_AT_byte_size(0x01)
    1328                    $C$DW$130       .dwtag  DW_TAG_enumerator
    1329                            .dwattr $C$DW$130, DW_AT_name("eAbortSleep")
    1330                            .dwattr $C$DW$130, DW_AT_const_value(0x00)
    1331                            .dwattr $C$DW$130, DW_AT_decl_file("C:/TI_ARM_Tiva_Projects/Source/include/task.h")
    1332                            .dwattr $C$DW$130, DW_AT_decl_line(0xb5)
    1333                            .dwattr $C$DW$130, DW_AT_decl_column(0x02)
    1334                    
    1335                    $C$DW$131       .dwtag  DW_TAG_enumerator
    1336                            .dwattr $C$DW$131, DW_AT_name("eStandardSleep")
    1337                            .dwattr $C$DW$131, DW_AT_const_value(0x01)
    1338                            .dwattr $C$DW$131, DW_AT_decl_file("C:/TI_ARM_Tiva_Projects/Source/include/task.h")
    1339                            .dwattr $C$DW$131, DW_AT_decl_line(0xb6)
    1340                            .dwattr $C$DW$131, DW_AT_decl_column(0x02)
    1341                    
    1342                    $C$DW$132       .dwtag  DW_TAG_enumerator
    1343                            .dwattr $C$DW$132, DW_AT_name("eNoTasksWaitingTimeout")
    1344                            .dwattr $C$DW$132, DW_AT_const_value(0x02)
    1345                            .dwattr $C$DW$132, DW_AT_decl_file("C:/TI_ARM_Tiva_Projects/Source/include/task.h")
    1346                            .dwattr $C$DW$132, DW_AT_decl_line(0xb7)
    1347                            .dwattr $C$DW$132, DW_AT_decl_column(0x02)
    1348                    
    1349                            .dwattr $C$DW$T$92, DW_AT_decl_file("C:/TI_ARM_Tiva_Projects/Source/include/task.h")
    1350                            .dwattr $C$DW$T$92, DW_AT_decl_line(0xb4)
    1351                            .dwattr $C$DW$T$92, DW_AT_decl_column(0x01)
    1352                            .dwendtag $C$DW$T$92
    1353                    
    1354                    $C$DW$T$93      .dwtag  DW_TAG_typedef
    1355                            .dwattr $C$DW$T$93, DW_AT_name("eSleepModeStatus")
    1356                            .dwattr $C$DW$T$93, DW_AT_type(*$C$DW$T$92)
    1357                            .dwattr $C$DW$T$93, DW_AT_language(DW_LANG_C)
    1358                            .dwattr $C$DW$T$93, DW_AT_decl_file("C:/TI_ARM_Tiva_Projects/Source/include/task.h")
    1359                            .dwattr $C$DW$T$93, DW_AT_decl_line(0xb8)
    1360                            .dwattr $C$DW$T$93, DW_AT_decl_column(0x03)
    1361                    
    1362                    
    1363                    $C$DW$T$29      .dwtag  DW_TAG_structure_type
    1364                            .dwattr $C$DW$T$29, DW_AT_byte_size(0x1c)
    1365                    $C$DW$133       .dwtag  DW_TAG_member
    1366                            .dwattr $C$DW$133, DW_AT_type(*$C$DW$T$19)
    1367                            .dwattr $C$DW$133, DW_AT_name("ui8Addr")
    1368                            .dwattr $C$DW$133, DW_AT_TI_symbol_name("ui8Addr")
    1369                            .dwattr $C$DW$133, DW_AT_data_member_location[DW_OP_plus_uconst 0x0]
    1370                            .dwattr $C$DW$133, DW_AT_accessibility(DW_ACCESS_public)
    1371                            .dwattr $C$DW$133, DW_AT_decl_file("C:/TI_CodeComposer/TivaWare/sensorlib/i2cm_drv.h")
    1372                            .dwattr $C$DW$133, DW_AT_decl_line(0x4c)
    1373                            .dwattr $C$DW$133, DW_AT_decl_column(0x0d)
    1374                    
    1375                    $C$DW$134       .dwtag  DW_TAG_member
TI ARM Assembler PC v15.12.1 Tue Nov 01 13:44:09 2016

Tools Copyright (c) 1996-2015 Texas Instruments Incorporated
AccelTest.asm                                                        PAGE   26

    1376                            .dwattr $C$DW$134, DW_AT_type(*$C$DW$T$21)
    1377                            .dwattr $C$DW$134, DW_AT_name("pui8WriteData")
    1378                            .dwattr $C$DW$134, DW_AT_TI_symbol_name("pui8WriteData")
    1379                            .dwattr $C$DW$134, DW_AT_data_member_location[DW_OP_plus_uconst 0x4]
    1380                            .dwattr $C$DW$134, DW_AT_accessibility(DW_ACCESS_public)
    1381                            .dwattr $C$DW$134, DW_AT_decl_file("C:/TI_CodeComposer/TivaWare/sensorlib/i2cm_drv.h")
    1382                            .dwattr $C$DW$134, DW_AT_decl_line(0x51)
    1383                            .dwattr $C$DW$134, DW_AT_decl_column(0x14)
    1384                    
    1385                    $C$DW$135       .dwtag  DW_TAG_member
    1386                            .dwattr $C$DW$135, DW_AT_type(*$C$DW$T$22)
    1387                            .dwattr $C$DW$135, DW_AT_name("ui16WriteCount")
    1388                            .dwattr $C$DW$135, DW_AT_TI_symbol_name("ui16WriteCount")
    1389                            .dwattr $C$DW$135, DW_AT_data_member_location[DW_OP_plus_uconst 0x8]
    1390                            .dwattr $C$DW$135, DW_AT_accessibility(DW_ACCESS_public)
    1391                            .dwattr $C$DW$135, DW_AT_decl_file("C:/TI_CodeComposer/TivaWare/sensorlib/i2cm_drv.h")
    1392                            .dwattr $C$DW$135, DW_AT_decl_line(0x56)
    1393                            .dwattr $C$DW$135, DW_AT_decl_column(0x0e)
    1394                    
    1395                    $C$DW$136       .dwtag  DW_TAG_member
    1396                            .dwattr $C$DW$136, DW_AT_type(*$C$DW$T$22)
    1397                            .dwattr $C$DW$136, DW_AT_name("ui16WriteBatchSize")
    1398                            .dwattr $C$DW$136, DW_AT_TI_symbol_name("ui16WriteBatchSize")
    1399                            .dwattr $C$DW$136, DW_AT_data_member_location[DW_OP_plus_uconst 0xa]
    1400                            .dwattr $C$DW$136, DW_AT_accessibility(DW_ACCESS_public)
    1401                            .dwattr $C$DW$136, DW_AT_decl_file("C:/TI_CodeComposer/TivaWare/sensorlib/i2cm_drv.h")
    1402                            .dwattr $C$DW$136, DW_AT_decl_line(0x5b)
    1403                            .dwattr $C$DW$136, DW_AT_decl_column(0x0e)
    1404                    
    1405                    $C$DW$137       .dwtag  DW_TAG_member
    1406                            .dwattr $C$DW$137, DW_AT_type(*$C$DW$T$23)
    1407                            .dwattr $C$DW$137, DW_AT_name("pui8ReadData")
    1408                            .dwattr $C$DW$137, DW_AT_TI_symbol_name("pui8ReadData")
    1409                            .dwattr $C$DW$137, DW_AT_data_member_location[DW_OP_plus_uconst 0xc]
    1410                            .dwattr $C$DW$137, DW_AT_accessibility(DW_ACCESS_public)
    1411                            .dwattr $C$DW$137, DW_AT_decl_file("C:/TI_CodeComposer/TivaWare/sensorlib/i2cm_drv.h")
    1412                            .dwattr $C$DW$137, DW_AT_decl_line(0x60)
    1413                            .dwattr $C$DW$137, DW_AT_decl_column(0x0e)
    1414                    
    1415                    $C$DW$138       .dwtag  DW_TAG_member
    1416                            .dwattr $C$DW$138, DW_AT_type(*$C$DW$T$22)
    1417                            .dwattr $C$DW$138, DW_AT_name("ui16ReadCount")
    1418                            .dwattr $C$DW$138, DW_AT_TI_symbol_name("ui16ReadCount")
    1419                            .dwattr $C$DW$138, DW_AT_data_member_location[DW_OP_plus_uconst 0x10]
    1420                            .dwattr $C$DW$138, DW_AT_accessibility(DW_ACCESS_public)
    1421                            .dwattr $C$DW$138, DW_AT_decl_file("C:/TI_CodeComposer/TivaWare/sensorlib/i2cm_drv.h")
    1422                            .dwattr $C$DW$138, DW_AT_decl_line(0x65)
    1423                            .dwattr $C$DW$138, DW_AT_decl_column(0x0e)
    1424                    
    1425                    $C$DW$139       .dwtag  DW_TAG_member
    1426                            .dwattr $C$DW$139, DW_AT_type(*$C$DW$T$22)
    1427                            .dwattr $C$DW$139, DW_AT_name("ui16ReadBatchSize")
    1428                            .dwattr $C$DW$139, DW_AT_TI_symbol_name("ui16ReadBatchSize")
    1429                            .dwattr $C$DW$139, DW_AT_data_member_location[DW_OP_plus_uconst 0x12]
    1430                            .dwattr $C$DW$139, DW_AT_accessibility(DW_ACCESS_public)
TI ARM Assembler PC v15.12.1 Tue Nov 01 13:44:09 2016

Tools Copyright (c) 1996-2015 Texas Instruments Incorporated
AccelTest.asm                                                        PAGE   27

    1431                            .dwattr $C$DW$139, DW_AT_decl_file("C:/TI_CodeComposer/TivaWare/sensorlib/i2cm_drv.h")
    1432                            .dwattr $C$DW$139, DW_AT_decl_line(0x6a)
    1433                            .dwattr $C$DW$139, DW_AT_decl_column(0x0e)
    1434                    
    1435                    $C$DW$140       .dwtag  DW_TAG_member
    1436                            .dwattr $C$DW$140, DW_AT_type(*$C$DW$T$28)
    1437                            .dwattr $C$DW$140, DW_AT_name("pfnCallback")
    1438                            .dwattr $C$DW$140, DW_AT_TI_symbol_name("pfnCallback")
    1439                            .dwattr $C$DW$140, DW_AT_data_member_location[DW_OP_plus_uconst 0x14]
    1440                            .dwattr $C$DW$140, DW_AT_accessibility(DW_ACCESS_public)
    1441                            .dwattr $C$DW$140, DW_AT_decl_file("C:/TI_CodeComposer/TivaWare/sensorlib/i2cm_drv.h")
    1442                            .dwattr $C$DW$140, DW_AT_decl_line(0x6f)
    1443                            .dwattr $C$DW$140, DW_AT_decl_column(0x16)
    1444                    
    1445                    $C$DW$141       .dwtag  DW_TAG_member
    1446                            .dwattr $C$DW$141, DW_AT_type(*$C$DW$T$3)
    1447                            .dwattr $C$DW$141, DW_AT_name("pvCallbackData")
    1448                            .dwattr $C$DW$141, DW_AT_TI_symbol_name("pvCallbackData")
    1449                            .dwattr $C$DW$141, DW_AT_data_member_location[DW_OP_plus_uconst 0x18]
    1450                            .dwattr $C$DW$141, DW_AT_accessibility(DW_ACCESS_public)
    1451                            .dwattr $C$DW$141, DW_AT_decl_file("C:/TI_CodeComposer/TivaWare/sensorlib/i2cm_drv.h")
    1452                            .dwattr $C$DW$141, DW_AT_decl_line(0x74)
    1453                            .dwattr $C$DW$141, DW_AT_decl_column(0x0b)
    1454                    
    1455                            .dwattr $C$DW$T$29, DW_AT_decl_file("C:/TI_CodeComposer/TivaWare/sensorlib/i2cm_drv.h")
    1456                            .dwattr $C$DW$T$29, DW_AT_decl_line(0x48)
    1457                            .dwattr $C$DW$T$29, DW_AT_decl_column(0x01)
    1458                            .dwendtag $C$DW$T$29
    1459                    
    1460                    $C$DW$T$30      .dwtag  DW_TAG_typedef
    1461                            .dwattr $C$DW$T$30, DW_AT_name("tI2CMCommand")
    1462                            .dwattr $C$DW$T$30, DW_AT_type(*$C$DW$T$29)
    1463                            .dwattr $C$DW$T$30, DW_AT_language(DW_LANG_C)
    1464                            .dwattr $C$DW$T$30, DW_AT_decl_file("C:/TI_CodeComposer/TivaWare/sensorlib/i2cm_drv.h")
    1465                            .dwattr $C$DW$T$30, DW_AT_decl_line(0x76)
    1466                            .dwattr $C$DW$T$30, DW_AT_decl_column(0x01)
    1467                    
    1468                    
    1469                    $C$DW$T$31      .dwtag  DW_TAG_array_type
    1470                            .dwattr $C$DW$T$31, DW_AT_type(*$C$DW$T$30)
    1471                            .dwattr $C$DW$T$31, DW_AT_language(DW_LANG_C)
    1472                            .dwattr $C$DW$T$31, DW_AT_byte_size(0x118)
    1473                    $C$DW$142       .dwtag  DW_TAG_subrange_type
    1474                            .dwattr $C$DW$142, DW_AT_upper_bound(0x09)
    1475                    
    1476                            .dwendtag $C$DW$T$31
    1477                    
    1478                    
    1479                    $C$DW$T$32      .dwtag  DW_TAG_structure_type
    1480                            .dwattr $C$DW$T$32, DW_AT_byte_size(0x124)
    1481                    $C$DW$143       .dwtag  DW_TAG_member
    1482                            .dwattr $C$DW$143, DW_AT_type(*$C$DW$T$24)
    1483                            .dwattr $C$DW$143, DW_AT_name("ui32Base")
    1484                            .dwattr $C$DW$143, DW_AT_TI_symbol_name("ui32Base")
    1485                            .dwattr $C$DW$143, DW_AT_data_member_location[DW_OP_plus_uconst 0x0]
TI ARM Assembler PC v15.12.1 Tue Nov 01 13:44:09 2016

Tools Copyright (c) 1996-2015 Texas Instruments Incorporated
AccelTest.asm                                                        PAGE   28

    1486                            .dwattr $C$DW$143, DW_AT_accessibility(DW_ACCESS_public)
    1487                            .dwattr $C$DW$143, DW_AT_decl_file("C:/TI_CodeComposer/TivaWare/sensorlib/i2cm_drv.h")
    1488                            .dwattr $C$DW$143, DW_AT_decl_line(0x82)
    1489                            .dwattr $C$DW$143, DW_AT_decl_column(0x0e)
    1490                    
    1491                    $C$DW$144       .dwtag  DW_TAG_member
    1492                            .dwattr $C$DW$144, DW_AT_type(*$C$DW$T$19)
    1493                            .dwattr $C$DW$144, DW_AT_name("ui8Int")
    1494                            .dwattr $C$DW$144, DW_AT_TI_symbol_name("ui8Int")
    1495                            .dwattr $C$DW$144, DW_AT_data_member_location[DW_OP_plus_uconst 0x4]
    1496                            .dwattr $C$DW$144, DW_AT_accessibility(DW_ACCESS_public)
    1497                            .dwattr $C$DW$144, DW_AT_decl_file("C:/TI_CodeComposer/TivaWare/sensorlib/i2cm_drv.h")
    1498                            .dwattr $C$DW$144, DW_AT_decl_line(0x87)
    1499                            .dwattr $C$DW$144, DW_AT_decl_column(0x0d)
    1500                    
    1501                    $C$DW$145       .dwtag  DW_TAG_member
    1502                            .dwattr $C$DW$145, DW_AT_type(*$C$DW$T$19)
    1503                            .dwattr $C$DW$145, DW_AT_name("ui8TxDMA")
    1504                            .dwattr $C$DW$145, DW_AT_TI_symbol_name("ui8TxDMA")
    1505                            .dwattr $C$DW$145, DW_AT_data_member_location[DW_OP_plus_uconst 0x5]
    1506                            .dwattr $C$DW$145, DW_AT_accessibility(DW_ACCESS_public)
    1507                            .dwattr $C$DW$145, DW_AT_decl_file("C:/TI_CodeComposer/TivaWare/sensorlib/i2cm_drv.h")
    1508                            .dwattr $C$DW$145, DW_AT_decl_line(0x8c)
    1509                            .dwattr $C$DW$145, DW_AT_decl_column(0x0d)
    1510                    
    1511                    $C$DW$146       .dwtag  DW_TAG_member
    1512                            .dwattr $C$DW$146, DW_AT_type(*$C$DW$T$19)
    1513                            .dwattr $C$DW$146, DW_AT_name("ui8RxDMA")
    1514                            .dwattr $C$DW$146, DW_AT_TI_symbol_name("ui8RxDMA")
    1515                            .dwattr $C$DW$146, DW_AT_data_member_location[DW_OP_plus_uconst 0x6]
    1516                            .dwattr $C$DW$146, DW_AT_accessibility(DW_ACCESS_public)
    1517                            .dwattr $C$DW$146, DW_AT_decl_file("C:/TI_CodeComposer/TivaWare/sensorlib/i2cm_drv.h")
    1518                            .dwattr $C$DW$146, DW_AT_decl_line(0x91)
    1519                            .dwattr $C$DW$146, DW_AT_decl_column(0x0d)
    1520                    
    1521                    $C$DW$147       .dwtag  DW_TAG_member
    1522                            .dwattr $C$DW$147, DW_AT_type(*$C$DW$T$19)
    1523                            .dwattr $C$DW$147, DW_AT_name("ui8State")
    1524                            .dwattr $C$DW$147, DW_AT_TI_symbol_name("ui8State")
    1525                            .dwattr $C$DW$147, DW_AT_data_member_location[DW_OP_plus_uconst 0x7]
    1526                            .dwattr $C$DW$147, DW_AT_accessibility(DW_ACCESS_public)
    1527                            .dwattr $C$DW$147, DW_AT_decl_file("C:/TI_CodeComposer/TivaWare/sensorlib/i2cm_drv.h")
    1528                            .dwattr $C$DW$147, DW_AT_decl_line(0x96)
    1529                            .dwattr $C$DW$147, DW_AT_decl_column(0x0d)
    1530                    
    1531                    $C$DW$148       .dwtag  DW_TAG_member
    1532                            .dwattr $C$DW$148, DW_AT_type(*$C$DW$T$19)
    1533                            .dwattr $C$DW$148, DW_AT_name("ui8ReadPtr")
    1534                            .dwattr $C$DW$148, DW_AT_TI_symbol_name("ui8ReadPtr")
    1535                            .dwattr $C$DW$148, DW_AT_data_member_location[DW_OP_plus_uconst 0x8]
    1536                            .dwattr $C$DW$148, DW_AT_accessibility(DW_ACCESS_public)
    1537                            .dwattr $C$DW$148, DW_AT_decl_file("C:/TI_CodeComposer/TivaWare/sensorlib/i2cm_drv.h")
    1538                            .dwattr $C$DW$148, DW_AT_decl_line(0x9c)
    1539                            .dwattr $C$DW$148, DW_AT_decl_column(0x0d)
    1540                    
TI ARM Assembler PC v15.12.1 Tue Nov 01 13:44:09 2016

Tools Copyright (c) 1996-2015 Texas Instruments Incorporated
AccelTest.asm                                                        PAGE   29

    1541                    $C$DW$149       .dwtag  DW_TAG_member
    1542                            .dwattr $C$DW$149, DW_AT_type(*$C$DW$T$19)
    1543                            .dwattr $C$DW$149, DW_AT_name("ui8WritePtr")
    1544                            .dwattr $C$DW$149, DW_AT_TI_symbol_name("ui8WritePtr")
    1545                            .dwattr $C$DW$149, DW_AT_data_member_location[DW_OP_plus_uconst 0x9]
    1546                            .dwattr $C$DW$149, DW_AT_accessibility(DW_ACCESS_public)
    1547                            .dwattr $C$DW$149, DW_AT_decl_file("C:/TI_CodeComposer/TivaWare/sensorlib/i2cm_drv.h")
    1548                            .dwattr $C$DW$149, DW_AT_decl_line(0xa2)
    1549                            .dwattr $C$DW$149, DW_AT_decl_column(0x0d)
    1550                    
    1551                    $C$DW$150       .dwtag  DW_TAG_member
    1552                            .dwattr $C$DW$150, DW_AT_type(*$C$DW$T$22)
    1553                            .dwattr $C$DW$150, DW_AT_name("ui16Index")
    1554                            .dwattr $C$DW$150, DW_AT_TI_symbol_name("ui16Index")
    1555                            .dwattr $C$DW$150, DW_AT_data_member_location[DW_OP_plus_uconst 0xa]
    1556                            .dwattr $C$DW$150, DW_AT_accessibility(DW_ACCESS_public)
    1557                            .dwattr $C$DW$150, DW_AT_decl_file("C:/TI_CodeComposer/TivaWare/sensorlib/i2cm_drv.h")
    1558                            .dwattr $C$DW$150, DW_AT_decl_line(0xa7)
    1559                            .dwattr $C$DW$150, DW_AT_decl_column(0x0e)
    1560                    
    1561                    $C$DW$151       .dwtag  DW_TAG_member
    1562                            .dwattr $C$DW$151, DW_AT_type(*$C$DW$T$31)
    1563                            .dwattr $C$DW$151, DW_AT_name("pCommands")
    1564                            .dwattr $C$DW$151, DW_AT_TI_symbol_name("pCommands")
    1565                            .dwattr $C$DW$151, DW_AT_data_member_location[DW_OP_plus_uconst 0xc]
    1566                            .dwattr $C$DW$151, DW_AT_accessibility(DW_ACCESS_public)
    1567                            .dwattr $C$DW$151, DW_AT_decl_file("C:/TI_CodeComposer/TivaWare/sensorlib/i2cm_drv.h")
    1568                            .dwattr $C$DW$151, DW_AT_decl_line(0xac)
    1569                            .dwattr $C$DW$151, DW_AT_decl_column(0x12)
    1570                    
    1571                            .dwattr $C$DW$T$32, DW_AT_decl_file("C:/TI_CodeComposer/TivaWare/sensorlib/i2cm_drv.h")
    1572                            .dwattr $C$DW$T$32, DW_AT_decl_line(0x7e)
    1573                            .dwattr $C$DW$T$32, DW_AT_decl_column(0x01)
    1574                            .dwendtag $C$DW$T$32
    1575                    
    1576                    $C$DW$T$33      .dwtag  DW_TAG_typedef
    1577                            .dwattr $C$DW$T$33, DW_AT_name("tI2CMInstance")
    1578                            .dwattr $C$DW$T$33, DW_AT_type(*$C$DW$T$32)
    1579                            .dwattr $C$DW$T$33, DW_AT_language(DW_LANG_C)
    1580                            .dwattr $C$DW$T$33, DW_AT_decl_file("C:/TI_CodeComposer/TivaWare/sensorlib/i2cm_drv.h")
    1581                            .dwattr $C$DW$T$33, DW_AT_decl_line(0xae)
    1582                            .dwattr $C$DW$T$33, DW_AT_decl_column(0x01)
    1583                    
    1584                    $C$DW$T$34      .dwtag  DW_TAG_pointer_type
    1585                            .dwattr $C$DW$T$34, DW_AT_type(*$C$DW$T$33)
    1586                            .dwattr $C$DW$T$34, DW_AT_address_class(0x20)
    1587                    
    1588                    
    1589                    $C$DW$T$36      .dwtag  DW_TAG_structure_type
    1590                            .dwattr $C$DW$T$36, DW_AT_byte_size(0x18)
    1591                    $C$DW$152       .dwtag  DW_TAG_member
    1592                            .dwattr $C$DW$152, DW_AT_type(*$C$DW$T$34)
    1593                            .dwattr $C$DW$152, DW_AT_name("psI2CInst")
    1594                            .dwattr $C$DW$152, DW_AT_TI_symbol_name("psI2CInst")
    1595                            .dwattr $C$DW$152, DW_AT_data_member_location[DW_OP_plus_uconst 0x0]
TI ARM Assembler PC v15.12.1 Tue Nov 01 13:44:09 2016

Tools Copyright (c) 1996-2015 Texas Instruments Incorporated
AccelTest.asm                                                        PAGE   30

    1596                            .dwattr $C$DW$152, DW_AT_accessibility(DW_ACCESS_public)
    1597                            .dwattr $C$DW$152, DW_AT_decl_file("C:/TI_CodeComposer/TivaWare/sensorlib/i2cm_drv.h")
    1598                            .dwattr $C$DW$152, DW_AT_decl_line(0xf0)
    1599                            .dwattr $C$DW$152, DW_AT_decl_column(0x14)
    1600                    
    1601                    $C$DW$153       .dwtag  DW_TAG_member
    1602                            .dwattr $C$DW$153, DW_AT_type(*$C$DW$T$35)
    1603                            .dwattr $C$DW$153, DW_AT_name("pui8Buffer")
    1604                            .dwattr $C$DW$153, DW_AT_TI_symbol_name("pui8Buffer")
    1605                            .dwattr $C$DW$153, DW_AT_data_member_location[DW_OP_plus_uconst 0x4]
    1606                            .dwattr $C$DW$153, DW_AT_accessibility(DW_ACCESS_public)
    1607                            .dwattr $C$DW$153, DW_AT_decl_file("C:/TI_CodeComposer/TivaWare/sensorlib/i2cm_drv.h")
    1608                            .dwattr $C$DW$153, DW_AT_decl_line(0xf5)
    1609                            .dwattr $C$DW$153, DW_AT_decl_column(0x0d)
    1610                    
    1611                    $C$DW$154       .dwtag  DW_TAG_member
    1612                            .dwattr $C$DW$154, DW_AT_type(*$C$DW$T$19)
    1613                            .dwattr $C$DW$154, DW_AT_name("ui8State")
    1614                            .dwattr $C$DW$154, DW_AT_TI_symbol_name("ui8State")
    1615                            .dwattr $C$DW$154, DW_AT_data_member_location[DW_OP_plus_uconst 0x8]
    1616                            .dwattr $C$DW$154, DW_AT_accessibility(DW_ACCESS_public)
    1617                            .dwattr $C$DW$154, DW_AT_decl_file("C:/TI_CodeComposer/TivaWare/sensorlib/i2cm_drv.h")
    1618                            .dwattr $C$DW$154, DW_AT_decl_line(0xfa)
    1619                            .dwattr $C$DW$154, DW_AT_decl_column(0x0d)
    1620                    
    1621                    $C$DW$155       .dwtag  DW_TAG_member
    1622                            .dwattr $C$DW$155, DW_AT_type(*$C$DW$T$19)
    1623                            .dwattr $C$DW$155, DW_AT_name("ui8Addr")
    1624                            .dwattr $C$DW$155, DW_AT_TI_symbol_name("ui8Addr")
    1625                            .dwattr $C$DW$155, DW_AT_data_member_location[DW_OP_plus_uconst 0x9]
    1626                            .dwattr $C$DW$155, DW_AT_accessibility(DW_ACCESS_public)
    1627                            .dwattr $C$DW$155, DW_AT_decl_file("C:/TI_CodeComposer/TivaWare/sensorlib/i2cm_drv.h")
    1628                            .dwattr $C$DW$155, DW_AT_decl_line(0xff)
    1629                            .dwattr $C$DW$155, DW_AT_decl_column(0x0d)
    1630                    
    1631                    $C$DW$156       .dwtag  DW_TAG_member
    1632                            .dwattr $C$DW$156, DW_AT_type(*$C$DW$T$22)
    1633                            .dwattr $C$DW$156, DW_AT_name("ui16Mask")
    1634                            .dwattr $C$DW$156, DW_AT_TI_symbol_name("ui16Mask")
    1635                            .dwattr $C$DW$156, DW_AT_data_member_location[DW_OP_plus_uconst 0xa]
    1636                            .dwattr $C$DW$156, DW_AT_accessibility(DW_ACCESS_public)
    1637                            .dwattr $C$DW$156, DW_AT_decl_file("C:/TI_CodeComposer/TivaWare/sensorlib/i2cm_drv.h")
    1638                            .dwattr $C$DW$156, DW_AT_decl_line(0x104)
    1639                            .dwattr $C$DW$156, DW_AT_decl_column(0x0e)
    1640                    
    1641                    $C$DW$157       .dwtag  DW_TAG_member
    1642                            .dwattr $C$DW$157, DW_AT_type(*$C$DW$T$22)
    1643                            .dwattr $C$DW$157, DW_AT_name("ui16Value")
    1644                            .dwattr $C$DW$157, DW_AT_TI_symbol_name("ui16Value")
    1645                            .dwattr $C$DW$157, DW_AT_data_member_location[DW_OP_plus_uconst 0xc]
    1646                            .dwattr $C$DW$157, DW_AT_accessibility(DW_ACCESS_public)
    1647                            .dwattr $C$DW$157, DW_AT_decl_file("C:/TI_CodeComposer/TivaWare/sensorlib/i2cm_drv.h")
    1648                            .dwattr $C$DW$157, DW_AT_decl_line(0x109)
    1649                            .dwattr $C$DW$157, DW_AT_decl_column(0x0e)
    1650                    
TI ARM Assembler PC v15.12.1 Tue Nov 01 13:44:09 2016

Tools Copyright (c) 1996-2015 Texas Instruments Incorporated
AccelTest.asm                                                        PAGE   31

    1651                    $C$DW$158       .dwtag  DW_TAG_member
    1652                            .dwattr $C$DW$158, DW_AT_type(*$C$DW$T$28)
    1653                            .dwattr $C$DW$158, DW_AT_name("pfnCallback")
    1654                            .dwattr $C$DW$158, DW_AT_TI_symbol_name("pfnCallback")
    1655                            .dwattr $C$DW$158, DW_AT_data_member_location[DW_OP_plus_uconst 0x10]
    1656                            .dwattr $C$DW$158, DW_AT_accessibility(DW_ACCESS_public)
    1657                            .dwattr $C$DW$158, DW_AT_decl_file("C:/TI_CodeComposer/TivaWare/sensorlib/i2cm_drv.h")
    1658                            .dwattr $C$DW$158, DW_AT_decl_line(0x10f)
    1659                            .dwattr $C$DW$158, DW_AT_decl_column(0x16)
    1660                    
    1661                    $C$DW$159       .dwtag  DW_TAG_member
    1662                            .dwattr $C$DW$159, DW_AT_type(*$C$DW$T$3)
    1663                            .dwattr $C$DW$159, DW_AT_name("pvCallbackData")
    1664                            .dwattr $C$DW$159, DW_AT_TI_symbol_name("pvCallbackData")
    1665                            .dwattr $C$DW$159, DW_AT_data_member_location[DW_OP_plus_uconst 0x14]
    1666                            .dwattr $C$DW$159, DW_AT_accessibility(DW_ACCESS_public)
    1667                            .dwattr $C$DW$159, DW_AT_decl_file("C:/TI_CodeComposer/TivaWare/sensorlib/i2cm_drv.h")
    1668                            .dwattr $C$DW$159, DW_AT_decl_line(0x114)
    1669                            .dwattr $C$DW$159, DW_AT_decl_column(0x0b)
    1670                    
    1671                            .dwattr $C$DW$T$36, DW_AT_decl_file("C:/TI_CodeComposer/TivaWare/sensorlib/i2cm_drv.h")
    1672                            .dwattr $C$DW$T$36, DW_AT_decl_line(0xeb)
    1673                            .dwattr $C$DW$T$36, DW_AT_decl_column(0x01)
    1674                            .dwendtag $C$DW$T$36
    1675                    
    1676                    $C$DW$T$94      .dwtag  DW_TAG_typedef
    1677                            .dwattr $C$DW$T$94, DW_AT_name("tI2CMReadModifyWrite16")
    1678                            .dwattr $C$DW$T$94, DW_AT_type(*$C$DW$T$36)
    1679                            .dwattr $C$DW$T$94, DW_AT_language(DW_LANG_C)
    1680                            .dwattr $C$DW$T$94, DW_AT_decl_file("C:/TI_CodeComposer/TivaWare/sensorlib/i2cm_drv.h")
    1681                            .dwattr $C$DW$T$94, DW_AT_decl_line(0x116)
    1682                            .dwattr $C$DW$T$94, DW_AT_decl_column(0x01)
    1683                    
    1684                    $C$DW$T$95      .dwtag  DW_TAG_pointer_type
    1685                            .dwattr $C$DW$T$95, DW_AT_type(*$C$DW$T$94)
    1686                            .dwattr $C$DW$T$95, DW_AT_address_class(0x20)
    1687                    
    1688                    
    1689                    $C$DW$T$38      .dwtag  DW_TAG_structure_type
    1690                            .dwattr $C$DW$T$38, DW_AT_byte_size(0x14)
    1691                    $C$DW$160       .dwtag  DW_TAG_member
    1692                            .dwattr $C$DW$160, DW_AT_type(*$C$DW$T$34)
    1693                            .dwattr $C$DW$160, DW_AT_name("psI2CInst")
    1694                            .dwattr $C$DW$160, DW_AT_TI_symbol_name("psI2CInst")
    1695                            .dwattr $C$DW$160, DW_AT_data_member_location[DW_OP_plus_uconst 0x0]
    1696                            .dwattr $C$DW$160, DW_AT_accessibility(DW_ACCESS_public)
    1697                            .dwattr $C$DW$160, DW_AT_decl_file("C:/TI_CodeComposer/TivaWare/sensorlib/i2cm_drv.h")
    1698                            .dwattr $C$DW$160, DW_AT_decl_line(0x123)
    1699                            .dwattr $C$DW$160, DW_AT_decl_column(0x14)
    1700                    
    1701                    $C$DW$161       .dwtag  DW_TAG_member
    1702                            .dwattr $C$DW$161, DW_AT_type(*$C$DW$T$37)
    1703                            .dwattr $C$DW$161, DW_AT_name("pui8Buffer")
    1704                            .dwattr $C$DW$161, DW_AT_TI_symbol_name("pui8Buffer")
    1705                            .dwattr $C$DW$161, DW_AT_data_member_location[DW_OP_plus_uconst 0x4]
TI ARM Assembler PC v15.12.1 Tue Nov 01 13:44:09 2016

Tools Copyright (c) 1996-2015 Texas Instruments Incorporated
AccelTest.asm                                                        PAGE   32

    1706                            .dwattr $C$DW$161, DW_AT_accessibility(DW_ACCESS_public)
    1707                            .dwattr $C$DW$161, DW_AT_decl_file("C:/TI_CodeComposer/TivaWare/sensorlib/i2cm_drv.h")
    1708                            .dwattr $C$DW$161, DW_AT_decl_line(0x128)
    1709                            .dwattr $C$DW$161, DW_AT_decl_column(0x0d)
    1710                    
    1711                    $C$DW$162       .dwtag  DW_TAG_member
    1712                            .dwattr $C$DW$162, DW_AT_type(*$C$DW$T$22)
    1713                            .dwattr $C$DW$162, DW_AT_name("ui16Count")
    1714                            .dwattr $C$DW$162, DW_AT_TI_symbol_name("ui16Count")
    1715                            .dwattr $C$DW$162, DW_AT_data_member_location[DW_OP_plus_uconst 0x6]
    1716                            .dwattr $C$DW$162, DW_AT_accessibility(DW_ACCESS_public)
    1717                            .dwattr $C$DW$162, DW_AT_decl_file("C:/TI_CodeComposer/TivaWare/sensorlib/i2cm_drv.h")
    1718                            .dwattr $C$DW$162, DW_AT_decl_line(0x12d)
    1719                            .dwattr $C$DW$162, DW_AT_decl_column(0x0e)
    1720                    
    1721                    $C$DW$163       .dwtag  DW_TAG_member
    1722                            .dwattr $C$DW$163, DW_AT_type(*$C$DW$T$21)
    1723                            .dwattr $C$DW$163, DW_AT_name("pui8Data")
    1724                            .dwattr $C$DW$163, DW_AT_TI_symbol_name("pui8Data")
    1725                            .dwattr $C$DW$163, DW_AT_data_member_location[DW_OP_plus_uconst 0x8]
    1726                            .dwattr $C$DW$163, DW_AT_accessibility(DW_ACCESS_public)
    1727                            .dwattr $C$DW$163, DW_AT_decl_file("C:/TI_CodeComposer/TivaWare/sensorlib/i2cm_drv.h")
    1728                            .dwattr $C$DW$163, DW_AT_decl_line(0x132)
    1729                            .dwattr $C$DW$163, DW_AT_decl_column(0x14)
    1730                    
    1731                    $C$DW$164       .dwtag  DW_TAG_member
    1732                            .dwattr $C$DW$164, DW_AT_type(*$C$DW$T$28)
    1733                            .dwattr $C$DW$164, DW_AT_name("pfnCallback")
    1734                            .dwattr $C$DW$164, DW_AT_TI_symbol_name("pfnCallback")
    1735                            .dwattr $C$DW$164, DW_AT_data_member_location[DW_OP_plus_uconst 0xc]
    1736                            .dwattr $C$DW$164, DW_AT_accessibility(DW_ACCESS_public)
    1737                            .dwattr $C$DW$164, DW_AT_decl_file("C:/TI_CodeComposer/TivaWare/sensorlib/i2cm_drv.h")
    1738                            .dwattr $C$DW$164, DW_AT_decl_line(0x137)
    1739                            .dwattr $C$DW$164, DW_AT_decl_column(0x16)
    1740                    
    1741                    $C$DW$165       .dwtag  DW_TAG_member
    1742                            .dwattr $C$DW$165, DW_AT_type(*$C$DW$T$3)
    1743                            .dwattr $C$DW$165, DW_AT_name("pvCallbackData")
    1744                            .dwattr $C$DW$165, DW_AT_TI_symbol_name("pvCallbackData")
    1745                            .dwattr $C$DW$165, DW_AT_data_member_location[DW_OP_plus_uconst 0x10]
    1746                            .dwattr $C$DW$165, DW_AT_accessibility(DW_ACCESS_public)
    1747                            .dwattr $C$DW$165, DW_AT_decl_file("C:/TI_CodeComposer/TivaWare/sensorlib/i2cm_drv.h")
    1748                            .dwattr $C$DW$165, DW_AT_decl_line(0x13c)
    1749                            .dwattr $C$DW$165, DW_AT_decl_column(0x0b)
    1750                    
    1751                            .dwattr $C$DW$T$38, DW_AT_decl_file("C:/TI_CodeComposer/TivaWare/sensorlib/i2cm_drv.h")
    1752                            .dwattr $C$DW$T$38, DW_AT_decl_line(0x11e)
    1753                            .dwattr $C$DW$T$38, DW_AT_decl_column(0x01)
    1754                            .dwendtag $C$DW$T$38
    1755                    
    1756                    $C$DW$T$52      .dwtag  DW_TAG_typedef
    1757                            .dwattr $C$DW$T$52, DW_AT_name("tI2CMWrite8")
    1758                            .dwattr $C$DW$T$52, DW_AT_type(*$C$DW$T$38)
    1759                            .dwattr $C$DW$T$52, DW_AT_language(DW_LANG_C)
    1760                            .dwattr $C$DW$T$52, DW_AT_decl_file("C:/TI_CodeComposer/TivaWare/sensorlib/i2cm_drv.h")
TI ARM Assembler PC v15.12.1 Tue Nov 01 13:44:09 2016

Tools Copyright (c) 1996-2015 Texas Instruments Incorporated
AccelTest.asm                                                        PAGE   33

    1761                            .dwattr $C$DW$T$52, DW_AT_decl_line(0x13e)
    1762                            .dwattr $C$DW$T$52, DW_AT_decl_column(0x01)
    1763                    
    1764                    
    1765                    $C$DW$T$39      .dwtag  DW_TAG_structure_type
    1766                            .dwattr $C$DW$T$39, DW_AT_byte_size(0x14)
    1767                    $C$DW$166       .dwtag  DW_TAG_member
    1768                            .dwattr $C$DW$166, DW_AT_type(*$C$DW$T$34)
    1769                            .dwattr $C$DW$166, DW_AT_name("psI2CInst")
    1770                            .dwattr $C$DW$166, DW_AT_TI_symbol_name("psI2CInst")
    1771                            .dwattr $C$DW$166, DW_AT_data_member_location[DW_OP_plus_uconst 0x0]
    1772                            .dwattr $C$DW$166, DW_AT_accessibility(DW_ACCESS_public)
    1773                            .dwattr $C$DW$166, DW_AT_decl_file("C:/TI_CodeComposer/TivaWare/sensorlib/i2cm_drv.h")
    1774                            .dwattr $C$DW$166, DW_AT_decl_line(0xbc)
    1775                            .dwattr $C$DW$166, DW_AT_decl_column(0x14)
    1776                    
    1777                    $C$DW$167       .dwtag  DW_TAG_member
    1778                            .dwattr $C$DW$167, DW_AT_type(*$C$DW$T$35)
    1779                            .dwattr $C$DW$167, DW_AT_name("pui8Buffer")
    1780                            .dwattr $C$DW$167, DW_AT_TI_symbol_name("pui8Buffer")
    1781                            .dwattr $C$DW$167, DW_AT_data_member_location[DW_OP_plus_uconst 0x4]
    1782                            .dwattr $C$DW$167, DW_AT_accessibility(DW_ACCESS_public)
    1783                            .dwattr $C$DW$167, DW_AT_decl_file("C:/TI_CodeComposer/TivaWare/sensorlib/i2cm_drv.h")
    1784                            .dwattr $C$DW$167, DW_AT_decl_line(0xc1)
    1785                            .dwattr $C$DW$167, DW_AT_decl_column(0x0d)
    1786                    
    1787                    $C$DW$168       .dwtag  DW_TAG_member
    1788                            .dwattr $C$DW$168, DW_AT_type(*$C$DW$T$19)
    1789                            .dwattr $C$DW$168, DW_AT_name("ui8State")
    1790                            .dwattr $C$DW$168, DW_AT_TI_symbol_name("ui8State")
    1791                            .dwattr $C$DW$168, DW_AT_data_member_location[DW_OP_plus_uconst 0x8]
    1792                            .dwattr $C$DW$168, DW_AT_accessibility(DW_ACCESS_public)
    1793                            .dwattr $C$DW$168, DW_AT_decl_file("C:/TI_CodeComposer/TivaWare/sensorlib/i2cm_drv.h")
    1794                            .dwattr $C$DW$168, DW_AT_decl_line(0xc6)
    1795                            .dwattr $C$DW$168, DW_AT_decl_column(0x0d)
    1796                    
    1797                    $C$DW$169       .dwtag  DW_TAG_member
    1798                            .dwattr $C$DW$169, DW_AT_type(*$C$DW$T$19)
    1799                            .dwattr $C$DW$169, DW_AT_name("ui8Addr")
    1800                            .dwattr $C$DW$169, DW_AT_TI_symbol_name("ui8Addr")
    1801                            .dwattr $C$DW$169, DW_AT_data_member_location[DW_OP_plus_uconst 0x9]
    1802                            .dwattr $C$DW$169, DW_AT_accessibility(DW_ACCESS_public)
    1803                            .dwattr $C$DW$169, DW_AT_decl_file("C:/TI_CodeComposer/TivaWare/sensorlib/i2cm_drv.h")
    1804                            .dwattr $C$DW$169, DW_AT_decl_line(0xcb)
    1805                            .dwattr $C$DW$169, DW_AT_decl_column(0x0d)
    1806                    
    1807                    $C$DW$170       .dwtag  DW_TAG_member
    1808                            .dwattr $C$DW$170, DW_AT_type(*$C$DW$T$19)
    1809                            .dwattr $C$DW$170, DW_AT_name("ui8Mask")
    1810                            .dwattr $C$DW$170, DW_AT_TI_symbol_name("ui8Mask")
    1811                            .dwattr $C$DW$170, DW_AT_data_member_location[DW_OP_plus_uconst 0xa]
    1812                            .dwattr $C$DW$170, DW_AT_accessibility(DW_ACCESS_public)
    1813                            .dwattr $C$DW$170, DW_AT_decl_file("C:/TI_CodeComposer/TivaWare/sensorlib/i2cm_drv.h")
    1814                            .dwattr $C$DW$170, DW_AT_decl_line(0xd0)
    1815                            .dwattr $C$DW$170, DW_AT_decl_column(0x0d)
TI ARM Assembler PC v15.12.1 Tue Nov 01 13:44:09 2016

Tools Copyright (c) 1996-2015 Texas Instruments Incorporated
AccelTest.asm                                                        PAGE   34

    1816                    
    1817                    $C$DW$171       .dwtag  DW_TAG_member
    1818                            .dwattr $C$DW$171, DW_AT_type(*$C$DW$T$19)
    1819                            .dwattr $C$DW$171, DW_AT_name("ui8Value")
    1820                            .dwattr $C$DW$171, DW_AT_TI_symbol_name("ui8Value")
    1821                            .dwattr $C$DW$171, DW_AT_data_member_location[DW_OP_plus_uconst 0xb]
    1822                            .dwattr $C$DW$171, DW_AT_accessibility(DW_ACCESS_public)
    1823                            .dwattr $C$DW$171, DW_AT_decl_file("C:/TI_CodeComposer/TivaWare/sensorlib/i2cm_drv.h")
    1824                            .dwattr $C$DW$171, DW_AT_decl_line(0xd5)
    1825                            .dwattr $C$DW$171, DW_AT_decl_column(0x0d)
    1826                    
    1827                    $C$DW$172       .dwtag  DW_TAG_member
    1828                            .dwattr $C$DW$172, DW_AT_type(*$C$DW$T$28)
    1829                            .dwattr $C$DW$172, DW_AT_name("pfnCallback")
    1830                            .dwattr $C$DW$172, DW_AT_TI_symbol_name("pfnCallback")
    1831                            .dwattr $C$DW$172, DW_AT_data_member_location[DW_OP_plus_uconst 0xc]
    1832                            .dwattr $C$DW$172, DW_AT_accessibility(DW_ACCESS_public)
    1833                            .dwattr $C$DW$172, DW_AT_decl_file("C:/TI_CodeComposer/TivaWare/sensorlib/i2cm_drv.h")
    1834                            .dwattr $C$DW$172, DW_AT_decl_line(0xdb)
    1835                            .dwattr $C$DW$172, DW_AT_decl_column(0x16)
    1836                    
    1837                    $C$DW$173       .dwtag  DW_TAG_member
    1838                            .dwattr $C$DW$173, DW_AT_type(*$C$DW$T$3)
    1839                            .dwattr $C$DW$173, DW_AT_name("pvCallbackData")
    1840                            .dwattr $C$DW$173, DW_AT_TI_symbol_name("pvCallbackData")
    1841                            .dwattr $C$DW$173, DW_AT_data_member_location[DW_OP_plus_uconst 0x10]
    1842                            .dwattr $C$DW$173, DW_AT_accessibility(DW_ACCESS_public)
    1843                            .dwattr $C$DW$173, DW_AT_decl_file("C:/TI_CodeComposer/TivaWare/sensorlib/i2cm_drv.h")
    1844                            .dwattr $C$DW$173, DW_AT_decl_line(0xe0)
    1845                            .dwattr $C$DW$173, DW_AT_decl_column(0x0b)
    1846                    
    1847                            .dwattr $C$DW$T$39, DW_AT_decl_file("C:/TI_CodeComposer/TivaWare/sensorlib/i2cm_drv.h")
    1848                            .dwattr $C$DW$T$39, DW_AT_decl_line(0xb7)
    1849                            .dwattr $C$DW$T$39, DW_AT_decl_column(0x01)
    1850                            .dwendtag $C$DW$T$39
    1851                    
    1852                    $C$DW$T$53      .dwtag  DW_TAG_typedef
    1853                            .dwattr $C$DW$T$53, DW_AT_name("tI2CMReadModifyWrite8")
    1854                            .dwattr $C$DW$T$53, DW_AT_type(*$C$DW$T$39)
    1855                            .dwattr $C$DW$T$53, DW_AT_language(DW_LANG_C)
    1856                            .dwattr $C$DW$T$53, DW_AT_decl_file("C:/TI_CodeComposer/TivaWare/sensorlib/i2cm_drv.h")
    1857                            .dwattr $C$DW$T$53, DW_AT_decl_line(0xe2)
    1858                            .dwattr $C$DW$T$53, DW_AT_decl_column(0x01)
    1859                    
    1860                    
    1861                    $C$DW$T$41      .dwtag  DW_TAG_structure_type
    1862                            .dwattr $C$DW$T$41, DW_AT_byte_size(0x2c)
    1863                    $C$DW$174       .dwtag  DW_TAG_member
    1864                            .dwattr $C$DW$174, DW_AT_type(*$C$DW$T$34)
    1865                            .dwattr $C$DW$174, DW_AT_name("psI2CInst")
    1866                            .dwattr $C$DW$174, DW_AT_TI_symbol_name("psI2CInst")
    1867                            .dwattr $C$DW$174, DW_AT_data_member_location[DW_OP_plus_uconst 0x0]
    1868                            .dwattr $C$DW$174, DW_AT_accessibility(DW_ACCESS_public)
    1869                            .dwattr $C$DW$174, DW_AT_decl_file("C:/TI_CodeComposer/TivaWare/sensorlib/ak8975.h")
    1870                            .dwattr $C$DW$174, DW_AT_decl_line(0x32)
TI ARM Assembler PC v15.12.1 Tue Nov 01 13:44:09 2016

Tools Copyright (c) 1996-2015 Texas Instruments Incorporated
AccelTest.asm                                                        PAGE   35

    1871                            .dwattr $C$DW$174, DW_AT_decl_column(0x14)
    1872                    
    1873                    $C$DW$175       .dwtag  DW_TAG_member
    1874                            .dwattr $C$DW$175, DW_AT_type(*$C$DW$T$19)
    1875                            .dwattr $C$DW$175, DW_AT_name("ui8Addr")
    1876                            .dwattr $C$DW$175, DW_AT_TI_symbol_name("ui8Addr")
    1877                            .dwattr $C$DW$175, DW_AT_data_member_location[DW_OP_plus_uconst 0x4]
    1878                            .dwattr $C$DW$175, DW_AT_accessibility(DW_ACCESS_public)
    1879                            .dwattr $C$DW$175, DW_AT_decl_file("C:/TI_CodeComposer/TivaWare/sensorlib/ak8975.h")
    1880                            .dwattr $C$DW$175, DW_AT_decl_line(0x37)
    1881                            .dwattr $C$DW$175, DW_AT_decl_column(0x0d)
    1882                    
    1883                    $C$DW$176       .dwtag  DW_TAG_member
    1884                            .dwattr $C$DW$176, DW_AT_type(*$C$DW$T$19)
    1885                            .dwattr $C$DW$176, DW_AT_name("ui8State")
    1886                            .dwattr $C$DW$176, DW_AT_TI_symbol_name("ui8State")
    1887                            .dwattr $C$DW$176, DW_AT_data_member_location[DW_OP_plus_uconst 0x5]
    1888                            .dwattr $C$DW$176, DW_AT_accessibility(DW_ACCESS_public)
    1889                            .dwattr $C$DW$176, DW_AT_decl_file("C:/TI_CodeComposer/TivaWare/sensorlib/ak8975.h")
    1890                            .dwattr $C$DW$176, DW_AT_decl_line(0x3c)
    1891                            .dwattr $C$DW$176, DW_AT_decl_column(0x0d)
    1892                    
    1893                    $C$DW$177       .dwtag  DW_TAG_member
    1894                            .dwattr $C$DW$177, DW_AT_type(*$C$DW$T$40)
    1895                            .dwattr $C$DW$177, DW_AT_name("pui8Data")
    1896                            .dwattr $C$DW$177, DW_AT_TI_symbol_name("pui8Data")
    1897                            .dwattr $C$DW$177, DW_AT_data_member_location[DW_OP_plus_uconst 0x6]
    1898                            .dwattr $C$DW$177, DW_AT_accessibility(DW_ACCESS_public)
    1899                            .dwattr $C$DW$177, DW_AT_decl_file("C:/TI_CodeComposer/TivaWare/sensorlib/ak8975.h")
    1900                            .dwattr $C$DW$177, DW_AT_decl_line(0x41)
    1901                            .dwattr $C$DW$177, DW_AT_decl_column(0x0d)
    1902                    
    1903                    $C$DW$178       .dwtag  DW_TAG_member
    1904                            .dwattr $C$DW$178, DW_AT_type(*$C$DW$T$28)
    1905                            .dwattr $C$DW$178, DW_AT_name("pfnCallback")
    1906                            .dwattr $C$DW$178, DW_AT_TI_symbol_name("pfnCallback")
    1907                            .dwattr $C$DW$178, DW_AT_data_member_location[DW_OP_plus_uconst 0x10]
    1908                            .dwattr $C$DW$178, DW_AT_accessibility(DW_ACCESS_public)
    1909                            .dwattr $C$DW$178, DW_AT_decl_file("C:/TI_CodeComposer/TivaWare/sensorlib/ak8975.h")
    1910                            .dwattr $C$DW$178, DW_AT_decl_line(0x47)
    1911                            .dwattr $C$DW$178, DW_AT_decl_column(0x16)
    1912                    
    1913                    $C$DW$179       .dwtag  DW_TAG_member
    1914                            .dwattr $C$DW$179, DW_AT_type(*$C$DW$T$3)
    1915                            .dwattr $C$DW$179, DW_AT_name("pvCallbackData")
    1916                            .dwattr $C$DW$179, DW_AT_TI_symbol_name("pvCallbackData")
    1917                            .dwattr $C$DW$179, DW_AT_data_member_location[DW_OP_plus_uconst 0x14]
    1918                            .dwattr $C$DW$179, DW_AT_accessibility(DW_ACCESS_public)
    1919                            .dwattr $C$DW$179, DW_AT_decl_file("C:/TI_CodeComposer/TivaWare/sensorlib/ak8975.h")
    1920                            .dwattr $C$DW$179, DW_AT_decl_line(0x4c)
    1921                            .dwattr $C$DW$179, DW_AT_decl_column(0x0b)
    1922                    
    1923                    $C$DW$180       .dwtag  DW_TAG_member
    1924                            .dwattr $C$DW$180, DW_AT_type(*$C$DW$T$54)
    1925                            .dwattr $C$DW$180, DW_AT_name("uCommand")
TI ARM Assembler PC v15.12.1 Tue Nov 01 13:44:09 2016

Tools Copyright (c) 1996-2015 Texas Instruments Incorporated
AccelTest.asm                                                        PAGE   36

    1926                            .dwattr $C$DW$180, DW_AT_TI_symbol_name("uCommand")
    1927                            .dwattr $C$DW$180, DW_AT_data_member_location[DW_OP_plus_uconst 0x18]
    1928                            .dwattr $C$DW$180, DW_AT_accessibility(DW_ACCESS_public)
    1929                            .dwattr $C$DW$180, DW_AT_decl_file("C:/TI_CodeComposer/TivaWare/sensorlib/ak8975.h")
    1930                            .dwattr $C$DW$180, DW_AT_decl_line(0x64)
    1931                            .dwattr $C$DW$180, DW_AT_decl_column(0x05)
    1932                    
    1933                            .dwattr $C$DW$T$41, DW_AT_decl_file("C:/TI_CodeComposer/TivaWare/sensorlib/ak8975.h")
    1934                            .dwattr $C$DW$T$41, DW_AT_decl_line(0x2d)
    1935                            .dwattr $C$DW$T$41, DW_AT_decl_column(0x01)
    1936                            .dwendtag $C$DW$T$41
    1937                    
    1938                    $C$DW$T$42      .dwtag  DW_TAG_typedef
    1939                            .dwattr $C$DW$T$42, DW_AT_name("tAK8975")
    1940                            .dwattr $C$DW$T$42, DW_AT_type(*$C$DW$T$41)
    1941                            .dwattr $C$DW$T$42, DW_AT_language(DW_LANG_C)
    1942                            .dwattr $C$DW$T$42, DW_AT_decl_file("C:/TI_CodeComposer/TivaWare/sensorlib/ak8975.h")
    1943                            .dwattr $C$DW$T$42, DW_AT_decl_line(0x66)
    1944                            .dwattr $C$DW$T$42, DW_AT_decl_column(0x01)
    1945                    
    1946                    
    1947                    $C$DW$T$44      .dwtag  DW_TAG_structure_type
    1948                            .dwattr $C$DW$T$44, DW_AT_byte_size(0x6c)
    1949                    $C$DW$181       .dwtag  DW_TAG_member
    1950                            .dwattr $C$DW$181, DW_AT_type(*$C$DW$T$34)
    1951                            .dwattr $C$DW$181, DW_AT_name("psI2CInst")
    1952                            .dwattr $C$DW$181, DW_AT_TI_symbol_name("psI2CInst")
    1953                            .dwattr $C$DW$181, DW_AT_data_member_location[DW_OP_plus_uconst 0x0]
    1954                            .dwattr $C$DW$181, DW_AT_accessibility(DW_ACCESS_public)
    1955                            .dwattr $C$DW$181, DW_AT_decl_file("C:/TI_CodeComposer/TivaWare/sensorlib/mpu9150.h")
    1956                            .dwattr $C$DW$181, DW_AT_decl_line(0x33)
    1957                            .dwattr $C$DW$181, DW_AT_decl_column(0x14)
    1958                    
    1959                    $C$DW$182       .dwtag  DW_TAG_member
    1960                            .dwattr $C$DW$182, DW_AT_type(*$C$DW$T$42)
    1961                            .dwattr $C$DW$182, DW_AT_name("sAK8975Inst")
    1962                            .dwattr $C$DW$182, DW_AT_TI_symbol_name("sAK8975Inst")
    1963                            .dwattr $C$DW$182, DW_AT_data_member_location[DW_OP_plus_uconst 0x4]
    1964                            .dwattr $C$DW$182, DW_AT_accessibility(DW_ACCESS_public)
    1965                            .dwattr $C$DW$182, DW_AT_decl_file("C:/TI_CodeComposer/TivaWare/sensorlib/mpu9150.h")
    1966                            .dwattr $C$DW$182, DW_AT_decl_line(0x38)
    1967                            .dwattr $C$DW$182, DW_AT_decl_column(0x0d)
    1968                    
    1969                    $C$DW$183       .dwtag  DW_TAG_member
    1970                            .dwattr $C$DW$183, DW_AT_type(*$C$DW$T$19)
    1971                            .dwattr $C$DW$183, DW_AT_name("ui8Addr")
    1972                            .dwattr $C$DW$183, DW_AT_TI_symbol_name("ui8Addr")
    1973                            .dwattr $C$DW$183, DW_AT_data_member_location[DW_OP_plus_uconst 0x30]
    1974                            .dwattr $C$DW$183, DW_AT_accessibility(DW_ACCESS_public)
    1975                            .dwattr $C$DW$183, DW_AT_decl_file("C:/TI_CodeComposer/TivaWare/sensorlib/mpu9150.h")
    1976                            .dwattr $C$DW$183, DW_AT_decl_line(0x3d)
    1977                            .dwattr $C$DW$183, DW_AT_decl_column(0x0d)
    1978                    
    1979                    $C$DW$184       .dwtag  DW_TAG_member
    1980                            .dwattr $C$DW$184, DW_AT_type(*$C$DW$T$19)
TI ARM Assembler PC v15.12.1 Tue Nov 01 13:44:09 2016

Tools Copyright (c) 1996-2015 Texas Instruments Incorporated
AccelTest.asm                                                        PAGE   37

    1981                            .dwattr $C$DW$184, DW_AT_name("ui8State")
    1982                            .dwattr $C$DW$184, DW_AT_TI_symbol_name("ui8State")
    1983                            .dwattr $C$DW$184, DW_AT_data_member_location[DW_OP_plus_uconst 0x31]
    1984                            .dwattr $C$DW$184, DW_AT_accessibility(DW_ACCESS_public)
    1985                            .dwattr $C$DW$184, DW_AT_decl_file("C:/TI_CodeComposer/TivaWare/sensorlib/mpu9150.h")
    1986                            .dwattr $C$DW$184, DW_AT_decl_line(0x42)
    1987                            .dwattr $C$DW$184, DW_AT_decl_column(0x0d)
    1988                    
    1989                    $C$DW$185       .dwtag  DW_TAG_member
    1990                            .dwattr $C$DW$185, DW_AT_type(*$C$DW$T$19)
    1991                            .dwattr $C$DW$185, DW_AT_name("ui8AccelAfsSel")
    1992                            .dwattr $C$DW$185, DW_AT_TI_symbol_name("ui8AccelAfsSel")
    1993                            .dwattr $C$DW$185, DW_AT_data_member_location[DW_OP_plus_uconst 0x32]
    1994                            .dwattr $C$DW$185, DW_AT_accessibility(DW_ACCESS_public)
    1995                            .dwattr $C$DW$185, DW_AT_decl_file("C:/TI_CodeComposer/TivaWare/sensorlib/mpu9150.h")
    1996                            .dwattr $C$DW$185, DW_AT_decl_line(0x47)
    1997                            .dwattr $C$DW$185, DW_AT_decl_column(0x0d)
    1998                    
    1999                    $C$DW$186       .dwtag  DW_TAG_member
    2000                            .dwattr $C$DW$186, DW_AT_type(*$C$DW$T$19)
    2001                            .dwattr $C$DW$186, DW_AT_name("ui8NewAccelAfsSel")
    2002                            .dwattr $C$DW$186, DW_AT_TI_symbol_name("ui8NewAccelAfsSel")
    2003                            .dwattr $C$DW$186, DW_AT_data_member_location[DW_OP_plus_uconst 0x33]
    2004                            .dwattr $C$DW$186, DW_AT_accessibility(DW_ACCESS_public)
    2005                            .dwattr $C$DW$186, DW_AT_decl_file("C:/TI_CodeComposer/TivaWare/sensorlib/mpu9150.h")
    2006                            .dwattr $C$DW$186, DW_AT_decl_line(0x4d)
    2007                            .dwattr $C$DW$186, DW_AT_decl_column(0x0d)
    2008                    
    2009                    $C$DW$187       .dwtag  DW_TAG_member
    2010                            .dwattr $C$DW$187, DW_AT_type(*$C$DW$T$19)
    2011                            .dwattr $C$DW$187, DW_AT_name("ui8GyroFsSel")
    2012                            .dwattr $C$DW$187, DW_AT_TI_symbol_name("ui8GyroFsSel")
    2013                            .dwattr $C$DW$187, DW_AT_data_member_location[DW_OP_plus_uconst 0x34]
    2014                            .dwattr $C$DW$187, DW_AT_accessibility(DW_ACCESS_public)
    2015                            .dwattr $C$DW$187, DW_AT_decl_file("C:/TI_CodeComposer/TivaWare/sensorlib/mpu9150.h")
    2016                            .dwattr $C$DW$187, DW_AT_decl_line(0x52)
    2017                            .dwattr $C$DW$187, DW_AT_decl_column(0x0d)
    2018                    
    2019                    $C$DW$188       .dwtag  DW_TAG_member
    2020                            .dwattr $C$DW$188, DW_AT_type(*$C$DW$T$19)
    2021                            .dwattr $C$DW$188, DW_AT_name("ui8NewGyroFsSel")
    2022                            .dwattr $C$DW$188, DW_AT_TI_symbol_name("ui8NewGyroFsSel")
    2023                            .dwattr $C$DW$188, DW_AT_data_member_location[DW_OP_plus_uconst 0x35]
    2024                            .dwattr $C$DW$188, DW_AT_accessibility(DW_ACCESS_public)
    2025                            .dwattr $C$DW$188, DW_AT_decl_file("C:/TI_CodeComposer/TivaWare/sensorlib/mpu9150.h")
    2026                            .dwattr $C$DW$188, DW_AT_decl_line(0x58)
    2027                            .dwattr $C$DW$188, DW_AT_decl_column(0x0d)
    2028                    
    2029                    $C$DW$189       .dwtag  DW_TAG_member
    2030                            .dwattr $C$DW$189, DW_AT_type(*$C$DW$T$43)
    2031                            .dwattr $C$DW$189, DW_AT_name("pui8Data")
    2032                            .dwattr $C$DW$189, DW_AT_TI_symbol_name("pui8Data")
    2033                            .dwattr $C$DW$189, DW_AT_data_member_location[DW_OP_plus_uconst 0x36]
    2034                            .dwattr $C$DW$189, DW_AT_accessibility(DW_ACCESS_public)
    2035                            .dwattr $C$DW$189, DW_AT_decl_file("C:/TI_CodeComposer/TivaWare/sensorlib/mpu9150.h")
TI ARM Assembler PC v15.12.1 Tue Nov 01 13:44:09 2016

Tools Copyright (c) 1996-2015 Texas Instruments Incorporated
AccelTest.asm                                                        PAGE   38

    2036                            .dwattr $C$DW$189, DW_AT_decl_line(0x5d)
    2037                            .dwattr $C$DW$189, DW_AT_decl_column(0x0d)
    2038                    
    2039                    $C$DW$190       .dwtag  DW_TAG_member
    2040                            .dwattr $C$DW$190, DW_AT_type(*$C$DW$T$28)
    2041                            .dwattr $C$DW$190, DW_AT_name("pfnCallback")
    2042                            .dwattr $C$DW$190, DW_AT_TI_symbol_name("pfnCallback")
    2043                            .dwattr $C$DW$190, DW_AT_data_member_location[DW_OP_plus_uconst 0x50]
    2044                            .dwattr $C$DW$190, DW_AT_accessibility(DW_ACCESS_public)
    2045                            .dwattr $C$DW$190, DW_AT_decl_file("C:/TI_CodeComposer/TivaWare/sensorlib/mpu9150.h")
    2046                            .dwattr $C$DW$190, DW_AT_decl_line(0x63)
    2047                            .dwattr $C$DW$190, DW_AT_decl_column(0x16)
    2048                    
    2049                    $C$DW$191       .dwtag  DW_TAG_member
    2050                            .dwattr $C$DW$191, DW_AT_type(*$C$DW$T$3)
    2051                            .dwattr $C$DW$191, DW_AT_name("pvCallbackData")
    2052                            .dwattr $C$DW$191, DW_AT_TI_symbol_name("pvCallbackData")
    2053                            .dwattr $C$DW$191, DW_AT_data_member_location[DW_OP_plus_uconst 0x54]
    2054                            .dwattr $C$DW$191, DW_AT_accessibility(DW_ACCESS_public)
    2055                            .dwattr $C$DW$191, DW_AT_decl_file("C:/TI_CodeComposer/TivaWare/sensorlib/mpu9150.h")
    2056                            .dwattr $C$DW$191, DW_AT_decl_line(0x68)
    2057                            .dwattr $C$DW$191, DW_AT_decl_column(0x0b)
    2058                    
    2059                    $C$DW$192       .dwtag  DW_TAG_member
    2060                            .dwattr $C$DW$192, DW_AT_type(*$C$DW$T$56)
    2061                            .dwattr $C$DW$192, DW_AT_name("uCommand")
    2062                            .dwattr $C$DW$192, DW_AT_TI_symbol_name("uCommand")
    2063                            .dwattr $C$DW$192, DW_AT_data_member_location[DW_OP_plus_uconst 0x58]
    2064                            .dwattr $C$DW$192, DW_AT_accessibility(DW_ACCESS_public)
    2065                            .dwattr $C$DW$192, DW_AT_decl_file("C:/TI_CodeComposer/TivaWare/sensorlib/mpu9150.h")
    2066                            .dwattr $C$DW$192, DW_AT_decl_line(0x80)
    2067                            .dwattr $C$DW$192, DW_AT_decl_column(0x05)
    2068                    
    2069                            .dwattr $C$DW$T$44, DW_AT_decl_file("C:/TI_CodeComposer/TivaWare/sensorlib/mpu9150.h")
    2070                            .dwattr $C$DW$T$44, DW_AT_decl_line(0x2e)
    2071                            .dwattr $C$DW$T$44, DW_AT_decl_column(0x01)
    2072                            .dwendtag $C$DW$T$44
    2073                    
    2074                    $C$DW$T$96      .dwtag  DW_TAG_typedef
    2075                            .dwattr $C$DW$T$96, DW_AT_name("tMPU9150")
    2076                            .dwattr $C$DW$T$96, DW_AT_type(*$C$DW$T$44)
    2077                            .dwattr $C$DW$T$96, DW_AT_language(DW_LANG_C)
    2078                            .dwattr $C$DW$T$96, DW_AT_decl_file("C:/TI_CodeComposer/TivaWare/sensorlib/mpu9150.h")
    2079                            .dwattr $C$DW$T$96, DW_AT_decl_line(0x82)
    2080                            .dwattr $C$DW$T$96, DW_AT_decl_column(0x01)
    2081                    
    2082                    
    2083                    $C$DW$T$45      .dwtag  DW_TAG_structure_type
    2084                            .dwattr $C$DW$T$45, DW_AT_byte_size(0x14)
    2085                    $C$DW$193       .dwtag  DW_TAG_member
    2086                            .dwattr $C$DW$193, DW_AT_type(*$C$DW$T$34)
    2087                            .dwattr $C$DW$193, DW_AT_name("psI2CInst")
    2088                            .dwattr $C$DW$193, DW_AT_TI_symbol_name("psI2CInst")
    2089                            .dwattr $C$DW$193, DW_AT_data_member_location[DW_OP_plus_uconst 0x0]
    2090                            .dwattr $C$DW$193, DW_AT_accessibility(DW_ACCESS_public)
TI ARM Assembler PC v15.12.1 Tue Nov 01 13:44:09 2016

Tools Copyright (c) 1996-2015 Texas Instruments Incorporated
AccelTest.asm                                                        PAGE   39

    2091                            .dwattr $C$DW$193, DW_AT_decl_file("C:/TI_CodeComposer/TivaWare/sensorlib/i2cm_drv.h")
    2092                            .dwattr $C$DW$193, DW_AT_decl_line(0x14c)
    2093                            .dwattr $C$DW$193, DW_AT_decl_column(0x14)
    2094                    
    2095                    $C$DW$194       .dwtag  DW_TAG_member
    2096                            .dwattr $C$DW$194, DW_AT_type(*$C$DW$T$23)
    2097                            .dwattr $C$DW$194, DW_AT_name("pui8Data")
    2098                            .dwattr $C$DW$194, DW_AT_TI_symbol_name("pui8Data")
    2099                            .dwattr $C$DW$194, DW_AT_data_member_location[DW_OP_plus_uconst 0x4]
    2100                            .dwattr $C$DW$194, DW_AT_accessibility(DW_ACCESS_public)
    2101                            .dwattr $C$DW$194, DW_AT_decl_file("C:/TI_CodeComposer/TivaWare/sensorlib/i2cm_drv.h")
    2102                            .dwattr $C$DW$194, DW_AT_decl_line(0x151)
    2103                            .dwattr $C$DW$194, DW_AT_decl_column(0x0e)
    2104                    
    2105                    $C$DW$195       .dwtag  DW_TAG_member
    2106                            .dwattr $C$DW$195, DW_AT_type(*$C$DW$T$22)
    2107                            .dwattr $C$DW$195, DW_AT_name("ui16Count")
    2108                            .dwattr $C$DW$195, DW_AT_TI_symbol_name("ui16Count")
    2109                            .dwattr $C$DW$195, DW_AT_data_member_location[DW_OP_plus_uconst 0x8]
    2110                            .dwattr $C$DW$195, DW_AT_accessibility(DW_ACCESS_public)
    2111                            .dwattr $C$DW$195, DW_AT_decl_file("C:/TI_CodeComposer/TivaWare/sensorlib/i2cm_drv.h")
    2112                            .dwattr $C$DW$195, DW_AT_decl_line(0x156)
    2113                            .dwattr $C$DW$195, DW_AT_decl_column(0x0e)
    2114                    
    2115                    $C$DW$196       .dwtag  DW_TAG_member
    2116                            .dwattr $C$DW$196, DW_AT_type(*$C$DW$T$28)
    2117                            .dwattr $C$DW$196, DW_AT_name("pfnCallback")
    2118                            .dwattr $C$DW$196, DW_AT_TI_symbol_name("pfnCallback")
    2119                            .dwattr $C$DW$196, DW_AT_data_member_location[DW_OP_plus_uconst 0xc]
    2120                            .dwattr $C$DW$196, DW_AT_accessibility(DW_ACCESS_public)
    2121                            .dwattr $C$DW$196, DW_AT_decl_file("C:/TI_CodeComposer/TivaWare/sensorlib/i2cm_drv.h")
    2122                            .dwattr $C$DW$196, DW_AT_decl_line(0x15b)
    2123                            .dwattr $C$DW$196, DW_AT_decl_column(0x16)
    2124                    
    2125                    $C$DW$197       .dwtag  DW_TAG_member
    2126                            .dwattr $C$DW$197, DW_AT_type(*$C$DW$T$3)
    2127                            .dwattr $C$DW$197, DW_AT_name("pvCallbackData")
    2128                            .dwattr $C$DW$197, DW_AT_TI_symbol_name("pvCallbackData")
    2129                            .dwattr $C$DW$197, DW_AT_data_member_location[DW_OP_plus_uconst 0x10]
    2130                            .dwattr $C$DW$197, DW_AT_accessibility(DW_ACCESS_public)
    2131                            .dwattr $C$DW$197, DW_AT_decl_file("C:/TI_CodeComposer/TivaWare/sensorlib/i2cm_drv.h")
    2132                            .dwattr $C$DW$197, DW_AT_decl_line(0x160)
    2133                            .dwattr $C$DW$197, DW_AT_decl_column(0x0b)
    2134                    
    2135                            .dwattr $C$DW$T$45, DW_AT_decl_file("C:/TI_CodeComposer/TivaWare/sensorlib/i2cm_drv.h")
    2136                            .dwattr $C$DW$T$45, DW_AT_decl_line(0x147)
    2137                            .dwattr $C$DW$T$45, DW_AT_decl_column(0x01)
    2138                            .dwendtag $C$DW$T$45
    2139                    
    2140                    $C$DW$T$97      .dwtag  DW_TAG_typedef
    2141                            .dwattr $C$DW$T$97, DW_AT_name("tI2CMRead16BE")
    2142                            .dwattr $C$DW$T$97, DW_AT_type(*$C$DW$T$45)
    2143                            .dwattr $C$DW$T$97, DW_AT_language(DW_LANG_C)
    2144                            .dwattr $C$DW$T$97, DW_AT_decl_file("C:/TI_CodeComposer/TivaWare/sensorlib/i2cm_drv.h")
    2145                            .dwattr $C$DW$T$97, DW_AT_decl_line(0x162)
TI ARM Assembler PC v15.12.1 Tue Nov 01 13:44:09 2016

Tools Copyright (c) 1996-2015 Texas Instruments Incorporated
AccelTest.asm                                                        PAGE   40

    2146                            .dwattr $C$DW$T$97, DW_AT_decl_column(0x01)
    2147                    
    2148                    
    2149                    $C$DW$T$46      .dwtag  DW_TAG_structure_type
    2150                            .dwattr $C$DW$T$46, DW_AT_byte_size(0x14)
    2151                    $C$DW$198       .dwtag  DW_TAG_member
    2152                            .dwattr $C$DW$198, DW_AT_type(*$C$DW$T$34)
    2153                            .dwattr $C$DW$198, DW_AT_name("psI2CInst")
    2154                            .dwattr $C$DW$198, DW_AT_TI_symbol_name("psI2CInst")
    2155                            .dwattr $C$DW$198, DW_AT_data_member_location[DW_OP_plus_uconst 0x0]
    2156                            .dwattr $C$DW$198, DW_AT_accessibility(DW_ACCESS_public)
    2157                            .dwattr $C$DW$198, DW_AT_decl_file("C:/TI_CodeComposer/TivaWare/sensorlib/i2cm_drv.h")
    2158                            .dwattr $C$DW$198, DW_AT_decl_line(0x170)
    2159                            .dwattr $C$DW$198, DW_AT_decl_column(0x14)
    2160                    
    2161                    $C$DW$199       .dwtag  DW_TAG_member
    2162                            .dwattr $C$DW$199, DW_AT_type(*$C$DW$T$37)
    2163                            .dwattr $C$DW$199, DW_AT_name("pui8Buffer")
    2164                            .dwattr $C$DW$199, DW_AT_TI_symbol_name("pui8Buffer")
    2165                            .dwattr $C$DW$199, DW_AT_data_member_location[DW_OP_plus_uconst 0x4]
    2166                            .dwattr $C$DW$199, DW_AT_accessibility(DW_ACCESS_public)
    2167                            .dwattr $C$DW$199, DW_AT_decl_file("C:/TI_CodeComposer/TivaWare/sensorlib/i2cm_drv.h")
    2168                            .dwattr $C$DW$199, DW_AT_decl_line(0x175)
    2169                            .dwattr $C$DW$199, DW_AT_decl_column(0x0d)
    2170                    
    2171                    $C$DW$200       .dwtag  DW_TAG_member
    2172                            .dwattr $C$DW$200, DW_AT_type(*$C$DW$T$22)
    2173                            .dwattr $C$DW$200, DW_AT_name("ui16Count")
    2174                            .dwattr $C$DW$200, DW_AT_TI_symbol_name("ui16Count")
    2175                            .dwattr $C$DW$200, DW_AT_data_member_location[DW_OP_plus_uconst 0x6]
    2176                            .dwattr $C$DW$200, DW_AT_accessibility(DW_ACCESS_public)
    2177                            .dwattr $C$DW$200, DW_AT_decl_file("C:/TI_CodeComposer/TivaWare/sensorlib/i2cm_drv.h")
    2178                            .dwattr $C$DW$200, DW_AT_decl_line(0x17a)
    2179                            .dwattr $C$DW$200, DW_AT_decl_column(0x0e)
    2180                    
    2181                    $C$DW$201       .dwtag  DW_TAG_member
    2182                            .dwattr $C$DW$201, DW_AT_type(*$C$DW$T$21)
    2183                            .dwattr $C$DW$201, DW_AT_name("pui8Data")
    2184                            .dwattr $C$DW$201, DW_AT_TI_symbol_name("pui8Data")
    2185                            .dwattr $C$DW$201, DW_AT_data_member_location[DW_OP_plus_uconst 0x8]
    2186                            .dwattr $C$DW$201, DW_AT_accessibility(DW_ACCESS_public)
    2187                            .dwattr $C$DW$201, DW_AT_decl_file("C:/TI_CodeComposer/TivaWare/sensorlib/i2cm_drv.h")
    2188                            .dwattr $C$DW$201, DW_AT_decl_line(0x17f)
    2189                            .dwattr $C$DW$201, DW_AT_decl_column(0x14)
    2190                    
    2191                    $C$DW$202       .dwtag  DW_TAG_member
    2192                            .dwattr $C$DW$202, DW_AT_type(*$C$DW$T$28)
    2193                            .dwattr $C$DW$202, DW_AT_name("pfnCallback")
    2194                            .dwattr $C$DW$202, DW_AT_TI_symbol_name("pfnCallback")
    2195                            .dwattr $C$DW$202, DW_AT_data_member_location[DW_OP_plus_uconst 0xc]
    2196                            .dwattr $C$DW$202, DW_AT_accessibility(DW_ACCESS_public)
    2197                            .dwattr $C$DW$202, DW_AT_decl_file("C:/TI_CodeComposer/TivaWare/sensorlib/i2cm_drv.h")
    2198                            .dwattr $C$DW$202, DW_AT_decl_line(0x184)
    2199                            .dwattr $C$DW$202, DW_AT_decl_column(0x16)
    2200                    
TI ARM Assembler PC v15.12.1 Tue Nov 01 13:44:09 2016

Tools Copyright (c) 1996-2015 Texas Instruments Incorporated
AccelTest.asm                                                        PAGE   41

    2201                    $C$DW$203       .dwtag  DW_TAG_member
    2202                            .dwattr $C$DW$203, DW_AT_type(*$C$DW$T$3)
    2203                            .dwattr $C$DW$203, DW_AT_name("pvCallbackData")
    2204                            .dwattr $C$DW$203, DW_AT_TI_symbol_name("pvCallbackData")
    2205                            .dwattr $C$DW$203, DW_AT_data_member_location[DW_OP_plus_uconst 0x10]
    2206                            .dwattr $C$DW$203, DW_AT_accessibility(DW_ACCESS_public)
    2207                            .dwattr $C$DW$203, DW_AT_decl_file("C:/TI_CodeComposer/TivaWare/sensorlib/i2cm_drv.h")
    2208                            .dwattr $C$DW$203, DW_AT_decl_line(0x189)
    2209                            .dwattr $C$DW$203, DW_AT_decl_column(0x0b)
    2210                    
    2211                            .dwattr $C$DW$T$46, DW_AT_decl_file("C:/TI_CodeComposer/TivaWare/sensorlib/i2cm_drv.h")
    2212                            .dwattr $C$DW$T$46, DW_AT_decl_line(0x16b)
    2213                            .dwattr $C$DW$T$46, DW_AT_decl_column(0x01)
    2214                            .dwendtag $C$DW$T$46
    2215                    
    2216                    $C$DW$T$98      .dwtag  DW_TAG_typedef
    2217                            .dwattr $C$DW$T$98, DW_AT_name("tI2CMWrite16BE")
    2218                            .dwattr $C$DW$T$98, DW_AT_type(*$C$DW$T$46)
    2219                            .dwattr $C$DW$T$98, DW_AT_language(DW_LANG_C)
    2220                            .dwattr $C$DW$T$98, DW_AT_decl_file("C:/TI_CodeComposer/TivaWare/sensorlib/i2cm_drv.h")
    2221                            .dwattr $C$DW$T$98, DW_AT_decl_line(0x18b)
    2222                            .dwattr $C$DW$T$98, DW_AT_decl_column(0x01)
    2223                    
    2224                    
    2225                    $C$DW$T$49      .dwtag  DW_TAG_structure_type
    2226                            .dwattr $C$DW$T$49, DW_AT_byte_size(0x58)
    2227                    $C$DW$204       .dwtag  DW_TAG_member
    2228                            .dwattr $C$DW$204, DW_AT_type(*$C$DW$T$48)
    2229                            .dwattr $C$DW$204, DW_AT_name("ppfDCM")
    2230                            .dwattr $C$DW$204, DW_AT_TI_symbol_name("ppfDCM")
    2231                            .dwattr $C$DW$204, DW_AT_data_member_location[DW_OP_plus_uconst 0x0]
    2232                            .dwattr $C$DW$204, DW_AT_accessibility(DW_ACCESS_public)
    2233                            .dwattr $C$DW$204, DW_AT_decl_file("C:/TI_CodeComposer/TivaWare/sensorlib/comp_dcm.h")
    2234                            .dwattr $C$DW$204, DW_AT_decl_line(0x33)
    2235                            .dwattr $C$DW$204, DW_AT_decl_column(0x0b)
    2236                    
    2237                    $C$DW$205       .dwtag  DW_TAG_member
    2238                            .dwattr $C$DW$205, DW_AT_type(*$C$DW$T$16)
    2239                            .dwattr $C$DW$205, DW_AT_name("fDeltaT")
    2240                            .dwattr $C$DW$205, DW_AT_TI_symbol_name("fDeltaT")
    2241                            .dwattr $C$DW$205, DW_AT_data_member_location[DW_OP_plus_uconst 0x24]
    2242                            .dwattr $C$DW$205, DW_AT_accessibility(DW_ACCESS_public)
    2243                            .dwattr $C$DW$205, DW_AT_decl_file("C:/TI_CodeComposer/TivaWare/sensorlib/comp_dcm.h")
    2244                            .dwattr $C$DW$205, DW_AT_decl_line(0x38)
    2245                            .dwattr $C$DW$205, DW_AT_decl_column(0x0b)
    2246                    
    2247                    $C$DW$206       .dwtag  DW_TAG_member
    2248                            .dwattr $C$DW$206, DW_AT_type(*$C$DW$T$16)
    2249                            .dwattr $C$DW$206, DW_AT_name("fScaleA")
    2250                            .dwattr $C$DW$206, DW_AT_TI_symbol_name("fScaleA")
    2251                            .dwattr $C$DW$206, DW_AT_data_member_location[DW_OP_plus_uconst 0x28]
    2252                            .dwattr $C$DW$206, DW_AT_accessibility(DW_ACCESS_public)
    2253                            .dwattr $C$DW$206, DW_AT_decl_file("C:/TI_CodeComposer/TivaWare/sensorlib/comp_dcm.h")
    2254                            .dwattr $C$DW$206, DW_AT_decl_line(0x3e)
    2255                            .dwattr $C$DW$206, DW_AT_decl_column(0x0b)
TI ARM Assembler PC v15.12.1 Tue Nov 01 13:44:09 2016

Tools Copyright (c) 1996-2015 Texas Instruments Incorporated
AccelTest.asm                                                        PAGE   42

    2256                    
    2257                    $C$DW$207       .dwtag  DW_TAG_member
    2258                            .dwattr $C$DW$207, DW_AT_type(*$C$DW$T$16)
    2259                            .dwattr $C$DW$207, DW_AT_name("fScaleG")
    2260                            .dwattr $C$DW$207, DW_AT_TI_symbol_name("fScaleG")
    2261                            .dwattr $C$DW$207, DW_AT_data_member_location[DW_OP_plus_uconst 0x2c]
    2262                            .dwattr $C$DW$207, DW_AT_accessibility(DW_ACCESS_public)
    2263                            .dwattr $C$DW$207, DW_AT_decl_file("C:/TI_CodeComposer/TivaWare/sensorlib/comp_dcm.h")
    2264                            .dwattr $C$DW$207, DW_AT_decl_line(0x43)
    2265                            .dwattr $C$DW$207, DW_AT_decl_column(0x0b)
    2266                    
    2267                    $C$DW$208       .dwtag  DW_TAG_member
    2268                            .dwattr $C$DW$208, DW_AT_type(*$C$DW$T$16)
    2269                            .dwattr $C$DW$208, DW_AT_name("fScaleM")
    2270                            .dwattr $C$DW$208, DW_AT_TI_symbol_name("fScaleM")
    2271                            .dwattr $C$DW$208, DW_AT_data_member_location[DW_OP_plus_uconst 0x30]
    2272                            .dwattr $C$DW$208, DW_AT_accessibility(DW_ACCESS_public)
    2273                            .dwattr $C$DW$208, DW_AT_decl_file("C:/TI_CodeComposer/TivaWare/sensorlib/comp_dcm.h")
    2274                            .dwattr $C$DW$208, DW_AT_decl_line(0x48)
    2275                            .dwattr $C$DW$208, DW_AT_decl_column(0x0b)
    2276                    
    2277                    $C$DW$209       .dwtag  DW_TAG_member
    2278                            .dwattr $C$DW$209, DW_AT_type(*$C$DW$T$47)
    2279                            .dwattr $C$DW$209, DW_AT_name("pfAccel")
    2280                            .dwattr $C$DW$209, DW_AT_TI_symbol_name("pfAccel")
    2281                            .dwattr $C$DW$209, DW_AT_data_member_location[DW_OP_plus_uconst 0x34]
    2282                            .dwattr $C$DW$209, DW_AT_accessibility(DW_ACCESS_public)
    2283                            .dwattr $C$DW$209, DW_AT_decl_file("C:/TI_CodeComposer/TivaWare/sensorlib/comp_dcm.h")
    2284                            .dwattr $C$DW$209, DW_AT_decl_line(0x4d)
    2285                            .dwattr $C$DW$209, DW_AT_decl_column(0x0b)
    2286                    
    2287                    $C$DW$210       .dwtag  DW_TAG_member
    2288                            .dwattr $C$DW$210, DW_AT_type(*$C$DW$T$47)
    2289                            .dwattr $C$DW$210, DW_AT_name("pfGyro")
    2290                            .dwattr $C$DW$210, DW_AT_TI_symbol_name("pfGyro")
    2291                            .dwattr $C$DW$210, DW_AT_data_member_location[DW_OP_plus_uconst 0x40]
    2292                            .dwattr $C$DW$210, DW_AT_accessibility(DW_ACCESS_public)
    2293                            .dwattr $C$DW$210, DW_AT_decl_file("C:/TI_CodeComposer/TivaWare/sensorlib/comp_dcm.h")
    2294                            .dwattr $C$DW$210, DW_AT_decl_line(0x52)
    2295                            .dwattr $C$DW$210, DW_AT_decl_column(0x0b)
    2296                    
    2297                    $C$DW$211       .dwtag  DW_TAG_member
    2298                            .dwattr $C$DW$211, DW_AT_type(*$C$DW$T$47)
    2299                            .dwattr $C$DW$211, DW_AT_name("pfMagneto")
    2300                            .dwattr $C$DW$211, DW_AT_TI_symbol_name("pfMagneto")
    2301                            .dwattr $C$DW$211, DW_AT_data_member_location[DW_OP_plus_uconst 0x4c]
    2302                            .dwattr $C$DW$211, DW_AT_accessibility(DW_ACCESS_public)
    2303                            .dwattr $C$DW$211, DW_AT_decl_file("C:/TI_CodeComposer/TivaWare/sensorlib/comp_dcm.h")
    2304                            .dwattr $C$DW$211, DW_AT_decl_line(0x57)
    2305                            .dwattr $C$DW$211, DW_AT_decl_column(0x0b)
    2306                    
    2307                            .dwattr $C$DW$T$49, DW_AT_decl_file("C:/TI_CodeComposer/TivaWare/sensorlib/comp_dcm.h")
    2308                            .dwattr $C$DW$T$49, DW_AT_decl_line(0x2f)
    2309                            .dwattr $C$DW$T$49, DW_AT_decl_column(0x01)
    2310                            .dwendtag $C$DW$T$49
TI ARM Assembler PC v15.12.1 Tue Nov 01 13:44:09 2016

Tools Copyright (c) 1996-2015 Texas Instruments Incorporated
AccelTest.asm                                                        PAGE   43

    2311                    
    2312                    $C$DW$T$99      .dwtag  DW_TAG_typedef
    2313                            .dwattr $C$DW$T$99, DW_AT_name("tCompDCM")
    2314                            .dwattr $C$DW$T$99, DW_AT_type(*$C$DW$T$49)
    2315                            .dwattr $C$DW$T$99, DW_AT_language(DW_LANG_C)
    2316                            .dwattr $C$DW$T$99, DW_AT_decl_file("C:/TI_CodeComposer/TivaWare/sensorlib/comp_dcm.h")
    2317                            .dwattr $C$DW$T$99, DW_AT_decl_line(0x59)
    2318                            .dwattr $C$DW$T$99, DW_AT_decl_column(0x01)
    2319                    
    2320                    
    2321                    $C$DW$T$51      .dwtag  DW_TAG_structure_type
    2322                            .dwattr $C$DW$T$51, DW_AT_byte_size(0x18)
    2323                    $C$DW$212       .dwtag  DW_TAG_member
    2324                            .dwattr $C$DW$212, DW_AT_type(*$C$DW$T$10)
    2325                            .dwattr $C$DW$212, DW_AT_name("fd")
    2326                            .dwattr $C$DW$212, DW_AT_TI_symbol_name("fd")
    2327                            .dwattr $C$DW$212, DW_AT_data_member_location[DW_OP_plus_uconst 0x0]
    2328                            .dwattr $C$DW$212, DW_AT_accessibility(DW_ACCESS_public)
    2329                            .dwattr $C$DW$212, DW_AT_decl_file("C:/TI_CodeComposer/ccsv6/tools/compiler/ti-cgt-arm_15.12.1
    2330                            .dwattr $C$DW$212, DW_AT_decl_line(0x5c)
    2331                            .dwattr $C$DW$212, DW_AT_decl_column(0x0b)
    2332                    
    2333                    $C$DW$213       .dwtag  DW_TAG_member
    2334                            .dwattr $C$DW$213, DW_AT_type(*$C$DW$T$50)
    2335                            .dwattr $C$DW$213, DW_AT_name("buf")
    2336                            .dwattr $C$DW$213, DW_AT_TI_symbol_name("buf")
    2337                            .dwattr $C$DW$213, DW_AT_data_member_location[DW_OP_plus_uconst 0x4]
    2338                            .dwattr $C$DW$213, DW_AT_accessibility(DW_ACCESS_public)
    2339                            .dwattr $C$DW$213, DW_AT_decl_file("C:/TI_CodeComposer/ccsv6/tools/compiler/ti-cgt-arm_15.12.1
    2340                            .dwattr $C$DW$213, DW_AT_decl_line(0x5d)
    2341                            .dwattr $C$DW$213, DW_AT_decl_column(0x16)
    2342                    
    2343                    $C$DW$214       .dwtag  DW_TAG_member
    2344                            .dwattr $C$DW$214, DW_AT_type(*$C$DW$T$50)
    2345                            .dwattr $C$DW$214, DW_AT_name("pos")
    2346                            .dwattr $C$DW$214, DW_AT_TI_symbol_name("pos")
    2347                            .dwattr $C$DW$214, DW_AT_data_member_location[DW_OP_plus_uconst 0x8]
    2348                            .dwattr $C$DW$214, DW_AT_accessibility(DW_ACCESS_public)
    2349                            .dwattr $C$DW$214, DW_AT_decl_file("C:/TI_CodeComposer/ccsv6/tools/compiler/ti-cgt-arm_15.12.1
    2350                            .dwattr $C$DW$214, DW_AT_decl_line(0x5e)
    2351                            .dwattr $C$DW$214, DW_AT_decl_column(0x16)
    2352                    
    2353                    $C$DW$215       .dwtag  DW_TAG_member
    2354                            .dwattr $C$DW$215, DW_AT_type(*$C$DW$T$50)
    2355                            .dwattr $C$DW$215, DW_AT_name("bufend")
    2356                            .dwattr $C$DW$215, DW_AT_TI_symbol_name("bufend")
    2357                            .dwattr $C$DW$215, DW_AT_data_member_location[DW_OP_plus_uconst 0xc]
    2358                            .dwattr $C$DW$215, DW_AT_accessibility(DW_ACCESS_public)
    2359                            .dwattr $C$DW$215, DW_AT_decl_file("C:/TI_CodeComposer/ccsv6/tools/compiler/ti-cgt-arm_15.12.1
    2360                            .dwattr $C$DW$215, DW_AT_decl_line(0x5f)
    2361                            .dwattr $C$DW$215, DW_AT_decl_column(0x16)
    2362                    
    2363                    $C$DW$216       .dwtag  DW_TAG_member
    2364                            .dwattr $C$DW$216, DW_AT_type(*$C$DW$T$50)
    2365                            .dwattr $C$DW$216, DW_AT_name("buff_stop")
TI ARM Assembler PC v15.12.1 Tue Nov 01 13:44:09 2016

Tools Copyright (c) 1996-2015 Texas Instruments Incorporated
AccelTest.asm                                                        PAGE   44

    2366                            .dwattr $C$DW$216, DW_AT_TI_symbol_name("buff_stop")
    2367                            .dwattr $C$DW$216, DW_AT_data_member_location[DW_OP_plus_uconst 0x10]
    2368                            .dwattr $C$DW$216, DW_AT_accessibility(DW_ACCESS_public)
    2369                            .dwattr $C$DW$216, DW_AT_decl_file("C:/TI_CodeComposer/ccsv6/tools/compiler/ti-cgt-arm_15.12.1
    2370                            .dwattr $C$DW$216, DW_AT_decl_line(0x60)
    2371                            .dwattr $C$DW$216, DW_AT_decl_column(0x16)
    2372                    
    2373                    $C$DW$217       .dwtag  DW_TAG_member
    2374                            .dwattr $C$DW$217, DW_AT_type(*$C$DW$T$11)
    2375                            .dwattr $C$DW$217, DW_AT_name("flags")
    2376                            .dwattr $C$DW$217, DW_AT_TI_symbol_name("flags")
    2377                            .dwattr $C$DW$217, DW_AT_data_member_location[DW_OP_plus_uconst 0x14]
    2378                            .dwattr $C$DW$217, DW_AT_accessibility(DW_ACCESS_public)
    2379                            .dwattr $C$DW$217, DW_AT_decl_file("C:/TI_CodeComposer/ccsv6/tools/compiler/ti-cgt-arm_15.12.1
    2380                            .dwattr $C$DW$217, DW_AT_decl_line(0x61)
    2381                            .dwattr $C$DW$217, DW_AT_decl_column(0x16)
    2382                    
    2383                            .dwattr $C$DW$T$51, DW_AT_decl_file("C:/TI_CodeComposer/ccsv6/tools/compiler/ti-cgt-arm_15.12.
    2384                            .dwattr $C$DW$T$51, DW_AT_decl_line(0x5b)
    2385                            .dwattr $C$DW$T$51, DW_AT_decl_column(0x10)
    2386                            .dwendtag $C$DW$T$51
    2387                    
    2388                    $C$DW$T$100     .dwtag  DW_TAG_typedef
    2389                            .dwattr $C$DW$T$100, DW_AT_name("FILE")
    2390                            .dwattr $C$DW$T$100, DW_AT_type(*$C$DW$T$51)
    2391                            .dwattr $C$DW$T$100, DW_AT_language(DW_LANG_C)
    2392                            .dwattr $C$DW$T$100, DW_AT_decl_file("C:/TI_CodeComposer/ccsv6/tools/compiler/ti-cgt-arm_15.12
    2393                            .dwattr $C$DW$T$100, DW_AT_decl_line(0x62)
    2394                            .dwattr $C$DW$T$100, DW_AT_decl_column(0x03)
    2395                    
    2396                    
    2397                    $C$DW$T$54      .dwtag  DW_TAG_union_type
    2398                            .dwattr $C$DW$T$54, DW_AT_byte_size(0x14)
    2399                    $C$DW$218       .dwtag  DW_TAG_member
    2400                            .dwattr $C$DW$218, DW_AT_type(*$C$DW$T$37)
    2401                            .dwattr $C$DW$218, DW_AT_name("pui8Buffer")
    2402                            .dwattr $C$DW$218, DW_AT_TI_symbol_name("pui8Buffer")
    2403                            .dwattr $C$DW$218, DW_AT_data_member_location[DW_OP_plus_uconst 0x0]
    2404                            .dwattr $C$DW$218, DW_AT_accessibility(DW_ACCESS_public)
    2405                            .dwattr $C$DW$218, DW_AT_decl_file("C:/TI_CodeComposer/TivaWare/sensorlib/ak8975.h")
    2406                            .dwattr $C$DW$218, DW_AT_decl_line(0x58)
    2407                            .dwattr $C$DW$218, DW_AT_decl_column(0x11)
    2408                    
    2409                    $C$DW$219       .dwtag  DW_TAG_member
    2410                            .dwattr $C$DW$219, DW_AT_type(*$C$DW$T$52)
    2411                            .dwattr $C$DW$219, DW_AT_name("sWriteState")
    2412                            .dwattr $C$DW$219, DW_AT_TI_symbol_name("sWriteState")
    2413                            .dwattr $C$DW$219, DW_AT_data_member_location[DW_OP_plus_uconst 0x0]
    2414                            .dwattr $C$DW$219, DW_AT_accessibility(DW_ACCESS_public)
    2415                            .dwattr $C$DW$219, DW_AT_decl_file("C:/TI_CodeComposer/TivaWare/sensorlib/ak8975.h")
    2416                            .dwattr $C$DW$219, DW_AT_decl_line(0x5d)
    2417                            .dwattr $C$DW$219, DW_AT_decl_column(0x15)
    2418                    
    2419                    $C$DW$220       .dwtag  DW_TAG_member
    2420                            .dwattr $C$DW$220, DW_AT_type(*$C$DW$T$53)
TI ARM Assembler PC v15.12.1 Tue Nov 01 13:44:09 2016

Tools Copyright (c) 1996-2015 Texas Instruments Incorporated
AccelTest.asm                                                        PAGE   45

    2421                            .dwattr $C$DW$220, DW_AT_name("sReadModifyWriteState")
    2422                            .dwattr $C$DW$220, DW_AT_TI_symbol_name("sReadModifyWriteState")
    2423                            .dwattr $C$DW$220, DW_AT_data_member_location[DW_OP_plus_uconst 0x0]
    2424                            .dwattr $C$DW$220, DW_AT_accessibility(DW_ACCESS_public)
    2425                            .dwattr $C$DW$220, DW_AT_decl_file("C:/TI_CodeComposer/TivaWare/sensorlib/ak8975.h")
    2426                            .dwattr $C$DW$220, DW_AT_decl_line(0x62)
    2427                            .dwattr $C$DW$220, DW_AT_decl_column(0x1f)
    2428                    
    2429                            .dwattr $C$DW$T$54, DW_AT_decl_file("C:/TI_CodeComposer/TivaWare/sensorlib/ak8975.h")
    2430                            .dwattr $C$DW$T$54, DW_AT_decl_line(0x54)
    2431                            .dwattr $C$DW$T$54, DW_AT_decl_column(0x05)
    2432                            .dwendtag $C$DW$T$54
    2433                    
    2434                    
    2435                    $C$DW$T$56      .dwtag  DW_TAG_union_type
    2436                            .dwattr $C$DW$T$56, DW_AT_byte_size(0x14)
    2437                    $C$DW$221       .dwtag  DW_TAG_member
    2438                            .dwattr $C$DW$221, DW_AT_type(*$C$DW$T$55)
    2439                            .dwattr $C$DW$221, DW_AT_name("pui8Buffer")
    2440                            .dwattr $C$DW$221, DW_AT_TI_symbol_name("pui8Buffer")
    2441                            .dwattr $C$DW$221, DW_AT_data_member_location[DW_OP_plus_uconst 0x0]
    2442                            .dwattr $C$DW$221, DW_AT_accessibility(DW_ACCESS_public)
    2443                            .dwattr $C$DW$221, DW_AT_decl_file("C:/TI_CodeComposer/TivaWare/sensorlib/mpu9150.h")
    2444                            .dwattr $C$DW$221, DW_AT_decl_line(0x74)
    2445                            .dwattr $C$DW$221, DW_AT_decl_column(0x11)
    2446                    
    2447                    $C$DW$222       .dwtag  DW_TAG_member
    2448                            .dwattr $C$DW$222, DW_AT_type(*$C$DW$T$52)
    2449                            .dwattr $C$DW$222, DW_AT_name("sWriteState")
    2450                            .dwattr $C$DW$222, DW_AT_TI_symbol_name("sWriteState")
    2451                            .dwattr $C$DW$222, DW_AT_data_member_location[DW_OP_plus_uconst 0x0]
    2452                            .dwattr $C$DW$222, DW_AT_accessibility(DW_ACCESS_public)
    2453                            .dwattr $C$DW$222, DW_AT_decl_file("C:/TI_CodeComposer/TivaWare/sensorlib/mpu9150.h")
    2454                            .dwattr $C$DW$222, DW_AT_decl_line(0x79)
    2455                            .dwattr $C$DW$222, DW_AT_decl_column(0x15)
    2456                    
    2457                    $C$DW$223       .dwtag  DW_TAG_member
    2458                            .dwattr $C$DW$223, DW_AT_type(*$C$DW$T$53)
    2459                            .dwattr $C$DW$223, DW_AT_name("sReadModifyWriteState")
    2460                            .dwattr $C$DW$223, DW_AT_TI_symbol_name("sReadModifyWriteState")
    2461                            .dwattr $C$DW$223, DW_AT_data_member_location[DW_OP_plus_uconst 0x0]
    2462                            .dwattr $C$DW$223, DW_AT_accessibility(DW_ACCESS_public)
    2463                            .dwattr $C$DW$223, DW_AT_decl_file("C:/TI_CodeComposer/TivaWare/sensorlib/mpu9150.h")
    2464                            .dwattr $C$DW$223, DW_AT_decl_line(0x7e)
    2465                            .dwattr $C$DW$223, DW_AT_decl_column(0x1f)
    2466                    
    2467                            .dwattr $C$DW$T$56, DW_AT_decl_file("C:/TI_CodeComposer/TivaWare/sensorlib/mpu9150.h")
    2468                            .dwattr $C$DW$T$56, DW_AT_decl_line(0x70)
    2469                            .dwattr $C$DW$T$56, DW_AT_decl_column(0x05)
    2470                            .dwendtag $C$DW$T$56
    2471                    
    2472                    
    2473                    $C$DW$T$58      .dwtag  DW_TAG_structure_type
    2474                            .dwattr $C$DW$T$58, DW_AT_name("HeapRegion")
    2475                            .dwattr $C$DW$T$58, DW_AT_byte_size(0x08)
TI ARM Assembler PC v15.12.1 Tue Nov 01 13:44:09 2016

Tools Copyright (c) 1996-2015 Texas Instruments Incorporated
AccelTest.asm                                                        PAGE   46

    2476                    $C$DW$224       .dwtag  DW_TAG_member
    2477                            .dwattr $C$DW$224, DW_AT_type(*$C$DW$T$23)
    2478                            .dwattr $C$DW$224, DW_AT_name("pucStartAddress")
    2479                            .dwattr $C$DW$224, DW_AT_TI_symbol_name("pucStartAddress")
    2480                            .dwattr $C$DW$224, DW_AT_data_member_location[DW_OP_plus_uconst 0x0]
    2481                            .dwattr $C$DW$224, DW_AT_accessibility(DW_ACCESS_public)
    2482                            .dwattr $C$DW$224, DW_AT_decl_file("C:\TI_ARM_Tiva_Projects\Source\include\portable.h")
    2483                            .dwattr $C$DW$224, DW_AT_decl_line(0x96)
    2484                            .dwattr $C$DW$224, DW_AT_decl_column(0x0b)
    2485                    
    2486                    $C$DW$225       .dwtag  DW_TAG_member
    2487                            .dwattr $C$DW$225, DW_AT_type(*$C$DW$T$57)
    2488                            .dwattr $C$DW$225, DW_AT_name("xSizeInBytes")
    2489                            .dwattr $C$DW$225, DW_AT_TI_symbol_name("xSizeInBytes")
    2490                            .dwattr $C$DW$225, DW_AT_data_member_location[DW_OP_plus_uconst 0x4]
    2491                            .dwattr $C$DW$225, DW_AT_accessibility(DW_ACCESS_public)
    2492                            .dwattr $C$DW$225, DW_AT_decl_file("C:\TI_ARM_Tiva_Projects\Source\include\portable.h")
    2493                            .dwattr $C$DW$225, DW_AT_decl_line(0x97)
    2494                            .dwattr $C$DW$225, DW_AT_decl_column(0x09)
    2495                    
    2496                            .dwattr $C$DW$T$58, DW_AT_decl_file("C:\TI_ARM_Tiva_Projects\Source\include\portable.h")
    2497                            .dwattr $C$DW$T$58, DW_AT_decl_line(0x94)
    2498                            .dwattr $C$DW$T$58, DW_AT_decl_column(0x10)
    2499                            .dwendtag $C$DW$T$58
    2500                    
    2501                    $C$DW$T$101     .dwtag  DW_TAG_typedef
    2502                            .dwattr $C$DW$T$101, DW_AT_name("HeapRegion_t")
    2503                            .dwattr $C$DW$T$101, DW_AT_type(*$C$DW$T$58)
    2504                            .dwattr $C$DW$T$101, DW_AT_language(DW_LANG_C)
    2505                            .dwattr $C$DW$T$101, DW_AT_decl_file("C:\TI_ARM_Tiva_Projects\Source\include\portable.h")
    2506                            .dwattr $C$DW$T$101, DW_AT_decl_line(0x98)
    2507                            .dwattr $C$DW$T$101, DW_AT_decl_column(0x03)
    2508                    
    2509                    
    2510                    $C$DW$T$59      .dwtag  DW_TAG_structure_type
    2511                            .dwattr $C$DW$T$59, DW_AT_name("ReportData_Item")
    2512                            .dwattr $C$DW$T$59, DW_AT_byte_size(0x18)
    2513                    $C$DW$226       .dwtag  DW_TAG_member
    2514                            .dwattr $C$DW$226, DW_AT_type(*$C$DW$T$24)
    2515                            .dwattr $C$DW$226, DW_AT_name("TimeStamp")
    2516                            .dwattr $C$DW$226, DW_AT_TI_symbol_name("TimeStamp")
    2517                            .dwattr $C$DW$226, DW_AT_data_member_location[DW_OP_plus_uconst 0x0]
    2518                            .dwattr $C$DW$226, DW_AT_accessibility(DW_ACCESS_public)
    2519                            .dwattr $C$DW$226, DW_AT_decl_file("C:/TI_ARM_Tiva_Projects/Proj2_Magnetometer/Tasks/Task_Repo
    2520                            .dwattr $C$DW$226, DW_AT_decl_line(0x20)
    2521                            .dwattr $C$DW$226, DW_AT_decl_column(0x2b)
    2522                    
    2523                    $C$DW$227       .dwtag  DW_TAG_member
    2524                            .dwattr $C$DW$227, DW_AT_type(*$C$DW$T$24)
    2525                            .dwattr $C$DW$227, DW_AT_name("ReportName")
    2526                            .dwattr $C$DW$227, DW_AT_TI_symbol_name("ReportName")
    2527                            .dwattr $C$DW$227, DW_AT_data_member_location[DW_OP_plus_uconst 0x4]
    2528                            .dwattr $C$DW$227, DW_AT_accessibility(DW_ACCESS_public)
    2529                            .dwattr $C$DW$227, DW_AT_decl_file("C:/TI_ARM_Tiva_Projects/Proj2_Magnetometer/Tasks/Task_Repo
    2530                            .dwattr $C$DW$227, DW_AT_decl_line(0x21)
TI ARM Assembler PC v15.12.1 Tue Nov 01 13:44:09 2016

Tools Copyright (c) 1996-2015 Texas Instruments Incorporated
AccelTest.asm                                                        PAGE   47

    2531                            .dwattr $C$DW$227, DW_AT_decl_column(0x13)
    2532                    
    2533                    $C$DW$228       .dwtag  DW_TAG_member
    2534                            .dwattr $C$DW$228, DW_AT_type(*$C$DW$T$24)
    2535                            .dwattr $C$DW$228, DW_AT_name("ReportValue_0")
    2536                            .dwattr $C$DW$228, DW_AT_TI_symbol_name("ReportValue_0")
    2537                            .dwattr $C$DW$228, DW_AT_data_member_location[DW_OP_plus_uconst 0x8]
    2538                            .dwattr $C$DW$228, DW_AT_accessibility(DW_ACCESS_public)
    2539                            .dwattr $C$DW$228, DW_AT_decl_file("C:/TI_ARM_Tiva_Projects/Proj2_Magnetometer/Tasks/Task_Repo
    2540                            .dwattr $C$DW$228, DW_AT_decl_line(0x22)
    2541                            .dwattr $C$DW$228, DW_AT_decl_column(0x13)
    2542                    
    2543                    $C$DW$229       .dwtag  DW_TAG_member
    2544                            .dwattr $C$DW$229, DW_AT_type(*$C$DW$T$24)
    2545                            .dwattr $C$DW$229, DW_AT_name("ReportValue_1")
    2546                            .dwattr $C$DW$229, DW_AT_TI_symbol_name("ReportValue_1")
    2547                            .dwattr $C$DW$229, DW_AT_data_member_location[DW_OP_plus_uconst 0xc]
    2548                            .dwattr $C$DW$229, DW_AT_accessibility(DW_ACCESS_public)
    2549                            .dwattr $C$DW$229, DW_AT_decl_file("C:/TI_ARM_Tiva_Projects/Proj2_Magnetometer/Tasks/Task_Repo
    2550                            .dwattr $C$DW$229, DW_AT_decl_line(0x23)
    2551                            .dwattr $C$DW$229, DW_AT_decl_column(0x13)
    2552                    
    2553                    $C$DW$230       .dwtag  DW_TAG_member
    2554                            .dwattr $C$DW$230, DW_AT_type(*$C$DW$T$24)
    2555                            .dwattr $C$DW$230, DW_AT_name("ReportValue_2")
    2556                            .dwattr $C$DW$230, DW_AT_TI_symbol_name("ReportValue_2")
    2557                            .dwattr $C$DW$230, DW_AT_data_member_location[DW_OP_plus_uconst 0x10]
    2558                            .dwattr $C$DW$230, DW_AT_accessibility(DW_ACCESS_public)
    2559                            .dwattr $C$DW$230, DW_AT_decl_file("C:/TI_ARM_Tiva_Projects/Proj2_Magnetometer/Tasks/Task_Repo
    2560                            .dwattr $C$DW$230, DW_AT_decl_line(0x24)
    2561                            .dwattr $C$DW$230, DW_AT_decl_column(0x13)
    2562                    
    2563                    $C$DW$231       .dwtag  DW_TAG_member
    2564                            .dwattr $C$DW$231, DW_AT_type(*$C$DW$T$24)
    2565                            .dwattr $C$DW$231, DW_AT_name("ReportValue_3")
    2566                            .dwattr $C$DW$231, DW_AT_TI_symbol_name("ReportValue_3")
    2567                            .dwattr $C$DW$231, DW_AT_data_member_location[DW_OP_plus_uconst 0x14]
    2568                            .dwattr $C$DW$231, DW_AT_accessibility(DW_ACCESS_public)
    2569                            .dwattr $C$DW$231, DW_AT_decl_file("C:/TI_ARM_Tiva_Projects/Proj2_Magnetometer/Tasks/Task_Repo
    2570                            .dwattr $C$DW$231, DW_AT_decl_line(0x25)
    2571                            .dwattr $C$DW$231, DW_AT_decl_column(0x13)
    2572                    
    2573                            .dwattr $C$DW$T$59, DW_AT_decl_file("C:/TI_ARM_Tiva_Projects/Proj2_Magnetometer/Tasks/Task_Rep
    2574                            .dwattr $C$DW$T$59, DW_AT_decl_line(0x20)
    2575                            .dwattr $C$DW$T$59, DW_AT_decl_column(0x10)
    2576                            .dwendtag $C$DW$T$59
    2577                    
    2578                    $C$DW$T$102     .dwtag  DW_TAG_typedef
    2579                            .dwattr $C$DW$T$102, DW_AT_name("ReportData_Item")
    2580                            .dwattr $C$DW$T$102, DW_AT_type(*$C$DW$T$59)
    2581                            .dwattr $C$DW$T$102, DW_AT_language(DW_LANG_C)
    2582                            .dwattr $C$DW$T$102, DW_AT_decl_file("C:/TI_ARM_Tiva_Projects/Proj2_Magnetometer/Tasks/Task_Re
    2583                            .dwattr $C$DW$T$102, DW_AT_decl_line(0x25)
    2584                            .dwattr $C$DW$T$102, DW_AT_decl_column(0x24)
    2585                    
TI ARM Assembler PC v15.12.1 Tue Nov 01 13:44:09 2016

Tools Copyright (c) 1996-2015 Texas Instruments Incorporated
AccelTest.asm                                                        PAGE   48

    2586                    
    2587                    $C$DW$T$104     .dwtag  DW_TAG_enumeration_type
    2588                            .dwattr $C$DW$T$104, DW_AT_name("ReportData_OutputFormat")
    2589                            .dwattr $C$DW$T$104, DW_AT_byte_size(0x01)
    2590                    $C$DW$232       .dwtag  DW_TAG_enumerator
    2591                            .dwattr $C$DW$232, DW_AT_name("Excel_CSV")
    2592                            .dwattr $C$DW$232, DW_AT_const_value(0x00)
    2593                            .dwattr $C$DW$232, DW_AT_decl_file("C:/TI_ARM_Tiva_Projects/Proj2_Magnetometer/Tasks/Task_Repo
    2594                            .dwattr $C$DW$232, DW_AT_decl_line(0x27)
    2595                            .dwattr $C$DW$232, DW_AT_decl_column(0x28)
    2596                    
    2597                    $C$DW$233       .dwtag  DW_TAG_enumerator
    2598                            .dwattr $C$DW$233, DW_AT_name("Mathematica_List")
    2599                            .dwattr $C$DW$233, DW_AT_const_value(0x01)
    2600                            .dwattr $C$DW$233, DW_AT_decl_file("C:/TI_ARM_Tiva_Projects/Proj2_Magnetometer/Tasks/Task_Repo
    2601                            .dwattr $C$DW$233, DW_AT_decl_line(0x27)
    2602                            .dwattr $C$DW$233, DW_AT_decl_column(0x33)
    2603                    
    2604                            .dwattr $C$DW$T$104, DW_AT_decl_file("C:/TI_ARM_Tiva_Projects/Proj2_Magnetometer/Tasks/Task_Re
    2605                            .dwattr $C$DW$T$104, DW_AT_decl_line(0x27)
    2606                            .dwattr $C$DW$T$104, DW_AT_decl_column(0x0e)
    2607                            .dwendtag $C$DW$T$104
    2608                    
    2609                    $C$DW$T$105     .dwtag  DW_TAG_typedef
    2610                            .dwattr $C$DW$T$105, DW_AT_name("ReportData_OutputFormat")
    2611                            .dwattr $C$DW$T$105, DW_AT_type(*$C$DW$T$104)
    2612                            .dwattr $C$DW$T$105, DW_AT_language(DW_LANG_C)
    2613                            .dwattr $C$DW$T$105, DW_AT_decl_file("C:/TI_ARM_Tiva_Projects/Proj2_Magnetometer/Tasks/Task_Re
    2614                            .dwattr $C$DW$T$105, DW_AT_decl_line(0x27)
    2615                            .dwattr $C$DW$T$105, DW_AT_decl_column(0x46)
    2616                    
    2617                    $C$DW$T$2       .dwtag  DW_TAG_unspecified_type
    2618                            .dwattr $C$DW$T$2, DW_AT_name("void")
    2619                    
    2620                    $C$DW$T$3       .dwtag  DW_TAG_pointer_type
    2621                            .dwattr $C$DW$T$3, DW_AT_type(*$C$DW$T$2)
    2622                            .dwattr $C$DW$T$3, DW_AT_address_class(0x20)
    2623                    
    2624                    $C$DW$T$106     .dwtag  DW_TAG_typedef
    2625                            .dwattr $C$DW$T$106, DW_AT_name("QueueHandle_t")
    2626                            .dwattr $C$DW$T$106, DW_AT_type(*$C$DW$T$3)
    2627                            .dwattr $C$DW$T$106, DW_AT_language(DW_LANG_C)
    2628                            .dwattr $C$DW$T$106, DW_AT_decl_file("C:/TI_ARM_Tiva_Projects/Source/include/queue.h")
    2629                            .dwattr $C$DW$T$106, DW_AT_decl_line(0x58)
    2630                            .dwattr $C$DW$T$106, DW_AT_decl_column(0x10)
    2631                    
    2632                    $C$DW$T$107     .dwtag  DW_TAG_typedef
    2633                            .dwattr $C$DW$T$107, DW_AT_name("QueueSetHandle_t")
    2634                            .dwattr $C$DW$T$107, DW_AT_type(*$C$DW$T$3)
    2635                            .dwattr $C$DW$T$107, DW_AT_language(DW_LANG_C)
    2636                            .dwattr $C$DW$T$107, DW_AT_decl_file("C:/TI_ARM_Tiva_Projects/Source/include/queue.h")
    2637                            .dwattr $C$DW$T$107, DW_AT_decl_line(0x5f)
    2638                            .dwattr $C$DW$T$107, DW_AT_decl_column(0x10)
    2639                    
    2640                    $C$DW$T$108     .dwtag  DW_TAG_typedef
TI ARM Assembler PC v15.12.1 Tue Nov 01 13:44:09 2016

Tools Copyright (c) 1996-2015 Texas Instruments Incorporated
AccelTest.asm                                                        PAGE   49

    2641                            .dwattr $C$DW$T$108, DW_AT_name("QueueSetMemberHandle_t")
    2642                            .dwattr $C$DW$T$108, DW_AT_type(*$C$DW$T$3)
    2643                            .dwattr $C$DW$T$108, DW_AT_language(DW_LANG_C)
    2644                            .dwattr $C$DW$T$108, DW_AT_decl_file("C:/TI_ARM_Tiva_Projects/Source/include/queue.h")
    2645                            .dwattr $C$DW$T$108, DW_AT_decl_line(0x66)
    2646                            .dwattr $C$DW$T$108, DW_AT_decl_column(0x10)
    2647                    
    2648                    $C$DW$T$83      .dwtag  DW_TAG_typedef
    2649                            .dwattr $C$DW$T$83, DW_AT_name("TaskHandle_t")
    2650                            .dwattr $C$DW$T$83, DW_AT_type(*$C$DW$T$3)
    2651                            .dwattr $C$DW$T$83, DW_AT_language(DW_LANG_C)
    2652                            .dwattr $C$DW$T$83, DW_AT_decl_file("C:/TI_ARM_Tiva_Projects/Source/include/task.h")
    2653                            .dwattr $C$DW$T$83, DW_AT_decl_line(0x67)
    2654                            .dwattr $C$DW$T$83, DW_AT_decl_column(0x10)
    2655                    
    2656                    
    2657                    $C$DW$T$26      .dwtag  DW_TAG_subroutine_type
    2658                            .dwattr $C$DW$T$26, DW_AT_language(DW_LANG_C)
    2659                    $C$DW$234       .dwtag  DW_TAG_formal_parameter
    2660                            .dwattr $C$DW$234, DW_AT_type(*$C$DW$T$3)
    2661                    
    2662                    $C$DW$235       .dwtag  DW_TAG_formal_parameter
    2663                            .dwattr $C$DW$235, DW_AT_type(*$C$DW$T$25)
    2664                    
    2665                            .dwendtag $C$DW$T$26
    2666                    
    2667                    $C$DW$T$27      .dwtag  DW_TAG_typedef
    2668                            .dwattr $C$DW$T$27, DW_AT_name("tSensorCallback")
    2669                            .dwattr $C$DW$T$27, DW_AT_type(*$C$DW$T$26)
    2670                            .dwattr $C$DW$T$27, DW_AT_language(DW_LANG_C)
    2671                            .dwattr $C$DW$T$27, DW_AT_decl_file("C:/TI_CodeComposer/TivaWare/sensorlib/i2cm_drv.h")
    2672                            .dwattr $C$DW$T$27, DW_AT_decl_line(0x2c)
    2673                            .dwattr $C$DW$T$27, DW_AT_decl_column(0x0f)
    2674                    
    2675                    $C$DW$T$28      .dwtag  DW_TAG_pointer_type
    2676                            .dwattr $C$DW$T$28, DW_AT_type(*$C$DW$T$27)
    2677                            .dwattr $C$DW$T$28, DW_AT_address_class(0x20)
    2678                    
    2679                    
    2680                    $C$DW$T$71      .dwtag  DW_TAG_subroutine_type
    2681                            .dwattr $C$DW$T$71, DW_AT_language(DW_LANG_C)
    2682                    $C$DW$236       .dwtag  DW_TAG_formal_parameter
    2683                            .dwattr $C$DW$236, DW_AT_type(*$C$DW$T$3)
    2684                    
    2685                            .dwendtag $C$DW$T$71
    2686                    
    2687                    $C$DW$T$72      .dwtag  DW_TAG_pointer_type
    2688                            .dwattr $C$DW$T$72, DW_AT_type(*$C$DW$T$71)
    2689                            .dwattr $C$DW$T$72, DW_AT_address_class(0x20)
    2690                    
    2691                    $C$DW$T$73      .dwtag  DW_TAG_typedef
    2692                            .dwattr $C$DW$T$73, DW_AT_name("TaskFunction_t")
    2693                            .dwattr $C$DW$T$73, DW_AT_type(*$C$DW$T$72)
    2694                            .dwattr $C$DW$T$73, DW_AT_language(DW_LANG_C)
    2695                            .dwattr $C$DW$T$73, DW_AT_decl_file("C:\TI_ARM_Tiva_Projects\Source\include\projdefs.h")
TI ARM Assembler PC v15.12.1 Tue Nov 01 13:44:09 2016

Tools Copyright (c) 1996-2015 Texas Instruments Incorporated
AccelTest.asm                                                        PAGE   50

    2696                            .dwattr $C$DW$T$73, DW_AT_decl_line(0x4d)
    2697                            .dwattr $C$DW$T$73, DW_AT_decl_column(0x10)
    2698                    
    2699                    $C$DW$T$112     .dwtag  DW_TAG_const_type
    2700                            .dwattr $C$DW$T$112, DW_AT_type(*$C$DW$T$2)
    2701                    
    2702                    $C$DW$T$113     .dwtag  DW_TAG_pointer_type
    2703                            .dwattr $C$DW$T$113, DW_AT_type(*$C$DW$T$112)
    2704                            .dwattr $C$DW$T$113, DW_AT_address_class(0x20)
    2705                    
    2706                    $C$DW$T$114     .dwtag  DW_TAG_const_type
    2707                            .dwattr $C$DW$T$114, DW_AT_type(*$C$DW$T$113)
    2708                    
    2709                    $C$DW$T$4       .dwtag  DW_TAG_base_type
    2710                            .dwattr $C$DW$T$4, DW_AT_encoding(DW_ATE_boolean)
    2711                            .dwattr $C$DW$T$4, DW_AT_name("bool")
    2712                            .dwattr $C$DW$T$4, DW_AT_byte_size(0x01)
    2713                    
    2714                    $C$DW$T$5       .dwtag  DW_TAG_base_type
    2715                            .dwattr $C$DW$T$5, DW_AT_encoding(DW_ATE_signed_char)
    2716                            .dwattr $C$DW$T$5, DW_AT_name("signed char")
    2717                            .dwattr $C$DW$T$5, DW_AT_byte_size(0x01)
    2718                    
    2719                    $C$DW$T$118     .dwtag  DW_TAG_typedef
    2720                            .dwattr $C$DW$T$118, DW_AT_name("int8_t")
    2721                            .dwattr $C$DW$T$118, DW_AT_type(*$C$DW$T$5)
    2722                            .dwattr $C$DW$T$118, DW_AT_language(DW_LANG_C)
    2723                            .dwattr $C$DW$T$118, DW_AT_decl_file("C:/TI_CodeComposer/ccsv6/tools/compiler/ti-cgt-arm_15.12
    2724                            .dwattr $C$DW$T$118, DW_AT_decl_line(0x2a)
    2725                            .dwattr $C$DW$T$118, DW_AT_decl_column(0x1d)
    2726                    
    2727                    $C$DW$T$119     .dwtag  DW_TAG_typedef
    2728                            .dwattr $C$DW$T$119, DW_AT_name("int_least8_t")
    2729                            .dwattr $C$DW$T$119, DW_AT_type(*$C$DW$T$118)
    2730                            .dwattr $C$DW$T$119, DW_AT_language(DW_LANG_C)
    2731                            .dwattr $C$DW$T$119, DW_AT_decl_file("C:/TI_CodeComposer/ccsv6/tools/compiler/ti-cgt-arm_15.12
    2732                            .dwattr $C$DW$T$119, DW_AT_decl_line(0x37)
    2733                            .dwattr $C$DW$T$119, DW_AT_decl_column(0x17)
    2734                    
    2735                    $C$DW$T$6       .dwtag  DW_TAG_base_type
    2736                            .dwattr $C$DW$T$6, DW_AT_encoding(DW_ATE_unsigned_char)
    2737                            .dwattr $C$DW$T$6, DW_AT_name("unsigned char")
    2738                            .dwattr $C$DW$T$6, DW_AT_byte_size(0x01)
    2739                    
    2740                    $C$DW$T$50      .dwtag  DW_TAG_pointer_type
    2741                            .dwattr $C$DW$T$50, DW_AT_type(*$C$DW$T$6)
    2742                            .dwattr $C$DW$T$50, DW_AT_address_class(0x20)
    2743                    
    2744                    $C$DW$T$19      .dwtag  DW_TAG_typedef
    2745                            .dwattr $C$DW$T$19, DW_AT_name("uint8_t")
    2746                            .dwattr $C$DW$T$19, DW_AT_type(*$C$DW$T$6)
    2747                            .dwattr $C$DW$T$19, DW_AT_language(DW_LANG_C)
    2748                            .dwattr $C$DW$T$19, DW_AT_decl_file("C:/TI_CodeComposer/ccsv6/tools/compiler/ti-cgt-arm_15.12.
    2749                            .dwattr $C$DW$T$19, DW_AT_decl_line(0x2b)
    2750                            .dwattr $C$DW$T$19, DW_AT_decl_column(0x1c)
TI ARM Assembler PC v15.12.1 Tue Nov 01 13:44:09 2016

Tools Copyright (c) 1996-2015 Texas Instruments Incorporated
AccelTest.asm                                                        PAGE   51

    2751                    
    2752                    $C$DW$T$23      .dwtag  DW_TAG_pointer_type
    2753                            .dwattr $C$DW$T$23, DW_AT_type(*$C$DW$T$19)
    2754                            .dwattr $C$DW$T$23, DW_AT_address_class(0x20)
    2755                    
    2756                    
    2757                    $C$DW$T$35      .dwtag  DW_TAG_array_type
    2758                            .dwattr $C$DW$T$35, DW_AT_type(*$C$DW$T$19)
    2759                            .dwattr $C$DW$T$35, DW_AT_language(DW_LANG_C)
    2760                            .dwattr $C$DW$T$35, DW_AT_byte_size(0x04)
    2761                    $C$DW$237       .dwtag  DW_TAG_subrange_type
    2762                            .dwattr $C$DW$237, DW_AT_upper_bound(0x03)
    2763                    
    2764                            .dwendtag $C$DW$T$35
    2765                    
    2766                    
    2767                    $C$DW$T$37      .dwtag  DW_TAG_array_type
    2768                            .dwattr $C$DW$T$37, DW_AT_type(*$C$DW$T$19)
    2769                            .dwattr $C$DW$T$37, DW_AT_language(DW_LANG_C)
    2770                            .dwattr $C$DW$T$37, DW_AT_byte_size(0x02)
    2771                    $C$DW$238       .dwtag  DW_TAG_subrange_type
    2772                            .dwattr $C$DW$238, DW_AT_upper_bound(0x01)
    2773                    
    2774                            .dwendtag $C$DW$T$37
    2775                    
    2776                    
    2777                    $C$DW$T$40      .dwtag  DW_TAG_array_type
    2778                            .dwattr $C$DW$T$40, DW_AT_type(*$C$DW$T$19)
    2779                            .dwattr $C$DW$T$40, DW_AT_language(DW_LANG_C)
    2780                            .dwattr $C$DW$T$40, DW_AT_byte_size(0x08)
    2781                    $C$DW$239       .dwtag  DW_TAG_subrange_type
    2782                            .dwattr $C$DW$239, DW_AT_upper_bound(0x07)
    2783                    
    2784                            .dwendtag $C$DW$T$40
    2785                    
    2786                    
    2787                    $C$DW$T$43      .dwtag  DW_TAG_array_type
    2788                            .dwattr $C$DW$T$43, DW_AT_type(*$C$DW$T$19)
    2789                            .dwattr $C$DW$T$43, DW_AT_language(DW_LANG_C)
    2790                            .dwattr $C$DW$T$43, DW_AT_byte_size(0x18)
    2791                    $C$DW$240       .dwtag  DW_TAG_subrange_type
    2792                            .dwattr $C$DW$240, DW_AT_upper_bound(0x17)
    2793                    
    2794                            .dwendtag $C$DW$T$43
    2795                    
    2796                    
    2797                    $C$DW$T$55      .dwtag  DW_TAG_array_type
    2798                            .dwattr $C$DW$T$55, DW_AT_type(*$C$DW$T$19)
    2799                            .dwattr $C$DW$T$55, DW_AT_language(DW_LANG_C)
    2800                            .dwattr $C$DW$T$55, DW_AT_byte_size(0x06)
    2801                    $C$DW$241       .dwtag  DW_TAG_subrange_type
    2802                            .dwattr $C$DW$241, DW_AT_upper_bound(0x05)
    2803                    
    2804                            .dwendtag $C$DW$T$55
    2805                    
TI ARM Assembler PC v15.12.1 Tue Nov 01 13:44:09 2016

Tools Copyright (c) 1996-2015 Texas Instruments Incorporated
AccelTest.asm                                                        PAGE   52

    2806                    $C$DW$T$120     .dwtag  DW_TAG_typedef
    2807                            .dwattr $C$DW$T$120, DW_AT_name("portCHAR")
    2808                            .dwattr $C$DW$T$120, DW_AT_type(*$C$DW$T$19)
    2809                            .dwattr $C$DW$T$120, DW_AT_language(DW_LANG_C)
    2810                            .dwattr $C$DW$T$120, DW_AT_decl_file("C:/TI_ARM_Tiva_Projects/Source/portable/CCS/ARM_CM4F/por
    2811                            .dwattr $C$DW$T$120, DW_AT_decl_line(0x60)
    2812                            .dwattr $C$DW$T$120, DW_AT_decl_column(0x12)
    2813                    
    2814                    $C$DW$T$20      .dwtag  DW_TAG_const_type
    2815                            .dwattr $C$DW$T$20, DW_AT_type(*$C$DW$T$19)
    2816                    
    2817                    $C$DW$T$21      .dwtag  DW_TAG_pointer_type
    2818                            .dwattr $C$DW$T$21, DW_AT_type(*$C$DW$T$20)
    2819                            .dwattr $C$DW$T$21, DW_AT_address_class(0x20)
    2820                    
    2821                    $C$DW$T$121     .dwtag  DW_TAG_typedef
    2822                            .dwattr $C$DW$T$121, DW_AT_name("uint_least8_t")
    2823                            .dwattr $C$DW$T$121, DW_AT_type(*$C$DW$T$19)
    2824                            .dwattr $C$DW$T$121, DW_AT_language(DW_LANG_C)
    2825                            .dwattr $C$DW$T$121, DW_AT_decl_file("C:/TI_CodeComposer/ccsv6/tools/compiler/ti-cgt-arm_15.12
    2826                            .dwattr $C$DW$T$121, DW_AT_decl_line(0x38)
    2827                            .dwattr $C$DW$T$121, DW_AT_decl_column(0x16)
    2828                    
    2829                    $C$DW$T$7       .dwtag  DW_TAG_base_type
    2830                            .dwattr $C$DW$T$7, DW_AT_encoding(DW_ATE_signed_char)
    2831                            .dwattr $C$DW$T$7, DW_AT_name("wchar_t")
    2832                            .dwattr $C$DW$T$7, DW_AT_byte_size(0x02)
    2833                    
    2834                    $C$DW$T$8       .dwtag  DW_TAG_base_type
    2835                            .dwattr $C$DW$T$8, DW_AT_encoding(DW_ATE_signed)
    2836                            .dwattr $C$DW$T$8, DW_AT_name("short")
    2837                            .dwattr $C$DW$T$8, DW_AT_byte_size(0x02)
    2838                    
    2839                    $C$DW$T$122     .dwtag  DW_TAG_typedef
    2840                            .dwattr $C$DW$T$122, DW_AT_name("int16_t")
    2841                            .dwattr $C$DW$T$122, DW_AT_type(*$C$DW$T$8)
    2842                            .dwattr $C$DW$T$122, DW_AT_language(DW_LANG_C)
    2843                            .dwattr $C$DW$T$122, DW_AT_decl_file("C:/TI_CodeComposer/ccsv6/tools/compiler/ti-cgt-arm_15.12
    2844                            .dwattr $C$DW$T$122, DW_AT_decl_line(0x2c)
    2845                            .dwattr $C$DW$T$122, DW_AT_decl_column(0x1d)
    2846                    
    2847                    $C$DW$T$123     .dwtag  DW_TAG_typedef
    2848                            .dwattr $C$DW$T$123, DW_AT_name("int_least16_t")
    2849                            .dwattr $C$DW$T$123, DW_AT_type(*$C$DW$T$122)
    2850                            .dwattr $C$DW$T$123, DW_AT_language(DW_LANG_C)
    2851                            .dwattr $C$DW$T$123, DW_AT_decl_file("C:/TI_CodeComposer/ccsv6/tools/compiler/ti-cgt-arm_15.12
    2852                            .dwattr $C$DW$T$123, DW_AT_decl_line(0x3a)
    2853                            .dwattr $C$DW$T$123, DW_AT_decl_column(0x17)
    2854                    
    2855                    $C$DW$T$124     .dwtag  DW_TAG_typedef
    2856                            .dwattr $C$DW$T$124, DW_AT_name("portSHORT")
    2857                            .dwattr $C$DW$T$124, DW_AT_type(*$C$DW$T$122)
    2858                            .dwattr $C$DW$T$124, DW_AT_language(DW_LANG_C)
    2859                            .dwattr $C$DW$T$124, DW_AT_decl_file("C:/TI_ARM_Tiva_Projects/Source/portable/CCS/ARM_CM4F/por
    2860                            .dwattr $C$DW$T$124, DW_AT_decl_line(0x64)
TI ARM Assembler PC v15.12.1 Tue Nov 01 13:44:09 2016

Tools Copyright (c) 1996-2015 Texas Instruments Incorporated
AccelTest.asm                                                        PAGE   53

    2861                            .dwattr $C$DW$T$124, DW_AT_decl_column(0x12)
    2862                    
    2863                    $C$DW$T$9       .dwtag  DW_TAG_base_type
    2864                            .dwattr $C$DW$T$9, DW_AT_encoding(DW_ATE_unsigned)
    2865                            .dwattr $C$DW$T$9, DW_AT_name("unsigned short")
    2866                            .dwattr $C$DW$T$9, DW_AT_byte_size(0x02)
    2867                    
    2868                    $C$DW$T$22      .dwtag  DW_TAG_typedef
    2869                            .dwattr $C$DW$T$22, DW_AT_name("uint16_t")
    2870                            .dwattr $C$DW$T$22, DW_AT_type(*$C$DW$T$9)
    2871                            .dwattr $C$DW$T$22, DW_AT_language(DW_LANG_C)
    2872                            .dwattr $C$DW$T$22, DW_AT_decl_file("C:/TI_CodeComposer/ccsv6/tools/compiler/ti-cgt-arm_15.12.
    2873                            .dwattr $C$DW$T$22, DW_AT_decl_line(0x2d)
    2874                            .dwattr $C$DW$T$22, DW_AT_decl_column(0x1c)
    2875                    
    2876                    $C$DW$T$125     .dwtag  DW_TAG_typedef
    2877                            .dwattr $C$DW$T$125, DW_AT_name("uint_least16_t")
    2878                            .dwattr $C$DW$T$125, DW_AT_type(*$C$DW$T$22)
    2879                            .dwattr $C$DW$T$125, DW_AT_language(DW_LANG_C)
    2880                            .dwattr $C$DW$T$125, DW_AT_decl_file("C:/TI_CodeComposer/ccsv6/tools/compiler/ti-cgt-arm_15.12
    2881                            .dwattr $C$DW$T$125, DW_AT_decl_line(0x3b)
    2882                            .dwattr $C$DW$T$125, DW_AT_decl_column(0x16)
    2883                    
    2884                    $C$DW$T$126     .dwtag  DW_TAG_typedef
    2885                            .dwattr $C$DW$T$126, DW_AT_name("wchar_t")
    2886                            .dwattr $C$DW$T$126, DW_AT_type(*$C$DW$T$9)
    2887                            .dwattr $C$DW$T$126, DW_AT_language(DW_LANG_C)
    2888                            .dwattr $C$DW$T$126, DW_AT_decl_file("C:/TI_CodeComposer/ccsv6/tools/compiler/ti-cgt-arm_15.12
    2889                            .dwattr $C$DW$T$126, DW_AT_decl_line(0x41)
    2890                            .dwattr $C$DW$T$126, DW_AT_decl_column(0x1a)
    2891                    
    2892                    $C$DW$T$10      .dwtag  DW_TAG_base_type
    2893                            .dwattr $C$DW$T$10, DW_AT_encoding(DW_ATE_signed)
    2894                            .dwattr $C$DW$T$10, DW_AT_name("int")
    2895                            .dwattr $C$DW$T$10, DW_AT_byte_size(0x04)
    2896                    
    2897                    $C$DW$T$87      .dwtag  DW_TAG_typedef
    2898                            .dwattr $C$DW$T$87, DW_AT_name("int32_t")
    2899                            .dwattr $C$DW$T$87, DW_AT_type(*$C$DW$T$10)
    2900                            .dwattr $C$DW$T$87, DW_AT_language(DW_LANG_C)
    2901                            .dwattr $C$DW$T$87, DW_AT_decl_file("C:/TI_CodeComposer/ccsv6/tools/compiler/ti-cgt-arm_15.12.
    2902                            .dwattr $C$DW$T$87, DW_AT_decl_line(0x2e)
    2903                            .dwattr $C$DW$T$87, DW_AT_decl_column(0x1d)
    2904                    
    2905                    $C$DW$T$88      .dwtag  DW_TAG_typedef
    2906                            .dwattr $C$DW$T$88, DW_AT_name("BaseType_t")
    2907                            .dwattr $C$DW$T$88, DW_AT_type(*$C$DW$T$87)
    2908                            .dwattr $C$DW$T$88, DW_AT_language(DW_LANG_C)
    2909                            .dwattr $C$DW$T$88, DW_AT_decl_file("C:/TI_ARM_Tiva_Projects/Source/portable/CCS/ARM_CM4F/port
    2910                            .dwattr $C$DW$T$88, DW_AT_decl_line(0x69)
    2911                            .dwattr $C$DW$T$88, DW_AT_decl_column(0x12)
    2912                    
    2913                    $C$DW$T$127     .dwtag  DW_TAG_const_type
    2914                            .dwattr $C$DW$T$127, DW_AT_type(*$C$DW$T$88)
    2915                    
TI ARM Assembler PC v15.12.1 Tue Nov 01 13:44:09 2016

Tools Copyright (c) 1996-2015 Texas Instruments Incorporated
AccelTest.asm                                                        PAGE   54

    2916                    
    2917                    $C$DW$T$130     .dwtag  DW_TAG_subroutine_type
    2918                            .dwattr $C$DW$T$130, DW_AT_type(*$C$DW$T$88)
    2919                            .dwattr $C$DW$T$130, DW_AT_language(DW_LANG_C)
    2920                    $C$DW$242       .dwtag  DW_TAG_formal_parameter
    2921                            .dwattr $C$DW$242, DW_AT_type(*$C$DW$T$3)
    2922                    
    2923                            .dwendtag $C$DW$T$130
    2924                    
    2925                    $C$DW$T$131     .dwtag  DW_TAG_pointer_type
    2926                            .dwattr $C$DW$T$131, DW_AT_type(*$C$DW$T$130)
    2927                            .dwattr $C$DW$T$131, DW_AT_address_class(0x20)
    2928                    
    2929                    $C$DW$T$132     .dwtag  DW_TAG_typedef
    2930                            .dwattr $C$DW$T$132, DW_AT_name("TaskHookFunction_t")
    2931                            .dwattr $C$DW$T$132, DW_AT_type(*$C$DW$T$131)
    2932                            .dwattr $C$DW$T$132, DW_AT_language(DW_LANG_C)
    2933                            .dwattr $C$DW$T$132, DW_AT_decl_file("C:/TI_ARM_Tiva_Projects/Source/include/task.h")
    2934                            .dwattr $C$DW$T$132, DW_AT_decl_line(0x6d)
    2935                            .dwattr $C$DW$T$132, DW_AT_decl_column(0x16)
    2936                    
    2937                    $C$DW$T$133     .dwtag  DW_TAG_typedef
    2938                            .dwattr $C$DW$T$133, DW_AT_name("int_fast16_t")
    2939                            .dwattr $C$DW$T$133, DW_AT_type(*$C$DW$T$87)
    2940                            .dwattr $C$DW$T$133, DW_AT_language(DW_LANG_C)
    2941                            .dwattr $C$DW$T$133, DW_AT_decl_file("C:/TI_CodeComposer/ccsv6/tools/compiler/ti-cgt-arm_15.12
    2942                            .dwattr $C$DW$T$133, DW_AT_decl_line(0x47)
    2943                            .dwattr $C$DW$T$133, DW_AT_decl_column(0x17)
    2944                    
    2945                    $C$DW$T$134     .dwtag  DW_TAG_typedef
    2946                            .dwattr $C$DW$T$134, DW_AT_name("int_fast32_t")
    2947                            .dwattr $C$DW$T$134, DW_AT_type(*$C$DW$T$87)
    2948                            .dwattr $C$DW$T$134, DW_AT_language(DW_LANG_C)
    2949                            .dwattr $C$DW$T$134, DW_AT_decl_file("C:/TI_CodeComposer/ccsv6/tools/compiler/ti-cgt-arm_15.12
    2950                            .dwattr $C$DW$T$134, DW_AT_decl_line(0x4a)
    2951                            .dwattr $C$DW$T$134, DW_AT_decl_column(0x17)
    2952                    
    2953                    $C$DW$T$135     .dwtag  DW_TAG_typedef
    2954                            .dwattr $C$DW$T$135, DW_AT_name("int_fast8_t")
    2955                            .dwattr $C$DW$T$135, DW_AT_type(*$C$DW$T$87)
    2956                            .dwattr $C$DW$T$135, DW_AT_language(DW_LANG_C)
    2957                            .dwattr $C$DW$T$135, DW_AT_decl_file("C:/TI_CodeComposer/ccsv6/tools/compiler/ti-cgt-arm_15.12
    2958                            .dwattr $C$DW$T$135, DW_AT_decl_line(0x45)
    2959                            .dwattr $C$DW$T$135, DW_AT_decl_column(0x17)
    2960                    
    2961                    $C$DW$T$136     .dwtag  DW_TAG_typedef
    2962                            .dwattr $C$DW$T$136, DW_AT_name("int_least32_t")
    2963                            .dwattr $C$DW$T$136, DW_AT_type(*$C$DW$T$87)
    2964                            .dwattr $C$DW$T$136, DW_AT_language(DW_LANG_C)
    2965                            .dwattr $C$DW$T$136, DW_AT_decl_file("C:/TI_CodeComposer/ccsv6/tools/compiler/ti-cgt-arm_15.12
    2966                            .dwattr $C$DW$T$136, DW_AT_decl_line(0x3c)
    2967                            .dwattr $C$DW$T$136, DW_AT_decl_column(0x17)
    2968                    
    2969                    $C$DW$T$137     .dwtag  DW_TAG_typedef
    2970                            .dwattr $C$DW$T$137, DW_AT_name("portBASE_TYPE")
TI ARM Assembler PC v15.12.1 Tue Nov 01 13:44:09 2016

Tools Copyright (c) 1996-2015 Texas Instruments Incorporated
AccelTest.asm                                                        PAGE   55

    2971                            .dwattr $C$DW$T$137, DW_AT_type(*$C$DW$T$87)
    2972                            .dwattr $C$DW$T$137, DW_AT_language(DW_LANG_C)
    2973                            .dwattr $C$DW$T$137, DW_AT_decl_file("C:/TI_ARM_Tiva_Projects/Source/portable/CCS/ARM_CM4F/por
    2974                            .dwattr $C$DW$T$137, DW_AT_decl_line(0x66)
    2975                            .dwattr $C$DW$T$137, DW_AT_decl_column(0x12)
    2976                    
    2977                    $C$DW$T$138     .dwtag  DW_TAG_typedef
    2978                            .dwattr $C$DW$T$138, DW_AT_name("portLONG")
    2979                            .dwattr $C$DW$T$138, DW_AT_type(*$C$DW$T$87)
    2980                            .dwattr $C$DW$T$138, DW_AT_language(DW_LANG_C)
    2981                            .dwattr $C$DW$T$138, DW_AT_decl_file("C:/TI_ARM_Tiva_Projects/Source/portable/CCS/ARM_CM4F/por
    2982                            .dwattr $C$DW$T$138, DW_AT_decl_line(0x63)
    2983                            .dwattr $C$DW$T$138, DW_AT_decl_column(0x12)
    2984                    
    2985                    $C$DW$T$139     .dwtag  DW_TAG_typedef
    2986                            .dwattr $C$DW$T$139, DW_AT_name("intptr_t")
    2987                            .dwattr $C$DW$T$139, DW_AT_type(*$C$DW$T$10)
    2988                            .dwattr $C$DW$T$139, DW_AT_language(DW_LANG_C)
    2989                            .dwattr $C$DW$T$139, DW_AT_decl_file("C:/TI_CodeComposer/ccsv6/tools/compiler/ti-cgt-arm_15.12
    2990                            .dwattr $C$DW$T$139, DW_AT_decl_line(0x52)
    2991                            .dwattr $C$DW$T$139, DW_AT_decl_column(0x1a)
    2992                    
    2993                    $C$DW$T$140     .dwtag  DW_TAG_typedef
    2994                            .dwattr $C$DW$T$140, DW_AT_name("ptrdiff_t")
    2995                            .dwattr $C$DW$T$140, DW_AT_type(*$C$DW$T$10)
    2996                            .dwattr $C$DW$T$140, DW_AT_language(DW_LANG_C)
    2997                            .dwattr $C$DW$T$140, DW_AT_decl_file("C:/TI_CodeComposer/ccsv6/tools/compiler/ti-cgt-arm_15.12
    2998                            .dwattr $C$DW$T$140, DW_AT_decl_line(0x36)
    2999                            .dwattr $C$DW$T$140, DW_AT_decl_column(0x1c)
    3000                    
    3001                    $C$DW$T$11      .dwtag  DW_TAG_base_type
    3002                            .dwattr $C$DW$T$11, DW_AT_encoding(DW_ATE_unsigned)
    3003                            .dwattr $C$DW$T$11, DW_AT_name("unsigned int")
    3004                            .dwattr $C$DW$T$11, DW_AT_byte_size(0x04)
    3005                    
    3006                    $C$DW$T$57      .dwtag  DW_TAG_typedef
    3007                            .dwattr $C$DW$T$57, DW_AT_name("size_t")
    3008                            .dwattr $C$DW$T$57, DW_AT_type(*$C$DW$T$11)
    3009                            .dwattr $C$DW$T$57, DW_AT_language(DW_LANG_C)
    3010                            .dwattr $C$DW$T$57, DW_AT_decl_file("C:/TI_CodeComposer/ccsv6/tools/compiler/ti-cgt-arm_15.12.
    3011                            .dwattr $C$DW$T$57, DW_AT_decl_line(0x3a)
    3012                            .dwattr $C$DW$T$57, DW_AT_decl_column(0x19)
    3013                    
    3014                    $C$DW$T$24      .dwtag  DW_TAG_typedef
    3015                            .dwattr $C$DW$T$24, DW_AT_name("uint32_t")
    3016                            .dwattr $C$DW$T$24, DW_AT_type(*$C$DW$T$11)
    3017                            .dwattr $C$DW$T$24, DW_AT_language(DW_LANG_C)
    3018                            .dwattr $C$DW$T$24, DW_AT_decl_file("C:/TI_CodeComposer/ccsv6/tools/compiler/ti-cgt-arm_15.12.
    3019                            .dwattr $C$DW$T$24, DW_AT_decl_line(0x2f)
    3020                            .dwattr $C$DW$T$24, DW_AT_decl_column(0x1c)
    3021                    
    3022                    $C$DW$T$78      .dwtag  DW_TAG_typedef
    3023                            .dwattr $C$DW$T$78, DW_AT_name("StackType_t")
    3024                            .dwattr $C$DW$T$78, DW_AT_type(*$C$DW$T$24)
    3025                            .dwattr $C$DW$T$78, DW_AT_language(DW_LANG_C)
TI ARM Assembler PC v15.12.1 Tue Nov 01 13:44:09 2016

Tools Copyright (c) 1996-2015 Texas Instruments Incorporated
AccelTest.asm                                                        PAGE   56

    3026                            .dwattr $C$DW$T$78, DW_AT_decl_file("C:/TI_ARM_Tiva_Projects/Source/portable/CCS/ARM_CM4F/port
    3027                            .dwattr $C$DW$T$78, DW_AT_decl_line(0x68)
    3028                            .dwattr $C$DW$T$78, DW_AT_decl_column(0x12)
    3029                    
    3030                    $C$DW$T$79      .dwtag  DW_TAG_pointer_type
    3031                            .dwattr $C$DW$T$79, DW_AT_type(*$C$DW$T$78)
    3032                            .dwattr $C$DW$T$79, DW_AT_address_class(0x20)
    3033                    
    3034                    $C$DW$T$66      .dwtag  DW_TAG_typedef
    3035                            .dwattr $C$DW$T$66, DW_AT_name("TickType_t")
    3036                            .dwattr $C$DW$T$66, DW_AT_type(*$C$DW$T$24)
    3037                            .dwattr $C$DW$T$66, DW_AT_language(DW_LANG_C)
