TI ARM Assembler PC v15.12.1 Thu Nov 03 13:01:19 2016

Tools Copyright (c) 1996-2015 Texas Instruments Incorporated
MPU9150AccelerometerManager_Task.asm                                 PAGE    1

       1                    ;******************************************************************************
       2                    ;* TI ARM C/C++ Codegen                                       PC v15.12.1.LTS *
       3                    ;* Date/Time created: Thu Nov 03 13:01:19 2016                                *
       4                    ;******************************************************************************
       5                            .compiler_opts --abi=eabi --arm_vmrs_si_workaround=off --code_state=16 --diag_wrap=off --disab
       6 00000000                   .thumb
       7                    
       8                    $C$DW$CU        .dwtag  DW_TAG_compile_unit
       9                            .dwattr $C$DW$CU, DW_AT_name("../Tasks/MPU9150AccelerometerManager_Task.c")
      10                            .dwattr $C$DW$CU, DW_AT_producer("TI TI ARM C/C++ Codegen PC v15.12.1.LTS Copyright (c) 1996-2
      11                            .dwattr $C$DW$CU, DW_AT_TI_version(0x01)
      12                            .dwattr $C$DW$CU, DW_AT_comp_dir("C:\TI_ARM_Tiva_Projects\Proj2_Magnetometer\Debug")
      13                    
      14                    $C$DW$1 .dwtag  DW_TAG_subprogram
      15                            .dwattr $C$DW$1, DW_AT_name("IntRegister")
      16                            .dwattr $C$DW$1, DW_AT_TI_symbol_name("IntRegister")
      17                            .dwattr $C$DW$1, DW_AT_declaration
      18                            .dwattr $C$DW$1, DW_AT_external
      19                            .dwattr $C$DW$1, DW_AT_decl_file("C:/TI_CodeComposer/TivaWare/driverlib/interrupt.h")
      20                            .dwattr $C$DW$1, DW_AT_decl_line(0x45)
      21                            .dwattr $C$DW$1, DW_AT_decl_column(0x0d)
      22                    $C$DW$2 .dwtag  DW_TAG_formal_parameter
      23                            .dwattr $C$DW$2, DW_AT_type(*$C$DW$T$24)
      24                    
      25                    $C$DW$3 .dwtag  DW_TAG_formal_parameter
      26                            .dwattr $C$DW$3, DW_AT_type(*$C$DW$T$112)
      27                    
      28                            .dwendtag $C$DW$1
      29                    
      30                    
      31                    $C$DW$4 .dwtag  DW_TAG_subprogram
      32                            .dwattr $C$DW$4, DW_AT_name("UARTprintf")
      33                            .dwattr $C$DW$4, DW_AT_TI_symbol_name("UARTprintf")
      34                            .dwattr $C$DW$4, DW_AT_declaration
      35                            .dwattr $C$DW$4, DW_AT_external
      36                            .dwattr $C$DW$4, DW_AT_decl_file("C:/TI_CodeComposer/TivaWare/utils/uartstdio.h")
      37                            .dwattr $C$DW$4, DW_AT_decl_line(0x41)
      38                            .dwattr $C$DW$4, DW_AT_decl_column(0x0d)
      39                    $C$DW$5 .dwtag  DW_TAG_formal_parameter
      40                            .dwattr $C$DW$5, DW_AT_type(*$C$DW$T$76)
      41                    
      42                    $C$DW$6 .dwtag  DW_TAG_unspecified_parameters
      43                    
      44                            .dwendtag $C$DW$4
      45                    
      46                    
      47                    $C$DW$7 .dwtag  DW_TAG_subprogram
      48                            .dwattr $C$DW$7, DW_AT_name("I2CMCommand")
      49                            .dwattr $C$DW$7, DW_AT_TI_symbol_name("I2CMCommand")
      50                            .dwattr $C$DW$7, DW_AT_type(*$C$DW$T$25)
      51                            .dwattr $C$DW$7, DW_AT_declaration
      52                            .dwattr $C$DW$7, DW_AT_external
      53                            .dwattr $C$DW$7, DW_AT_decl_file("C:/TI_CodeComposer/TivaWare/sensorlib/i2cm_drv.h")
      54                            .dwattr $C$DW$7, DW_AT_decl_line(0x196)
      55                            .dwattr $C$DW$7, DW_AT_decl_column(0x15)
TI ARM Assembler PC v15.12.1 Thu Nov 03 13:01:19 2016

Tools Copyright (c) 1996-2015 Texas Instruments Incorporated
MPU9150AccelerometerManager_Task.asm                                 PAGE    2

      56                    $C$DW$8 .dwtag  DW_TAG_formal_parameter
      57                            .dwattr $C$DW$8, DW_AT_type(*$C$DW$T$34)
      58                    
      59                    $C$DW$9 .dwtag  DW_TAG_formal_parameter
      60                            .dwattr $C$DW$9, DW_AT_type(*$C$DW$T$25)
      61                    
      62                    $C$DW$10        .dwtag  DW_TAG_formal_parameter
      63                            .dwattr $C$DW$10, DW_AT_type(*$C$DW$T$21)
      64                    
      65                    $C$DW$11        .dwtag  DW_TAG_formal_parameter
      66                            .dwattr $C$DW$11, DW_AT_type(*$C$DW$T$156)
      67                    
      68                    $C$DW$12        .dwtag  DW_TAG_formal_parameter
      69                            .dwattr $C$DW$12, DW_AT_type(*$C$DW$T$156)
      70                    
      71                    $C$DW$13        .dwtag  DW_TAG_formal_parameter
      72                            .dwattr $C$DW$13, DW_AT_type(*$C$DW$T$23)
      73                    
      74                    $C$DW$14        .dwtag  DW_TAG_formal_parameter
      75                            .dwattr $C$DW$14, DW_AT_type(*$C$DW$T$156)
      76                    
      77                    $C$DW$15        .dwtag  DW_TAG_formal_parameter
      78                            .dwattr $C$DW$15, DW_AT_type(*$C$DW$T$156)
      79                    
      80                    $C$DW$16        .dwtag  DW_TAG_formal_parameter
      81                            .dwattr $C$DW$16, DW_AT_type(*$C$DW$T$28)
      82                    
      83                    $C$DW$17        .dwtag  DW_TAG_formal_parameter
      84                            .dwattr $C$DW$17, DW_AT_type(*$C$DW$T$3)
      85                    
      86                            .dwendtag $C$DW$7
      87                    
      88                    
      89                    $C$DW$18        .dwtag  DW_TAG_subprogram
      90                            .dwattr $C$DW$18, DW_AT_name("I2CMReadModifyWrite16LE")
      91                            .dwattr $C$DW$18, DW_AT_TI_symbol_name("I2CMReadModifyWrite16LE")
      92                            .dwattr $C$DW$18, DW_AT_type(*$C$DW$T$25)
      93                            .dwattr $C$DW$18, DW_AT_declaration
      94                            .dwattr $C$DW$18, DW_AT_external
      95                            .dwattr $C$DW$18, DW_AT_decl_file("C:/TI_CodeComposer/TivaWare/sensorlib/i2cm_drv.h")
      96                            .dwattr $C$DW$18, DW_AT_decl_line(0x1a9)
      97                            .dwattr $C$DW$18, DW_AT_decl_column(0x15)
      98                    $C$DW$19        .dwtag  DW_TAG_formal_parameter
      99                            .dwattr $C$DW$19, DW_AT_type(*$C$DW$T$95)
     100                    
     101                    $C$DW$20        .dwtag  DW_TAG_formal_parameter
     102                            .dwattr $C$DW$20, DW_AT_type(*$C$DW$T$34)
     103                    
     104                    $C$DW$21        .dwtag  DW_TAG_formal_parameter
     105                            .dwattr $C$DW$21, DW_AT_type(*$C$DW$T$25)
     106                    
     107                    $C$DW$22        .dwtag  DW_TAG_formal_parameter
     108                            .dwattr $C$DW$22, DW_AT_type(*$C$DW$T$25)
     109                    
     110                    $C$DW$23        .dwtag  DW_TAG_formal_parameter
TI ARM Assembler PC v15.12.1 Thu Nov 03 13:01:19 2016

Tools Copyright (c) 1996-2015 Texas Instruments Incorporated
MPU9150AccelerometerManager_Task.asm                                 PAGE    3

     111                            .dwattr $C$DW$23, DW_AT_type(*$C$DW$T$156)
     112                    
     113                    $C$DW$24        .dwtag  DW_TAG_formal_parameter
     114                            .dwattr $C$DW$24, DW_AT_type(*$C$DW$T$156)
     115                    
     116                    $C$DW$25        .dwtag  DW_TAG_formal_parameter
     117                            .dwattr $C$DW$25, DW_AT_type(*$C$DW$T$28)
     118                    
     119                    $C$DW$26        .dwtag  DW_TAG_formal_parameter
     120                            .dwattr $C$DW$26, DW_AT_type(*$C$DW$T$3)
     121                    
     122                            .dwendtag $C$DW$18
     123                    
     124                    
     125                    $C$DW$27        .dwtag  DW_TAG_subprogram
     126                            .dwattr $C$DW$27, DW_AT_name("MPU9150Init")
     127                            .dwattr $C$DW$27, DW_AT_TI_symbol_name("MPU9150Init")
     128                            .dwattr $C$DW$27, DW_AT_type(*$C$DW$T$25)
     129                            .dwattr $C$DW$27, DW_AT_declaration
     130                            .dwattr $C$DW$27, DW_AT_external
     131                            .dwattr $C$DW$27, DW_AT_decl_file("C:/TI_CodeComposer/TivaWare/sensorlib/mpu9150.h")
     132                            .dwattr $C$DW$27, DW_AT_decl_line(0x89)
     133                            .dwattr $C$DW$27, DW_AT_decl_column(0x15)
     134                    $C$DW$28        .dwtag  DW_TAG_formal_parameter
     135                            .dwattr $C$DW$28, DW_AT_type(*$C$DW$T$97)
     136                    
     137                    $C$DW$29        .dwtag  DW_TAG_formal_parameter
     138                            .dwattr $C$DW$29, DW_AT_type(*$C$DW$T$34)
     139                    
     140                    $C$DW$30        .dwtag  DW_TAG_formal_parameter
     141                            .dwattr $C$DW$30, DW_AT_type(*$C$DW$T$25)
     142                    
     143                    $C$DW$31        .dwtag  DW_TAG_formal_parameter
     144                            .dwattr $C$DW$31, DW_AT_type(*$C$DW$T$28)
     145                    
     146                    $C$DW$32        .dwtag  DW_TAG_formal_parameter
     147                            .dwattr $C$DW$32, DW_AT_type(*$C$DW$T$3)
     148                    
     149                            .dwendtag $C$DW$27
     150                    
     151                    
     152                    $C$DW$33        .dwtag  DW_TAG_subprogram
     153                            .dwattr $C$DW$33, DW_AT_name("MPU9150DataRead")
     154                            .dwattr $C$DW$33, DW_AT_TI_symbol_name("MPU9150DataRead")
     155                            .dwattr $C$DW$33, DW_AT_type(*$C$DW$T$25)
     156                            .dwattr $C$DW$33, DW_AT_declaration
     157                            .dwattr $C$DW$33, DW_AT_external
     158                            .dwattr $C$DW$33, DW_AT_decl_file("C:/TI_CodeComposer/TivaWare/sensorlib/mpu9150.h")
     159                            .dwattr $C$DW$33, DW_AT_decl_line(0x9d)
     160                            .dwattr $C$DW$33, DW_AT_decl_column(0x15)
     161                    $C$DW$34        .dwtag  DW_TAG_formal_parameter
     162                            .dwattr $C$DW$34, DW_AT_type(*$C$DW$T$97)
     163                    
     164                    $C$DW$35        .dwtag  DW_TAG_formal_parameter
     165                            .dwattr $C$DW$35, DW_AT_type(*$C$DW$T$28)
TI ARM Assembler PC v15.12.1 Thu Nov 03 13:01:19 2016

Tools Copyright (c) 1996-2015 Texas Instruments Incorporated
MPU9150AccelerometerManager_Task.asm                                 PAGE    4

     166                    
     167                    $C$DW$36        .dwtag  DW_TAG_formal_parameter
     168                            .dwattr $C$DW$36, DW_AT_type(*$C$DW$T$3)
     169                    
     170                            .dwendtag $C$DW$33
     171                    
     172                    
     173                    $C$DW$37        .dwtag  DW_TAG_subprogram
     174                            .dwattr $C$DW$37, DW_AT_name("MPU9150DataAccelGetFloat")
     175                            .dwattr $C$DW$37, DW_AT_TI_symbol_name("MPU9150DataAccelGetFloat")
     176                            .dwattr $C$DW$37, DW_AT_declaration
     177                            .dwattr $C$DW$37, DW_AT_external
     178                            .dwattr $C$DW$37, DW_AT_decl_file("C:/TI_CodeComposer/TivaWare/sensorlib/mpu9150.h")
     179                            .dwattr $C$DW$37, DW_AT_decl_line(0xa4)
     180                            .dwattr $C$DW$37, DW_AT_decl_column(0x0d)
     181                    $C$DW$38        .dwtag  DW_TAG_formal_parameter
     182                            .dwattr $C$DW$38, DW_AT_type(*$C$DW$T$97)
     183                    
     184                    $C$DW$39        .dwtag  DW_TAG_formal_parameter
     185                            .dwattr $C$DW$39, DW_AT_type(*$C$DW$T$118)
     186                    
     187                    $C$DW$40        .dwtag  DW_TAG_formal_parameter
     188                            .dwattr $C$DW$40, DW_AT_type(*$C$DW$T$118)
     189                    
     190                    $C$DW$41        .dwtag  DW_TAG_formal_parameter
     191                            .dwattr $C$DW$41, DW_AT_type(*$C$DW$T$118)
     192                    
     193                            .dwendtag $C$DW$37
     194                    
     195                    
     196                    $C$DW$42        .dwtag  DW_TAG_subprogram
     197                            .dwattr $C$DW$42, DW_AT_name("vTaskDelay")
     198                            .dwattr $C$DW$42, DW_AT_TI_symbol_name("vTaskDelay")
     199                            .dwattr $C$DW$42, DW_AT_declaration
     200                            .dwattr $C$DW$42, DW_AT_external
     201                            .dwattr $C$DW$42, DW_AT_decl_file("C:/TI_ARM_Tiva_Projects/Source/include/task.h")
     202                            .dwattr $C$DW$42, DW_AT_decl_line(0x22b)
     203                            .dwattr $C$DW$42, DW_AT_decl_column(0x06)
     204                    $C$DW$43        .dwtag  DW_TAG_formal_parameter
     205                            .dwattr $C$DW$43, DW_AT_type(*$C$DW$T$121)
     206                    
     207                            .dwendtag $C$DW$42
     208                    
     209                    
     210                    $C$DW$44        .dwtag  DW_TAG_subprogram
     211                            .dwattr $C$DW$44, DW_AT_name("xQueueGenericSend")
     212                            .dwattr $C$DW$44, DW_AT_TI_symbol_name("xQueueGenericSend")
     213                            .dwattr $C$DW$44, DW_AT_type(*$C$DW$T$88)
     214                            .dwattr $C$DW$44, DW_AT_declaration
     215                            .dwattr $C$DW$44, DW_AT_external
     216                            .dwattr $C$DW$44, DW_AT_decl_file("C:/TI_ARM_Tiva_Projects/Source/include/queue.h")
     217                            .dwattr $C$DW$44, DW_AT_decl_line(0x250)
     218                            .dwattr $C$DW$44, DW_AT_decl_column(0x0c)
     219                    $C$DW$45        .dwtag  DW_TAG_formal_parameter
     220                            .dwattr $C$DW$45, DW_AT_type(*$C$DW$T$107)
TI ARM Assembler PC v15.12.1 Thu Nov 03 13:01:19 2016

Tools Copyright (c) 1996-2015 Texas Instruments Incorporated
MPU9150AccelerometerManager_Task.asm                                 PAGE    5

     221                    
     222                    $C$DW$46        .dwtag  DW_TAG_formal_parameter
     223                            .dwattr $C$DW$46, DW_AT_type(*$C$DW$T$126)
     224                    
     225                    $C$DW$47        .dwtag  DW_TAG_formal_parameter
     226                            .dwattr $C$DW$47, DW_AT_type(*$C$DW$T$66)
     227                    
     228                    $C$DW$48        .dwtag  DW_TAG_formal_parameter
     229                            .dwattr $C$DW$48, DW_AT_type(*$C$DW$T$138)
     230                    
     231                            .dwendtag $C$DW$44
     232                    
     233                    
     234                    $C$DW$49        .dwtag  DW_TAG_subprogram
     235                            .dwattr $C$DW$49, DW_AT_name("I2C7_Initialization")
     236                            .dwattr $C$DW$49, DW_AT_TI_symbol_name("I2C7_Initialization")
     237                            .dwattr $C$DW$49, DW_AT_type(*$C$DW$T$24)
     238                            .dwattr $C$DW$49, DW_AT_declaration
     239                            .dwattr $C$DW$49, DW_AT_external
     240                            .dwattr $C$DW$49, DW_AT_decl_file("C:/TI_ARM_Tiva_Projects/Proj2_Magnetometer/Tasks/Task_I2C7_
     241                            .dwattr $C$DW$49, DW_AT_decl_line(0x17)
     242                            .dwattr $C$DW$49, DW_AT_decl_column(0x11)
     243                            .dwendtag $C$DW$49
     244                    
     245                    
     246                    $C$DW$50        .dwtag  DW_TAG_subprogram
     247                            .dwattr $C$DW$50, DW_AT_name("I2C7_IntServiceRoutine")
     248                            .dwattr $C$DW$50, DW_AT_TI_symbol_name("I2C7_IntServiceRoutine")
     249                            .dwattr $C$DW$50, DW_AT_declaration
     250                            .dwattr $C$DW$50, DW_AT_external
     251                            .dwattr $C$DW$50, DW_AT_decl_file("../Tasks/MPU9150AccelerometerManager_Task.c")
     252                            .dwattr $C$DW$50, DW_AT_decl_line(0x38)
     253                            .dwattr $C$DW$50, DW_AT_decl_column(0x0d)
     254                            .dwendtag $C$DW$50
     255                    
     256                    $C$DW$51        .dwtag  DW_TAG_variable
     257                            .dwattr $C$DW$51, DW_AT_name("xPortSysTickCount")
     258                            .dwattr $C$DW$51, DW_AT_TI_symbol_name("xPortSysTickCount")
     259                            .dwattr $C$DW$51, DW_AT_type(*$C$DW$T$155)
     260                            .dwattr $C$DW$51, DW_AT_declaration
     261                            .dwattr $C$DW$51, DW_AT_external
     262                            .dwattr $C$DW$51, DW_AT_decl_file("C:/TI_ARM_Tiva_Projects/Proj2_Magnetometer/Tasks/Task_Repor
     263                            .dwattr $C$DW$51, DW_AT_decl_line(0x12)
     264                            .dwattr $C$DW$51, DW_AT_decl_column(0x1a)
     265                    
     266                    $C$DW$52        .dwtag  DW_TAG_variable
     267                            .dwattr $C$DW$52, DW_AT_name("ReportData_Queue")
     268                            .dwattr $C$DW$52, DW_AT_TI_symbol_name("ReportData_Queue")
     269                            .dwattr $C$DW$52, DW_AT_type(*$C$DW$T$107)
     270                            .dwattr $C$DW$52, DW_AT_declaration
     271                            .dwattr $C$DW$52, DW_AT_external
     272                            .dwattr $C$DW$52, DW_AT_decl_file("C:/TI_ARM_Tiva_Projects/Proj2_Magnetometer/Tasks/Task_Repor
     273                            .dwattr $C$DW$52, DW_AT_decl_line(0x1c)
     274                            .dwattr $C$DW$52, DW_AT_decl_column(0x16)
     275                    
TI ARM Assembler PC v15.12.1 Thu Nov 03 13:01:19 2016

Tools Copyright (c) 1996-2015 Texas Instruments Incorporated
MPU9150AccelerometerManager_Task.asm                                 PAGE    6

     276                    $C$DW$53        .dwtag  DW_TAG_variable
     277                            .dwattr $C$DW$53, DW_AT_name("isMPU9150Initialized")
     278                            .dwattr $C$DW$53, DW_AT_TI_symbol_name("isMPU9150Initialized")
     279                            .dwattr $C$DW$53, DW_AT_type(*$C$DW$T$186)
     280                            .dwattr $C$DW$53, DW_AT_declaration
     281                            .dwattr $C$DW$53, DW_AT_external
     282                            .dwattr $C$DW$53, DW_AT_decl_file("..\Tasks\MPU9150Manager.h")
     283                            .dwattr $C$DW$53, DW_AT_decl_line(0x0e)
     284                            .dwattr $C$DW$53, DW_AT_decl_column(0x0d)
     285                    
     286                    $C$DW$54        .dwtag  DW_TAG_variable
     287                            .dwattr $C$DW$54, DW_AT_name("I2C7_Instance_Ref")
     288                            .dwattr $C$DW$54, DW_AT_TI_symbol_name("I2C7_Instance_Ref")
     289                            .dwattr $C$DW$54, DW_AT_type(*$C$DW$T$34)
     290                            .dwattr $C$DW$54, DW_AT_declaration
     291                            .dwattr $C$DW$54, DW_AT_external
     292                            .dwattr $C$DW$54, DW_AT_decl_file("C:/TI_ARM_Tiva_Projects/Proj2_Magnetometer/Tasks/Task_I2C7_
     293                            .dwattr $C$DW$54, DW_AT_decl_line(0x1b)
     294                            .dwattr $C$DW$54, DW_AT_decl_column(0x17)
     295                    
     296                            .global fAccel
     297                            .common fAccel,12,4
     298                    $C$DW$55        .dwtag  DW_TAG_variable
     299                            .dwattr $C$DW$55, DW_AT_name("fAccel")
     300                            .dwattr $C$DW$55, DW_AT_TI_symbol_name("fAccel")
     301                            .dwattr $C$DW$55, DW_AT_location[DW_OP_addr fAccel]
     302                            .dwattr $C$DW$55, DW_AT_type(*$C$DW$T$47)
     303                            .dwattr $C$DW$55, DW_AT_external
     304                            .dwattr $C$DW$55, DW_AT_decl_file("../Tasks/MPU9150AccelerometerManager_Task.c")
     305                            .dwattr $C$DW$55, DW_AT_decl_line(0x32)
     306                            .dwattr $C$DW$55, DW_AT_decl_column(0x07)
     307                    
     308                            .global sMPU9150
     309                            .common sMPU9150,108,4
     310                    $C$DW$56        .dwtag  DW_TAG_variable
     311                            .dwattr $C$DW$56, DW_AT_name("sMPU9150")
     312                            .dwattr $C$DW$56, DW_AT_TI_symbol_name("sMPU9150")
     313                            .dwattr $C$DW$56, DW_AT_location[DW_OP_addr sMPU9150]
     314                            .dwattr $C$DW$56, DW_AT_type(*$C$DW$T$96)
     315                            .dwattr $C$DW$56, DW_AT_external
     316                            .dwattr $C$DW$56, DW_AT_decl_file("../Tasks/MPU9150AccelerometerManager_Task.c")
     317                            .dwattr $C$DW$56, DW_AT_decl_line(0x33)
     318                            .dwattr $C$DW$56, DW_AT_decl_column(0x0a)
     319                    
     320                            .global g_bMPU9150Done
     321                            .common g_bMPU9150Done,1,1
     322                    $C$DW$57        .dwtag  DW_TAG_variable
     323                            .dwattr $C$DW$57, DW_AT_name("g_bMPU9150Done")
     324                            .dwattr $C$DW$57, DW_AT_TI_symbol_name("g_bMPU9150Done")
     325                            .dwattr $C$DW$57, DW_AT_location[DW_OP_addr g_bMPU9150Done]
     326                            .dwattr $C$DW$57, DW_AT_type(*$C$DW$T$187)
     327                            .dwattr $C$DW$57, DW_AT_external
     328                            .dwattr $C$DW$57, DW_AT_decl_file("../Tasks/MPU9150AccelerometerManager_Task.c")
     329                            .dwattr $C$DW$57, DW_AT_decl_line(0x34)
     330                            .dwattr $C$DW$57, DW_AT_decl_column(0x0f)
TI ARM Assembler PC v15.12.1 Thu Nov 03 13:01:19 2016

Tools Copyright (c) 1996-2015 Texas Instruments Incorporated
MPU9150AccelerometerManager_Task.asm                                 PAGE    7

     331                    
     332                            .global accelerometerReport
     333                            .common accelerometerReport,24,4
     334                    $C$DW$58        .dwtag  DW_TAG_variable
     335                            .dwattr $C$DW$58, DW_AT_name("accelerometerReport")
     336                            .dwattr $C$DW$58, DW_AT_TI_symbol_name("accelerometerReport")
     337                            .dwattr $C$DW$58, DW_AT_location[DW_OP_addr accelerometerReport]
     338                            .dwattr $C$DW$58, DW_AT_type(*$C$DW$T$103)
     339                            .dwattr $C$DW$58, DW_AT_external
     340                            .dwattr $C$DW$58, DW_AT_decl_file("../Tasks/MPU9150AccelerometerManager_Task.c")
     341                            .dwattr $C$DW$58, DW_AT_decl_line(0x36)
     342                            .dwattr $C$DW$58, DW_AT_decl_column(0x11)
     343                    
     344                    ;       C:\TI_CodeComposer\ccsv6\tools\compiler\ti-cgt-arm_15.12.1.LTS\bin\armacpia.exe -@C:\\Users\\R
     345 00000000                   .sect   ".text:I2CMWrite"
     346                            .clink
     347                            .thumbfunc I2CMWrite
     348 00000000                   .thumb
     349                            .global I2CMWrite
     350                    
     351                    $C$DW$59        .dwtag  DW_TAG_subprogram
     352                            .dwattr $C$DW$59, DW_AT_name("I2CMWrite")
     353                            .dwattr $C$DW$59, DW_AT_low_pc(I2CMWrite)
     354                            .dwattr $C$DW$59, DW_AT_high_pc(0x00)
     355                            .dwattr $C$DW$59, DW_AT_TI_symbol_name("I2CMWrite")
     356                            .dwattr $C$DW$59, DW_AT_external
     357                            .dwattr $C$DW$59, DW_AT_type(*$C$DW$T$25)
     358                            .dwattr $C$DW$59, DW_AT_TI_begin_file("C:/TI_CodeComposer/TivaWare/sensorlib/i2cm_drv.h")
     359                            .dwattr $C$DW$59, DW_AT_TI_begin_line(0x1cb)
     360                            .dwattr $C$DW$59, DW_AT_TI_begin_column(0x01)
     361                            .dwattr $C$DW$59, DW_AT_decl_file("C:/TI_CodeComposer/TivaWare/sensorlib/i2cm_drv.h")
     362                            .dwattr $C$DW$59, DW_AT_decl_line(0x1cb)
     363                            .dwattr $C$DW$59, DW_AT_decl_column(0x01)
     364                            .dwattr $C$DW$59, DW_AT_TI_max_frame_size(0x30)
     365                            .dwpsn  file "C:/TI_CodeComposer/TivaWare/sensorlib/i2cm_drv.h",line 462,column 1,is_stmt,addr
     366                    
     367                            .dwfde $C$DW$CIE, I2CMWrite
     368                    $C$DW$60        .dwtag  DW_TAG_formal_parameter
     369                            .dwattr $C$DW$60, DW_AT_name("psInst")
     370                            .dwattr $C$DW$60, DW_AT_TI_symbol_name("psInst")
     371                            .dwattr $C$DW$60, DW_AT_type(*$C$DW$T$34)
     372                            .dwattr $C$DW$60, DW_AT_location[DW_OP_reg0]
     373                    
     374                    $C$DW$61        .dwtag  DW_TAG_formal_parameter
     375                            .dwattr $C$DW$61, DW_AT_name("ui8Addr")
     376                            .dwattr $C$DW$61, DW_AT_TI_symbol_name("ui8Addr")
     377                            .dwattr $C$DW$61, DW_AT_type(*$C$DW$T$25)
     378                            .dwattr $C$DW$61, DW_AT_location[DW_OP_reg1]
     379                    
     380                    $C$DW$62        .dwtag  DW_TAG_formal_parameter
     381                            .dwattr $C$DW$62, DW_AT_name("pui8Data")
     382                            .dwattr $C$DW$62, DW_AT_TI_symbol_name("pui8Data")
     383                            .dwattr $C$DW$62, DW_AT_type(*$C$DW$T$21)
     384                            .dwattr $C$DW$62, DW_AT_location[DW_OP_reg2]
     385                    
TI ARM Assembler PC v15.12.1 Thu Nov 03 13:01:19 2016

Tools Copyright (c) 1996-2015 Texas Instruments Incorporated
MPU9150AccelerometerManager_Task.asm                                 PAGE    8

     386                    $C$DW$63        .dwtag  DW_TAG_formal_parameter
     387                            .dwattr $C$DW$63, DW_AT_name("ui16Count")
     388                            .dwattr $C$DW$63, DW_AT_TI_symbol_name("ui16Count")
     389                            .dwattr $C$DW$63, DW_AT_type(*$C$DW$T$156)
     390                            .dwattr $C$DW$63, DW_AT_location[DW_OP_reg3]
     391                    
     392                    $C$DW$64        .dwtag  DW_TAG_formal_parameter
     393                            .dwattr $C$DW$64, DW_AT_name("pfnCallback")
     394                            .dwattr $C$DW$64, DW_AT_TI_symbol_name("pfnCallback")
     395                            .dwattr $C$DW$64, DW_AT_type(*$C$DW$T$28)
     396                            .dwattr $C$DW$64, DW_AT_location[DW_OP_breg13 48]
     397                    
     398                    $C$DW$65        .dwtag  DW_TAG_formal_parameter
     399                            .dwattr $C$DW$65, DW_AT_name("pvCallbackData")
     400                            .dwattr $C$DW$65, DW_AT_TI_symbol_name("pvCallbackData")
     401                            .dwattr $C$DW$65, DW_AT_type(*$C$DW$T$3)
     402                            .dwattr $C$DW$65, DW_AT_location[DW_OP_breg13 52]
     403                    
     404                    
     405                    ;*****************************************************************************
     406                    ;* FUNCTION NAME: I2CMWrite                                                  *
     407                    ;*                                                                           *
     408                    ;*   Regs Modified     : A1,A2,A3,A4,V9,SP,LR,SR,D0,D0_hi,D1,D1_hi,D2,D2_hi, *
     409                    ;*                           D3,D3_hi,D4,D4_hi,D5,D5_hi,D6,D6_hi,D7,D7_hi,   *
     410                    ;*                           FPEXC,FPSCR                                     *
     411                    ;*   Regs Used         : A1,A2,A3,A4,V9,SP,LR,SR,D0,D0_hi,D1,D1_hi,D2,D2_hi, *
     412                    ;*                           D3,D3_hi,D4,D4_hi,D5,D5_hi,D6,D6_hi,D7,D7_hi,   *
     413                    ;*                           FPEXC,FPSCR                                     *
     414                    ;*   Local Frame Size  : 24 Args + 16 Auto + 4 Save = 44 byte                *
     415                    ;*****************************************************************************
     416 00000000           I2CMWrite:
     417                    ;* --------------------------------------------------------------------------*
     418                            .dwcfi  cfa_offset, 0
     419 00000000 B500              PUSH      {LR}                  ; [DPU_3_PIPE]  ; [ORIG 16-BIT INS]
     420                            .dwcfi  cfa_offset, 4
     421                            .dwcfi  save_reg_to_mem, 14, -4
     422 00000002 0D2CF1AD          SUB       SP, SP, #44           ; [DPU_3_PIPE]  ; [KEEP 32-BIT INS]
     423                            .dwcfi  cfa_offset, 48
     424                    $C$DW$66        .dwtag  DW_TAG_variable
     425                            .dwattr $C$DW$66, DW_AT_name("psInst")
     426                            .dwattr $C$DW$66, DW_AT_TI_symbol_name("psInst")
     427                            .dwattr $C$DW$66, DW_AT_type(*$C$DW$T$34)
     428                            .dwattr $C$DW$66, DW_AT_location[DW_OP_breg13 24]
     429                    
     430                    $C$DW$67        .dwtag  DW_TAG_variable
     431                            .dwattr $C$DW$67, DW_AT_name("ui8Addr")
     432                            .dwattr $C$DW$67, DW_AT_TI_symbol_name("ui8Addr")
     433                            .dwattr $C$DW$67, DW_AT_type(*$C$DW$T$25)
     434                            .dwattr $C$DW$67, DW_AT_location[DW_OP_breg13 28]
     435                    
     436                    $C$DW$68        .dwtag  DW_TAG_variable
     437                            .dwattr $C$DW$68, DW_AT_name("pui8Data")
     438                            .dwattr $C$DW$68, DW_AT_TI_symbol_name("pui8Data")
     439                            .dwattr $C$DW$68, DW_AT_type(*$C$DW$T$21)
     440                            .dwattr $C$DW$68, DW_AT_location[DW_OP_breg13 32]
TI ARM Assembler PC v15.12.1 Thu Nov 03 13:01:19 2016

Tools Copyright (c) 1996-2015 Texas Instruments Incorporated
MPU9150AccelerometerManager_Task.asm                                 PAGE    9

     441                    
     442                    $C$DW$69        .dwtag  DW_TAG_variable
     443                            .dwattr $C$DW$69, DW_AT_name("ui16Count")
     444                            .dwattr $C$DW$69, DW_AT_TI_symbol_name("ui16Count")
     445                            .dwattr $C$DW$69, DW_AT_type(*$C$DW$T$156)
     446                            .dwattr $C$DW$69, DW_AT_location[DW_OP_breg13 36]
     447                    
     448 00000006 9309              STR       A4, [SP, #36]         ; [DPU_3_PIPE] |462|  ; [ORIG 16-BIT INS]
     449 00000008 9208              STR       A3, [SP, #32]         ; [DPU_3_PIPE] |462|  ; [ORIG 16-BIT INS]
     450 0000000a 9107              STR       A2, [SP, #28]         ; [DPU_3_PIPE] |462|  ; [ORIG 16-BIT INS]
     451 0000000c 9006              STR       A1, [SP, #24]         ; [DPU_3_PIPE] |462|  ; [ORIG 16-BIT INS]
     452                            .dwpsn  file "C:/TI_CodeComposer/TivaWare/sensorlib/i2cm_drv.h",line 463,column 5,is_stmt,isa 
     453 0000000e 9809              LDR       A1, [SP, #36]         ; [DPU_3_PIPE] |463|  ; [ORIG 16-BIT INS]
     454 00000010 9000              STR       A1, [SP, #0]          ; [DPU_3_PIPE] |463|  ; [ORIG 16-BIT INS]
     455 00000012 2000              MOVS      A1, #0                ; [DPU_3_PIPE] |463|  ; [ORIG 16-BIT INS]
     456 00000014 9001              STR       A1, [SP, #4]          ; [DPU_3_PIPE] |463|  ; [ORIG 16-BIT INS]
     457 00000016 2000              MOVS      A1, #0                ; [DPU_3_PIPE] |463|  ; [ORIG 16-BIT INS]
     458 00000018 9002              STR       A1, [SP, #8]          ; [DPU_3_PIPE] |463|  ; [ORIG 16-BIT INS]
     459 0000001a 2000              MOVS      A1, #0                ; [DPU_3_PIPE] |463|  ; [ORIG 16-BIT INS]
     460 0000001c 9003              STR       A1, [SP, #12]         ; [DPU_3_PIPE] |463|  ; [ORIG 16-BIT INS]
     461 0000001e 980C              LDR       A1, [SP, #48]         ; [DPU_3_PIPE] |463|  ; [ORIG 16-BIT INS]
     462 00000020 9004              STR       A1, [SP, #16]         ; [DPU_3_PIPE] |463|  ; [ORIG 16-BIT INS]
     463 00000022 980D              LDR       A1, [SP, #52]         ; [DPU_3_PIPE] |463|  ; [ORIG 16-BIT INS]
     464 00000024 9005              STR       A1, [SP, #20]         ; [DPU_3_PIPE] |463|  ; [ORIG 16-BIT INS]
     465 00000026 9B09              LDR       A4, [SP, #36]         ; [DPU_3_PIPE] |463|  ; [ORIG 16-BIT INS]
     466 00000028 9A08              LDR       A3, [SP, #32]         ; [DPU_3_PIPE] |463|  ; [ORIG 16-BIT INS]
     467 0000002a 9907              LDR       A2, [SP, #28]         ; [DPU_3_PIPE] |463|  ; [ORIG 16-BIT INS]
     468 0000002c 9806              LDR       A1, [SP, #24]         ; [DPU_3_PIPE] |463|  ; [ORIG 16-BIT INS]
     469                    $C$DW$70        .dwtag  DW_TAG_TI_branch
     470                            .dwattr $C$DW$70, DW_AT_low_pc(0x00)
     471                            .dwattr $C$DW$70, DW_AT_name("I2CMCommand")
     472                            .dwattr $C$DW$70, DW_AT_TI_call
     473                    
     474 0000002e FFFEF7FF!         BL        I2CMCommand           ; [DPU_3_PIPE] |463|  ; [KEEP 32-BIT INS]
     475                            ; CALL OCCURS {I2CMCommand }     ; [] |463| 
     476                            .dwpsn  file "C:/TI_CodeComposer/TivaWare/sensorlib/i2cm_drv.h",line 465,column 1,is_stmt,isa 
     477 00000032 B00B              ADD       SP, SP, #44           ; [DPU_3_PIPE]  ; [ORIG 16-BIT INS]
     478                            .dwcfi  cfa_offset, 4
     479                    $C$DW$71        .dwtag  DW_TAG_TI_branch
     480                            .dwattr $C$DW$71, DW_AT_low_pc(0x00)
     481                            .dwattr $C$DW$71, DW_AT_TI_return
     482                    
     483 00000034 BD00              POP       {PC}                  ; [DPU_3_PIPE]  ; [ORIG 16-BIT INS]
     484                            .dwcfi  cfa_offset, 0
     485                            ; BRANCH OCCURS                  ; [] 
     486                            .dwattr $C$DW$59, DW_AT_TI_end_file("C:/TI_CodeComposer/TivaWare/sensorlib/i2cm_drv.h")
     487                            .dwattr $C$DW$59, DW_AT_TI_end_line(0x1d1)
     488                            .dwattr $C$DW$59, DW_AT_TI_end_column(0x01)
     489                            .dwendentry
     490                            .dwendtag $C$DW$59
     491                    
     492 00000000                   .sect   ".text:I2CMRead"
     493                            .clink
     494                            .thumbfunc I2CMRead
     495 00000000                   .thumb
TI ARM Assembler PC v15.12.1 Thu Nov 03 13:01:19 2016

Tools Copyright (c) 1996-2015 Texas Instruments Incorporated
MPU9150AccelerometerManager_Task.asm                                 PAGE   10

     496                            .global I2CMRead
     497                    
     498                    $C$DW$72        .dwtag  DW_TAG_subprogram
     499                            .dwattr $C$DW$72, DW_AT_name("I2CMRead")
     500                            .dwattr $C$DW$72, DW_AT_low_pc(I2CMRead)
     501                            .dwattr $C$DW$72, DW_AT_high_pc(0x00)
     502                            .dwattr $C$DW$72, DW_AT_TI_symbol_name("I2CMRead")
     503                            .dwattr $C$DW$72, DW_AT_external
     504                            .dwattr $C$DW$72, DW_AT_type(*$C$DW$T$25)
     505                            .dwattr $C$DW$72, DW_AT_TI_begin_file("C:/TI_CodeComposer/TivaWare/sensorlib/i2cm_drv.h")
     506                            .dwattr $C$DW$72, DW_AT_TI_begin_line(0x1d9)
     507                            .dwattr $C$DW$72, DW_AT_TI_begin_column(0x01)
     508                            .dwattr $C$DW$72, DW_AT_decl_file("C:/TI_CodeComposer/TivaWare/sensorlib/i2cm_drv.h")
     509                            .dwattr $C$DW$72, DW_AT_decl_line(0x1d9)
     510                            .dwattr $C$DW$72, DW_AT_decl_column(0x01)
     511                            .dwattr $C$DW$72, DW_AT_TI_max_frame_size(0x30)
     512                            .dwpsn  file "C:/TI_CodeComposer/TivaWare/sensorlib/i2cm_drv.h",line 477,column 1,is_stmt,addr
     513                    
     514                            .dwfde $C$DW$CIE, I2CMRead
     515                    $C$DW$73        .dwtag  DW_TAG_formal_parameter
     516                            .dwattr $C$DW$73, DW_AT_name("psInst")
     517                            .dwattr $C$DW$73, DW_AT_TI_symbol_name("psInst")
     518                            .dwattr $C$DW$73, DW_AT_type(*$C$DW$T$34)
     519                            .dwattr $C$DW$73, DW_AT_location[DW_OP_reg0]
     520                    
     521                    $C$DW$74        .dwtag  DW_TAG_formal_parameter
     522                            .dwattr $C$DW$74, DW_AT_name("ui8Addr")
     523                            .dwattr $C$DW$74, DW_AT_TI_symbol_name("ui8Addr")
     524                            .dwattr $C$DW$74, DW_AT_type(*$C$DW$T$25)
     525                            .dwattr $C$DW$74, DW_AT_location[DW_OP_reg1]
     526                    
     527                    $C$DW$75        .dwtag  DW_TAG_formal_parameter
     528                            .dwattr $C$DW$75, DW_AT_name("pui8WriteData")
     529                            .dwattr $C$DW$75, DW_AT_TI_symbol_name("pui8WriteData")
     530                            .dwattr $C$DW$75, DW_AT_type(*$C$DW$T$21)
     531                            .dwattr $C$DW$75, DW_AT_location[DW_OP_reg2]
     532                    
     533                    $C$DW$76        .dwtag  DW_TAG_formal_parameter
     534                            .dwattr $C$DW$76, DW_AT_name("ui16WriteCount")
     535                            .dwattr $C$DW$76, DW_AT_TI_symbol_name("ui16WriteCount")
     536                            .dwattr $C$DW$76, DW_AT_type(*$C$DW$T$156)
     537                            .dwattr $C$DW$76, DW_AT_location[DW_OP_reg3]
     538                    
     539                    $C$DW$77        .dwtag  DW_TAG_formal_parameter
     540                            .dwattr $C$DW$77, DW_AT_name("pui8ReadData")
     541                            .dwattr $C$DW$77, DW_AT_TI_symbol_name("pui8ReadData")
     542                            .dwattr $C$DW$77, DW_AT_type(*$C$DW$T$23)
     543                            .dwattr $C$DW$77, DW_AT_location[DW_OP_breg13 48]
     544                    
     545                    $C$DW$78        .dwtag  DW_TAG_formal_parameter
     546                            .dwattr $C$DW$78, DW_AT_name("ui16ReadCount")
     547                            .dwattr $C$DW$78, DW_AT_TI_symbol_name("ui16ReadCount")
     548                            .dwattr $C$DW$78, DW_AT_type(*$C$DW$T$156)
     549                            .dwattr $C$DW$78, DW_AT_location[DW_OP_breg13 52]
     550                    
TI ARM Assembler PC v15.12.1 Thu Nov 03 13:01:19 2016

Tools Copyright (c) 1996-2015 Texas Instruments Incorporated
MPU9150AccelerometerManager_Task.asm                                 PAGE   11

     551                    $C$DW$79        .dwtag  DW_TAG_formal_parameter
     552                            .dwattr $C$DW$79, DW_AT_name("pfnCallback")
     553                            .dwattr $C$DW$79, DW_AT_TI_symbol_name("pfnCallback")
     554                            .dwattr $C$DW$79, DW_AT_type(*$C$DW$T$28)
     555                            .dwattr $C$DW$79, DW_AT_location[DW_OP_breg13 56]
     556                    
     557                    $C$DW$80        .dwtag  DW_TAG_formal_parameter
     558                            .dwattr $C$DW$80, DW_AT_name("pvCallbackData")
     559                            .dwattr $C$DW$80, DW_AT_TI_symbol_name("pvCallbackData")
     560                            .dwattr $C$DW$80, DW_AT_type(*$C$DW$T$3)
     561                            .dwattr $C$DW$80, DW_AT_location[DW_OP_breg13 60]
     562                    
     563                    
     564                    ;*****************************************************************************
     565                    ;* FUNCTION NAME: I2CMRead                                                   *
     566                    ;*                                                                           *
     567                    ;*   Regs Modified     : A1,A2,A3,A4,V9,SP,LR,SR,D0,D0_hi,D1,D1_hi,D2,D2_hi, *
     568                    ;*                           D3,D3_hi,D4,D4_hi,D5,D5_hi,D6,D6_hi,D7,D7_hi,   *
     569                    ;*                           FPEXC,FPSCR                                     *
     570                    ;*   Regs Used         : A1,A2,A3,A4,V9,SP,LR,SR,D0,D0_hi,D1,D1_hi,D2,D2_hi, *
     571                    ;*                           D3,D3_hi,D4,D4_hi,D5,D5_hi,D6,D6_hi,D7,D7_hi,   *
     572                    ;*                           FPEXC,FPSCR                                     *
     573                    ;*   Local Frame Size  : 24 Args + 16 Auto + 4 Save = 44 byte                *
     574                    ;*****************************************************************************
     575 00000000           I2CMRead:
     576                    ;* --------------------------------------------------------------------------*
     577                            .dwcfi  cfa_offset, 0
     578 00000000 B500              PUSH      {LR}                  ; [DPU_3_PIPE]  ; [ORIG 16-BIT INS]
     579                            .dwcfi  cfa_offset, 4
     580                            .dwcfi  save_reg_to_mem, 14, -4
     581 00000002 0D2CF1AD          SUB       SP, SP, #44           ; [DPU_3_PIPE]  ; [KEEP 32-BIT INS]
     582                            .dwcfi  cfa_offset, 48
     583                    $C$DW$81        .dwtag  DW_TAG_variable
     584                            .dwattr $C$DW$81, DW_AT_name("psInst")
     585                            .dwattr $C$DW$81, DW_AT_TI_symbol_name("psInst")
     586                            .dwattr $C$DW$81, DW_AT_type(*$C$DW$T$34)
     587                            .dwattr $C$DW$81, DW_AT_location[DW_OP_breg13 24]
     588                    
     589                    $C$DW$82        .dwtag  DW_TAG_variable
     590                            .dwattr $C$DW$82, DW_AT_name("ui8Addr")
     591                            .dwattr $C$DW$82, DW_AT_TI_symbol_name("ui8Addr")
     592                            .dwattr $C$DW$82, DW_AT_type(*$C$DW$T$25)
     593                            .dwattr $C$DW$82, DW_AT_location[DW_OP_breg13 28]
     594                    
     595                    $C$DW$83        .dwtag  DW_TAG_variable
     596                            .dwattr $C$DW$83, DW_AT_name("pui8WriteData")
     597                            .dwattr $C$DW$83, DW_AT_TI_symbol_name("pui8WriteData")
     598                            .dwattr $C$DW$83, DW_AT_type(*$C$DW$T$21)
     599                            .dwattr $C$DW$83, DW_AT_location[DW_OP_breg13 32]
     600                    
     601                    $C$DW$84        .dwtag  DW_TAG_variable
     602                            .dwattr $C$DW$84, DW_AT_name("ui16WriteCount")
     603                            .dwattr $C$DW$84, DW_AT_TI_symbol_name("ui16WriteCount")
     604                            .dwattr $C$DW$84, DW_AT_type(*$C$DW$T$156)
     605                            .dwattr $C$DW$84, DW_AT_location[DW_OP_breg13 36]
TI ARM Assembler PC v15.12.1 Thu Nov 03 13:01:19 2016

Tools Copyright (c) 1996-2015 Texas Instruments Incorporated
MPU9150AccelerometerManager_Task.asm                                 PAGE   12

     606                    
     607 00000006 9309              STR       A4, [SP, #36]         ; [DPU_3_PIPE] |477|  ; [ORIG 16-BIT INS]
     608 00000008 9208              STR       A3, [SP, #32]         ; [DPU_3_PIPE] |477|  ; [ORIG 16-BIT INS]
     609 0000000a 9107              STR       A2, [SP, #28]         ; [DPU_3_PIPE] |477|  ; [ORIG 16-BIT INS]
     610 0000000c 9006              STR       A1, [SP, #24]         ; [DPU_3_PIPE] |477|  ; [ORIG 16-BIT INS]
     611                            .dwpsn  file "C:/TI_CodeComposer/TivaWare/sensorlib/i2cm_drv.h",line 478,column 5,is_stmt,isa 
     612 0000000e 9809              LDR       A1, [SP, #36]         ; [DPU_3_PIPE] |478|  ; [ORIG 16-BIT INS]
     613 00000010 9000              STR       A1, [SP, #0]          ; [DPU_3_PIPE] |478|  ; [ORIG 16-BIT INS]
     614 00000012 980C              LDR       A1, [SP, #48]         ; [DPU_3_PIPE] |478|  ; [ORIG 16-BIT INS]
     615 00000014 9001              STR       A1, [SP, #4]          ; [DPU_3_PIPE] |478|  ; [ORIG 16-BIT INS]
     616 00000016 980D              LDR       A1, [SP, #52]         ; [DPU_3_PIPE] |478|  ; [ORIG 16-BIT INS]
     617 00000018 9002              STR       A1, [SP, #8]          ; [DPU_3_PIPE] |478|  ; [ORIG 16-BIT INS]
     618 0000001a 980D              LDR       A1, [SP, #52]         ; [DPU_3_PIPE] |478|  ; [ORIG 16-BIT INS]
     619 0000001c 9003              STR       A1, [SP, #12]         ; [DPU_3_PIPE] |478|  ; [ORIG 16-BIT INS]
     620 0000001e 980E              LDR       A1, [SP, #56]         ; [DPU_3_PIPE] |478|  ; [ORIG 16-BIT INS]
     621 00000020 9004              STR       A1, [SP, #16]         ; [DPU_3_PIPE] |478|  ; [ORIG 16-BIT INS]
     622 00000022 980F              LDR       A1, [SP, #60]         ; [DPU_3_PIPE] |478|  ; [ORIG 16-BIT INS]
     623 00000024 9005              STR       A1, [SP, #20]         ; [DPU_3_PIPE] |478|  ; [ORIG 16-BIT INS]
     624 00000026 9B09              LDR       A4, [SP, #36]         ; [DPU_3_PIPE] |478|  ; [ORIG 16-BIT INS]
     625 00000028 9A08              LDR       A3, [SP, #32]         ; [DPU_3_PIPE] |478|  ; [ORIG 16-BIT INS]
     626 0000002a 9907              LDR       A2, [SP, #28]         ; [DPU_3_PIPE] |478|  ; [ORIG 16-BIT INS]
     627 0000002c 9806              LDR       A1, [SP, #24]         ; [DPU_3_PIPE] |478|  ; [ORIG 16-BIT INS]
     628                    $C$DW$85        .dwtag  DW_TAG_TI_branch
     629                            .dwattr $C$DW$85, DW_AT_low_pc(0x00)
     630                            .dwattr $C$DW$85, DW_AT_name("I2CMCommand")
     631                            .dwattr $C$DW$85, DW_AT_TI_call
     632                    
     633 0000002e FFFEF7FF!         BL        I2CMCommand           ; [DPU_3_PIPE] |478|  ; [KEEP 32-BIT INS]
     634                            ; CALL OCCURS {I2CMCommand }     ; [] |478| 
     635                            .dwpsn  file "C:/TI_CodeComposer/TivaWare/sensorlib/i2cm_drv.h",line 481,column 1,is_stmt,isa 
     636 00000032 B00B              ADD       SP, SP, #44           ; [DPU_3_PIPE]  ; [ORIG 16-BIT INS]
     637                            .dwcfi  cfa_offset, 4
     638                    $C$DW$86        .dwtag  DW_TAG_TI_branch
     639                            .dwattr $C$DW$86, DW_AT_low_pc(0x00)
     640                            .dwattr $C$DW$86, DW_AT_TI_return
     641                    
     642 00000034 BD00              POP       {PC}                  ; [DPU_3_PIPE]  ; [ORIG 16-BIT INS]
     643                            .dwcfi  cfa_offset, 0
     644                            ; BRANCH OCCURS                  ; [] 
     645                            .dwattr $C$DW$72, DW_AT_TI_end_file("C:/TI_CodeComposer/TivaWare/sensorlib/i2cm_drv.h")
     646                            .dwattr $C$DW$72, DW_AT_TI_end_line(0x1e1)
     647                            .dwattr $C$DW$72, DW_AT_TI_end_column(0x01)
     648                            .dwendentry
     649                            .dwendtag $C$DW$72
     650                    
     651 00000000                   .sect   ".text:I2CMWriteBatched"
     652                            .clink
     653                            .thumbfunc I2CMWriteBatched
     654 00000000                   .thumb
     655                            .global I2CMWriteBatched
     656                    
     657                    $C$DW$87        .dwtag  DW_TAG_subprogram
     658                            .dwattr $C$DW$87, DW_AT_name("I2CMWriteBatched")
     659                            .dwattr $C$DW$87, DW_AT_low_pc(I2CMWriteBatched)
     660                            .dwattr $C$DW$87, DW_AT_high_pc(0x00)
TI ARM Assembler PC v15.12.1 Thu Nov 03 13:01:19 2016

Tools Copyright (c) 1996-2015 Texas Instruments Incorporated
MPU9150AccelerometerManager_Task.asm                                 PAGE   13

     661                            .dwattr $C$DW$87, DW_AT_TI_symbol_name("I2CMWriteBatched")
     662                            .dwattr $C$DW$87, DW_AT_external
     663                            .dwattr $C$DW$87, DW_AT_type(*$C$DW$T$25)
     664                            .dwattr $C$DW$87, DW_AT_TI_begin_file("C:/TI_CodeComposer/TivaWare/sensorlib/i2cm_drv.h")
     665                            .dwattr $C$DW$87, DW_AT_TI_begin_line(0x1e9)
     666                            .dwattr $C$DW$87, DW_AT_TI_begin_column(0x01)
     667                            .dwattr $C$DW$87, DW_AT_decl_file("C:/TI_CodeComposer/TivaWare/sensorlib/i2cm_drv.h")
     668                            .dwattr $C$DW$87, DW_AT_decl_line(0x1e9)
     669                            .dwattr $C$DW$87, DW_AT_decl_column(0x01)
     670                            .dwattr $C$DW$87, DW_AT_TI_max_frame_size(0x30)
     671                            .dwpsn  file "C:/TI_CodeComposer/TivaWare/sensorlib/i2cm_drv.h",line 493,column 1,is_stmt,addr
     672                    
     673                            .dwfde $C$DW$CIE, I2CMWriteBatched
     674                    $C$DW$88        .dwtag  DW_TAG_formal_parameter
     675                            .dwattr $C$DW$88, DW_AT_name("psInst")
     676                            .dwattr $C$DW$88, DW_AT_TI_symbol_name("psInst")
     677                            .dwattr $C$DW$88, DW_AT_type(*$C$DW$T$34)
     678                            .dwattr $C$DW$88, DW_AT_location[DW_OP_reg0]
     679                    
     680                    $C$DW$89        .dwtag  DW_TAG_formal_parameter
     681                            .dwattr $C$DW$89, DW_AT_name("ui8Addr")
     682                            .dwattr $C$DW$89, DW_AT_TI_symbol_name("ui8Addr")
     683                            .dwattr $C$DW$89, DW_AT_type(*$C$DW$T$25)
     684                            .dwattr $C$DW$89, DW_AT_location[DW_OP_reg1]
     685                    
     686                    $C$DW$90        .dwtag  DW_TAG_formal_parameter
     687                            .dwattr $C$DW$90, DW_AT_name("pui8Data")
     688                            .dwattr $C$DW$90, DW_AT_TI_symbol_name("pui8Data")
     689                            .dwattr $C$DW$90, DW_AT_type(*$C$DW$T$21)
     690                            .dwattr $C$DW$90, DW_AT_location[DW_OP_reg2]
     691                    
     692                    $C$DW$91        .dwtag  DW_TAG_formal_parameter
     693                            .dwattr $C$DW$91, DW_AT_name("ui16Count")
     694                            .dwattr $C$DW$91, DW_AT_TI_symbol_name("ui16Count")
     695                            .dwattr $C$DW$91, DW_AT_type(*$C$DW$T$156)
     696                            .dwattr $C$DW$91, DW_AT_location[DW_OP_reg3]
     697                    
     698                    $C$DW$92        .dwtag  DW_TAG_formal_parameter
     699                            .dwattr $C$DW$92, DW_AT_name("ui16BatchSize")
     700                            .dwattr $C$DW$92, DW_AT_TI_symbol_name("ui16BatchSize")
     701                            .dwattr $C$DW$92, DW_AT_type(*$C$DW$T$156)
     702                            .dwattr $C$DW$92, DW_AT_location[DW_OP_breg13 48]
     703                    
     704                    $C$DW$93        .dwtag  DW_TAG_formal_parameter
     705                            .dwattr $C$DW$93, DW_AT_name("pfnCallback")
     706                            .dwattr $C$DW$93, DW_AT_TI_symbol_name("pfnCallback")
     707                            .dwattr $C$DW$93, DW_AT_type(*$C$DW$T$28)
     708                            .dwattr $C$DW$93, DW_AT_location[DW_OP_breg13 52]
     709                    
     710                    $C$DW$94        .dwtag  DW_TAG_formal_parameter
     711                            .dwattr $C$DW$94, DW_AT_name("pvCallbackData")
     712                            .dwattr $C$DW$94, DW_AT_TI_symbol_name("pvCallbackData")
     713                            .dwattr $C$DW$94, DW_AT_type(*$C$DW$T$3)
     714                            .dwattr $C$DW$94, DW_AT_location[DW_OP_breg13 56]
     715                    
TI ARM Assembler PC v15.12.1 Thu Nov 03 13:01:19 2016

Tools Copyright (c) 1996-2015 Texas Instruments Incorporated
MPU9150AccelerometerManager_Task.asm                                 PAGE   14

     716                    
     717                    ;*****************************************************************************
     718                    ;* FUNCTION NAME: I2CMWriteBatched                                           *
     719                    ;*                                                                           *
     720                    ;*   Regs Modified     : A1,A2,A3,A4,V9,SP,LR,SR,D0,D0_hi,D1,D1_hi,D2,D2_hi, *
     721                    ;*                           D3,D3_hi,D4,D4_hi,D5,D5_hi,D6,D6_hi,D7,D7_hi,   *
     722                    ;*                           FPEXC,FPSCR                                     *
     723                    ;*   Regs Used         : A1,A2,A3,A4,V9,SP,LR,SR,D0,D0_hi,D1,D1_hi,D2,D2_hi, *
     724                    ;*                           D3,D3_hi,D4,D4_hi,D5,D5_hi,D6,D6_hi,D7,D7_hi,   *
     725                    ;*                           FPEXC,FPSCR                                     *
     726                    ;*   Local Frame Size  : 24 Args + 16 Auto + 4 Save = 44 byte                *
     727                    ;*****************************************************************************
     728 00000000           I2CMWriteBatched:
     729                    ;* --------------------------------------------------------------------------*
     730                            .dwcfi  cfa_offset, 0
     731 00000000 B500              PUSH      {LR}                  ; [DPU_3_PIPE]  ; [ORIG 16-BIT INS]
     732                            .dwcfi  cfa_offset, 4
     733                            .dwcfi  save_reg_to_mem, 14, -4
     734 00000002 0D2CF1AD          SUB       SP, SP, #44           ; [DPU_3_PIPE]  ; [KEEP 32-BIT INS]
     735                            .dwcfi  cfa_offset, 48
     736                    $C$DW$95        .dwtag  DW_TAG_variable
     737                            .dwattr $C$DW$95, DW_AT_name("psInst")
     738                            .dwattr $C$DW$95, DW_AT_TI_symbol_name("psInst")
     739                            .dwattr $C$DW$95, DW_AT_type(*$C$DW$T$34)
     740                            .dwattr $C$DW$95, DW_AT_location[DW_OP_breg13 24]
     741                    
     742                    $C$DW$96        .dwtag  DW_TAG_variable
     743                            .dwattr $C$DW$96, DW_AT_name("ui8Addr")
     744                            .dwattr $C$DW$96, DW_AT_TI_symbol_name("ui8Addr")
     745                            .dwattr $C$DW$96, DW_AT_type(*$C$DW$T$25)
     746                            .dwattr $C$DW$96, DW_AT_location[DW_OP_breg13 28]
     747                    
     748                    $C$DW$97        .dwtag  DW_TAG_variable
     749                            .dwattr $C$DW$97, DW_AT_name("pui8Data")
     750                            .dwattr $C$DW$97, DW_AT_TI_symbol_name("pui8Data")
     751                            .dwattr $C$DW$97, DW_AT_type(*$C$DW$T$21)
     752                            .dwattr $C$DW$97, DW_AT_location[DW_OP_breg13 32]
     753                    
     754                    $C$DW$98        .dwtag  DW_TAG_variable
     755                            .dwattr $C$DW$98, DW_AT_name("ui16Count")
     756                            .dwattr $C$DW$98, DW_AT_TI_symbol_name("ui16Count")
     757                            .dwattr $C$DW$98, DW_AT_type(*$C$DW$T$156)
     758                            .dwattr $C$DW$98, DW_AT_location[DW_OP_breg13 36]
     759                    
     760 00000006 9309              STR       A4, [SP, #36]         ; [DPU_3_PIPE] |493|  ; [ORIG 16-BIT INS]
     761 00000008 9208              STR       A3, [SP, #32]         ; [DPU_3_PIPE] |493|  ; [ORIG 16-BIT INS]
     762 0000000a 9107              STR       A2, [SP, #28]         ; [DPU_3_PIPE] |493|  ; [ORIG 16-BIT INS]
     763 0000000c 9006              STR       A1, [SP, #24]         ; [DPU_3_PIPE] |493|  ; [ORIG 16-BIT INS]
     764                            .dwpsn  file "C:/TI_CodeComposer/TivaWare/sensorlib/i2cm_drv.h",line 494,column 5,is_stmt,isa 
     765 0000000e 980C              LDR       A1, [SP, #48]         ; [DPU_3_PIPE] |494|  ; [ORIG 16-BIT INS]
     766 00000010 9000              STR       A1, [SP, #0]          ; [DPU_3_PIPE] |494|  ; [ORIG 16-BIT INS]
     767 00000012 2000              MOVS      A1, #0                ; [DPU_3_PIPE] |494|  ; [ORIG 16-BIT INS]
     768 00000014 9001              STR       A1, [SP, #4]          ; [DPU_3_PIPE] |494|  ; [ORIG 16-BIT INS]
     769 00000016 2000              MOVS      A1, #0                ; [DPU_3_PIPE] |494|  ; [ORIG 16-BIT INS]
     770 00000018 9002              STR       A1, [SP, #8]          ; [DPU_3_PIPE] |494|  ; [ORIG 16-BIT INS]
TI ARM Assembler PC v15.12.1 Thu Nov 03 13:01:19 2016

Tools Copyright (c) 1996-2015 Texas Instruments Incorporated
MPU9150AccelerometerManager_Task.asm                                 PAGE   15

     771 0000001a 2000              MOVS      A1, #0                ; [DPU_3_PIPE] |494|  ; [ORIG 16-BIT INS]
     772 0000001c 9003              STR       A1, [SP, #12]         ; [DPU_3_PIPE] |494|  ; [ORIG 16-BIT INS]
     773 0000001e 980D              LDR       A1, [SP, #52]         ; [DPU_3_PIPE] |494|  ; [ORIG 16-BIT INS]
     774 00000020 9004              STR       A1, [SP, #16]         ; [DPU_3_PIPE] |494|  ; [ORIG 16-BIT INS]
     775 00000022 980E              LDR       A1, [SP, #56]         ; [DPU_3_PIPE] |494|  ; [ORIG 16-BIT INS]
     776 00000024 9005              STR       A1, [SP, #20]         ; [DPU_3_PIPE] |494|  ; [ORIG 16-BIT INS]
     777 00000026 9B09              LDR       A4, [SP, #36]         ; [DPU_3_PIPE] |494|  ; [ORIG 16-BIT INS]
     778 00000028 9A08              LDR       A3, [SP, #32]         ; [DPU_3_PIPE] |494|  ; [ORIG 16-BIT INS]
     779 0000002a 9907              LDR       A2, [SP, #28]         ; [DPU_3_PIPE] |494|  ; [ORIG 16-BIT INS]
     780 0000002c 9806              LDR       A1, [SP, #24]         ; [DPU_3_PIPE] |494|  ; [ORIG 16-BIT INS]
     781                    $C$DW$99        .dwtag  DW_TAG_TI_branch
     782                            .dwattr $C$DW$99, DW_AT_low_pc(0x00)
     783                            .dwattr $C$DW$99, DW_AT_name("I2CMCommand")
     784                            .dwattr $C$DW$99, DW_AT_TI_call
     785                    
     786 0000002e FFFEF7FF!         BL        I2CMCommand           ; [DPU_3_PIPE] |494|  ; [KEEP 32-BIT INS]
     787                            ; CALL OCCURS {I2CMCommand }     ; [] |494| 
     788                            .dwpsn  file "C:/TI_CodeComposer/TivaWare/sensorlib/i2cm_drv.h",line 496,column 1,is_stmt,isa 
     789 00000032 B00B              ADD       SP, SP, #44           ; [DPU_3_PIPE]  ; [ORIG 16-BIT INS]
     790                            .dwcfi  cfa_offset, 4
     791                    $C$DW$100       .dwtag  DW_TAG_TI_branch
     792                            .dwattr $C$DW$100, DW_AT_low_pc(0x00)
     793                            .dwattr $C$DW$100, DW_AT_TI_return
     794                    
     795 00000034 BD00              POP       {PC}                  ; [DPU_3_PIPE]  ; [ORIG 16-BIT INS]
     796                            .dwcfi  cfa_offset, 0
     797                            ; BRANCH OCCURS                  ; [] 
     798                            .dwattr $C$DW$87, DW_AT_TI_end_file("C:/TI_CodeComposer/TivaWare/sensorlib/i2cm_drv.h")
     799                            .dwattr $C$DW$87, DW_AT_TI_end_line(0x1f0)
     800                            .dwattr $C$DW$87, DW_AT_TI_end_column(0x01)
     801                            .dwendentry
     802                            .dwendtag $C$DW$87
     803                    
     804 00000000                   .sect   ".text:I2CMReadBatched"
     805                            .clink
     806                            .thumbfunc I2CMReadBatched
     807 00000000                   .thumb
     808                            .global I2CMReadBatched
     809                    
     810                    $C$DW$101       .dwtag  DW_TAG_subprogram
     811                            .dwattr $C$DW$101, DW_AT_name("I2CMReadBatched")
     812                            .dwattr $C$DW$101, DW_AT_low_pc(I2CMReadBatched)
     813                            .dwattr $C$DW$101, DW_AT_high_pc(0x00)
     814                            .dwattr $C$DW$101, DW_AT_TI_symbol_name("I2CMReadBatched")
     815                            .dwattr $C$DW$101, DW_AT_external
     816                            .dwattr $C$DW$101, DW_AT_type(*$C$DW$T$25)
     817                            .dwattr $C$DW$101, DW_AT_TI_begin_file("C:/TI_CodeComposer/TivaWare/sensorlib/i2cm_drv.h")
     818                            .dwattr $C$DW$101, DW_AT_TI_begin_line(0x1f8)
     819                            .dwattr $C$DW$101, DW_AT_TI_begin_column(0x01)
     820                            .dwattr $C$DW$101, DW_AT_decl_file("C:/TI_CodeComposer/TivaWare/sensorlib/i2cm_drv.h")
     821                            .dwattr $C$DW$101, DW_AT_decl_line(0x1f8)
     822                            .dwattr $C$DW$101, DW_AT_decl_column(0x01)
     823                            .dwattr $C$DW$101, DW_AT_TI_max_frame_size(0x30)
     824                            .dwpsn  file "C:/TI_CodeComposer/TivaWare/sensorlib/i2cm_drv.h",line 509,column 1,is_stmt,addr
     825                    
TI ARM Assembler PC v15.12.1 Thu Nov 03 13:01:19 2016

Tools Copyright (c) 1996-2015 Texas Instruments Incorporated
MPU9150AccelerometerManager_Task.asm                                 PAGE   16

     826                            .dwfde $C$DW$CIE, I2CMReadBatched
     827                    $C$DW$102       .dwtag  DW_TAG_formal_parameter
     828                            .dwattr $C$DW$102, DW_AT_name("psInst")
     829                            .dwattr $C$DW$102, DW_AT_TI_symbol_name("psInst")
     830                            .dwattr $C$DW$102, DW_AT_type(*$C$DW$T$34)
     831                            .dwattr $C$DW$102, DW_AT_location[DW_OP_reg0]
     832                    
     833                    $C$DW$103       .dwtag  DW_TAG_formal_parameter
     834                            .dwattr $C$DW$103, DW_AT_name("ui8Addr")
     835                            .dwattr $C$DW$103, DW_AT_TI_symbol_name("ui8Addr")
     836                            .dwattr $C$DW$103, DW_AT_type(*$C$DW$T$25)
     837                            .dwattr $C$DW$103, DW_AT_location[DW_OP_reg1]
     838                    
     839                    $C$DW$104       .dwtag  DW_TAG_formal_parameter
     840                            .dwattr $C$DW$104, DW_AT_name("pui8WriteData")
     841                            .dwattr $C$DW$104, DW_AT_TI_symbol_name("pui8WriteData")
     842                            .dwattr $C$DW$104, DW_AT_type(*$C$DW$T$21)
     843                            .dwattr $C$DW$104, DW_AT_location[DW_OP_reg2]
     844                    
     845                    $C$DW$105       .dwtag  DW_TAG_formal_parameter
     846                            .dwattr $C$DW$105, DW_AT_name("ui16WriteCount")
     847                            .dwattr $C$DW$105, DW_AT_TI_symbol_name("ui16WriteCount")
     848                            .dwattr $C$DW$105, DW_AT_type(*$C$DW$T$156)
     849                            .dwattr $C$DW$105, DW_AT_location[DW_OP_reg3]
     850                    
     851                    $C$DW$106       .dwtag  DW_TAG_formal_parameter
     852                            .dwattr $C$DW$106, DW_AT_name("ui16WriteBatchSize")
     853                            .dwattr $C$DW$106, DW_AT_TI_symbol_name("ui16WriteBatchSize")
     854                            .dwattr $C$DW$106, DW_AT_type(*$C$DW$T$156)
     855                            .dwattr $C$DW$106, DW_AT_location[DW_OP_breg13 48]
     856                    
     857                    $C$DW$107       .dwtag  DW_TAG_formal_parameter
     858                            .dwattr $C$DW$107, DW_AT_name("pui8ReadData")
     859                            .dwattr $C$DW$107, DW_AT_TI_symbol_name("pui8ReadData")
     860                            .dwattr $C$DW$107, DW_AT_type(*$C$DW$T$23)
     861                            .dwattr $C$DW$107, DW_AT_location[DW_OP_breg13 52]
     862                    
     863                    $C$DW$108       .dwtag  DW_TAG_formal_parameter
     864                            .dwattr $C$DW$108, DW_AT_name("ui16ReadCount")
     865                            .dwattr $C$DW$108, DW_AT_TI_symbol_name("ui16ReadCount")
     866                            .dwattr $C$DW$108, DW_AT_type(*$C$DW$T$156)
     867                            .dwattr $C$DW$108, DW_AT_location[DW_OP_breg13 56]
     868                    
     869                    $C$DW$109       .dwtag  DW_TAG_formal_parameter
     870                            .dwattr $C$DW$109, DW_AT_name("ui16ReadBatchSize")
     871                            .dwattr $C$DW$109, DW_AT_TI_symbol_name("ui16ReadBatchSize")
     872                            .dwattr $C$DW$109, DW_AT_type(*$C$DW$T$156)
     873                            .dwattr $C$DW$109, DW_AT_location[DW_OP_breg13 60]
     874                    
     875                    $C$DW$110       .dwtag  DW_TAG_formal_parameter
     876                            .dwattr $C$DW$110, DW_AT_name("pfnCallback")
     877                            .dwattr $C$DW$110, DW_AT_TI_symbol_name("pfnCallback")
     878                            .dwattr $C$DW$110, DW_AT_type(*$C$DW$T$28)
     879                            .dwattr $C$DW$110, DW_AT_location[DW_OP_breg13 64]
     880                    
TI ARM Assembler PC v15.12.1 Thu Nov 03 13:01:19 2016

Tools Copyright (c) 1996-2015 Texas Instruments Incorporated
MPU9150AccelerometerManager_Task.asm                                 PAGE   17

     881                    $C$DW$111       .dwtag  DW_TAG_formal_parameter
     882                            .dwattr $C$DW$111, DW_AT_name("pvCallbackData")
     883                            .dwattr $C$DW$111, DW_AT_TI_symbol_name("pvCallbackData")
     884                            .dwattr $C$DW$111, DW_AT_type(*$C$DW$T$3)
     885                            .dwattr $C$DW$111, DW_AT_location[DW_OP_breg13 68]
     886                    
     887                    
     888                    ;*****************************************************************************
     889                    ;* FUNCTION NAME: I2CMReadBatched                                            *
     890                    ;*                                                                           *
     891                    ;*   Regs Modified     : A1,A2,A3,A4,V9,SP,LR,SR,D0,D0_hi,D1,D1_hi,D2,D2_hi, *
     892                    ;*                           D3,D3_hi,D4,D4_hi,D5,D5_hi,D6,D6_hi,D7,D7_hi,   *
     893                    ;*                           FPEXC,FPSCR                                     *
     894                    ;*   Regs Used         : A1,A2,A3,A4,V9,SP,LR,SR,D0,D0_hi,D1,D1_hi,D2,D2_hi, *
     895                    ;*                           D3,D3_hi,D4,D4_hi,D5,D5_hi,D6,D6_hi,D7,D7_hi,   *
     896                    ;*                           FPEXC,FPSCR                                     *
     897                    ;*   Local Frame Size  : 24 Args + 16 Auto + 4 Save = 44 byte                *
     898                    ;*****************************************************************************
     899 00000000           I2CMReadBatched:
     900                    ;* --------------------------------------------------------------------------*
     901                            .dwcfi  cfa_offset, 0
     902 00000000 B500              PUSH      {LR}                  ; [DPU_3_PIPE]  ; [ORIG 16-BIT INS]
     903                            .dwcfi  cfa_offset, 4
     904                            .dwcfi  save_reg_to_mem, 14, -4
     905 00000002 0D2CF1AD          SUB       SP, SP, #44           ; [DPU_3_PIPE]  ; [KEEP 32-BIT INS]
     906                            .dwcfi  cfa_offset, 48
     907                    $C$DW$112       .dwtag  DW_TAG_variable
     908                            .dwattr $C$DW$112, DW_AT_name("psInst")
     909                            .dwattr $C$DW$112, DW_AT_TI_symbol_name("psInst")
     910                            .dwattr $C$DW$112, DW_AT_type(*$C$DW$T$34)
     911                            .dwattr $C$DW$112, DW_AT_location[DW_OP_breg13 24]
     912                    
     913                    $C$DW$113       .dwtag  DW_TAG_variable
     914                            .dwattr $C$DW$113, DW_AT_name("ui8Addr")
     915                            .dwattr $C$DW$113, DW_AT_TI_symbol_name("ui8Addr")
     916                            .dwattr $C$DW$113, DW_AT_type(*$C$DW$T$25)
     917                            .dwattr $C$DW$113, DW_AT_location[DW_OP_breg13 28]
     918                    
     919                    $C$DW$114       .dwtag  DW_TAG_variable
     920                            .dwattr $C$DW$114, DW_AT_name("pui8WriteData")
     921                            .dwattr $C$DW$114, DW_AT_TI_symbol_name("pui8WriteData")
     922                            .dwattr $C$DW$114, DW_AT_type(*$C$DW$T$21)
     923                            .dwattr $C$DW$114, DW_AT_location[DW_OP_breg13 32]
     924                    
     925                    $C$DW$115       .dwtag  DW_TAG_variable
     926                            .dwattr $C$DW$115, DW_AT_name("ui16WriteCount")
     927                            .dwattr $C$DW$115, DW_AT_TI_symbol_name("ui16WriteCount")
     928                            .dwattr $C$DW$115, DW_AT_type(*$C$DW$T$156)
     929                            .dwattr $C$DW$115, DW_AT_location[DW_OP_breg13 36]
     930                    
     931 00000006 9309              STR       A4, [SP, #36]         ; [DPU_3_PIPE] |509|  ; [ORIG 16-BIT INS]
     932 00000008 9208              STR       A3, [SP, #32]         ; [DPU_3_PIPE] |509|  ; [ORIG 16-BIT INS]
     933 0000000a 9107              STR       A2, [SP, #28]         ; [DPU_3_PIPE] |509|  ; [ORIG 16-BIT INS]
     934 0000000c 9006              STR       A1, [SP, #24]         ; [DPU_3_PIPE] |509|  ; [ORIG 16-BIT INS]
     935                            .dwpsn  file "C:/TI_CodeComposer/TivaWare/sensorlib/i2cm_drv.h",line 510,column 5,is_stmt,isa 
TI ARM Assembler PC v15.12.1 Thu Nov 03 13:01:19 2016

Tools Copyright (c) 1996-2015 Texas Instruments Incorporated
MPU9150AccelerometerManager_Task.asm                                 PAGE   18

     936 0000000e 980C              LDR       A1, [SP, #48]         ; [DPU_3_PIPE] |510|  ; [ORIG 16-BIT INS]
     937 00000010 9000              STR       A1, [SP, #0]          ; [DPU_3_PIPE] |510|  ; [ORIG 16-BIT INS]
     938 00000012 980D              LDR       A1, [SP, #52]         ; [DPU_3_PIPE] |510|  ; [ORIG 16-BIT INS]
     939 00000014 9001              STR       A1, [SP, #4]          ; [DPU_3_PIPE] |510|  ; [ORIG 16-BIT INS]
     940 00000016 980E              LDR       A1, [SP, #56]         ; [DPU_3_PIPE] |510|  ; [ORIG 16-BIT INS]
     941 00000018 9002              STR       A1, [SP, #8]          ; [DPU_3_PIPE] |510|  ; [ORIG 16-BIT INS]
     942 0000001a 980F              LDR       A1, [SP, #60]         ; [DPU_3_PIPE] |510|  ; [ORIG 16-BIT INS]
     943 0000001c 9003              STR       A1, [SP, #12]         ; [DPU_3_PIPE] |510|  ; [ORIG 16-BIT INS]
     944 0000001e 9810              LDR       A1, [SP, #64]         ; [DPU_3_PIPE] |510|  ; [ORIG 16-BIT INS]
     945 00000020 9004              STR       A1, [SP, #16]         ; [DPU_3_PIPE] |510|  ; [ORIG 16-BIT INS]
     946 00000022 9811              LDR       A1, [SP, #68]         ; [DPU_3_PIPE] |510|  ; [ORIG 16-BIT INS]
     947 00000024 9005              STR       A1, [SP, #20]         ; [DPU_3_PIPE] |510|  ; [ORIG 16-BIT INS]
     948 00000026 9B09              LDR       A4, [SP, #36]         ; [DPU_3_PIPE] |510|  ; [ORIG 16-BIT INS]
     949 00000028 9A08              LDR       A3, [SP, #32]         ; [DPU_3_PIPE] |510|  ; [ORIG 16-BIT INS]
     950 0000002a 9907              LDR       A2, [SP, #28]         ; [DPU_3_PIPE] |510|  ; [ORIG 16-BIT INS]
     951 0000002c 9806              LDR       A1, [SP, #24]         ; [DPU_3_PIPE] |510|  ; [ORIG 16-BIT INS]
     952                    $C$DW$116       .dwtag  DW_TAG_TI_branch
     953                            .dwattr $C$DW$116, DW_AT_low_pc(0x00)
     954                            .dwattr $C$DW$116, DW_AT_name("I2CMCommand")
     955                            .dwattr $C$DW$116, DW_AT_TI_call
     956                    
     957 0000002e FFFEF7FF!         BL        I2CMCommand           ; [DPU_3_PIPE] |510|  ; [KEEP 32-BIT INS]
     958                            ; CALL OCCURS {I2CMCommand }     ; [] |510| 
     959                            .dwpsn  file "C:/TI_CodeComposer/TivaWare/sensorlib/i2cm_drv.h",line 513,column 1,is_stmt,isa 
     960 00000032 B00B              ADD       SP, SP, #44           ; [DPU_3_PIPE]  ; [ORIG 16-BIT INS]
     961                            .dwcfi  cfa_offset, 4
     962                    $C$DW$117       .dwtag  DW_TAG_TI_branch
     963                            .dwattr $C$DW$117, DW_AT_low_pc(0x00)
     964                            .dwattr $C$DW$117, DW_AT_TI_return
     965                    
     966 00000034 BD00              POP       {PC}                  ; [DPU_3_PIPE]  ; [ORIG 16-BIT INS]
     967                            .dwcfi  cfa_offset, 0
     968                            ; BRANCH OCCURS                  ; [] 
     969                            .dwattr $C$DW$101, DW_AT_TI_end_file("C:/TI_CodeComposer/TivaWare/sensorlib/i2cm_drv.h")
     970                            .dwattr $C$DW$101, DW_AT_TI_end_line(0x201)
     971                            .dwattr $C$DW$101, DW_AT_TI_end_column(0x01)
     972                            .dwendentry
     973                            .dwendtag $C$DW$101
     974                    
     975 00000000                   .sect   ".text:I2CMReadModifyWrite16BE"
     976                            .clink
     977                            .thumbfunc I2CMReadModifyWrite16BE
     978 00000000                   .thumb
     979                            .global I2CMReadModifyWrite16BE
     980                    
     981                    $C$DW$118       .dwtag  DW_TAG_subprogram
     982                            .dwattr $C$DW$118, DW_AT_name("I2CMReadModifyWrite16BE")
     983                            .dwattr $C$DW$118, DW_AT_low_pc(I2CMReadModifyWrite16BE)
     984                            .dwattr $C$DW$118, DW_AT_high_pc(0x00)
     985                            .dwattr $C$DW$118, DW_AT_TI_symbol_name("I2CMReadModifyWrite16BE")
     986                            .dwattr $C$DW$118, DW_AT_external
     987                            .dwattr $C$DW$118, DW_AT_type(*$C$DW$T$25)
     988                            .dwattr $C$DW$118, DW_AT_TI_begin_file("C:/TI_CodeComposer/TivaWare/sensorlib/i2cm_drv.h")
     989                            .dwattr $C$DW$118, DW_AT_TI_begin_line(0x209)
     990                            .dwattr $C$DW$118, DW_AT_TI_begin_column(0x01)
TI ARM Assembler PC v15.12.1 Thu Nov 03 13:01:19 2016

Tools Copyright (c) 1996-2015 Texas Instruments Incorporated
MPU9150AccelerometerManager_Task.asm                                 PAGE   19

     991                            .dwattr $C$DW$118, DW_AT_decl_file("C:/TI_CodeComposer/TivaWare/sensorlib/i2cm_drv.h")
     992                            .dwattr $C$DW$118, DW_AT_decl_line(0x209)
     993                            .dwattr $C$DW$118, DW_AT_decl_column(0x01)
     994                            .dwattr $C$DW$118, DW_AT_TI_max_frame_size(0x28)
     995                            .dwpsn  file "C:/TI_CodeComposer/TivaWare/sensorlib/i2cm_drv.h",line 526,column 1,is_stmt,addr
     996                    
     997                            .dwfde $C$DW$CIE, I2CMReadModifyWrite16BE
     998                    $C$DW$119       .dwtag  DW_TAG_formal_parameter
     999                            .dwattr $C$DW$119, DW_AT_name("psInst")
    1000                            .dwattr $C$DW$119, DW_AT_TI_symbol_name("psInst")
    1001                            .dwattr $C$DW$119, DW_AT_type(*$C$DW$T$95)
    1002                            .dwattr $C$DW$119, DW_AT_location[DW_OP_reg0]
    1003                    
    1004                    $C$DW$120       .dwtag  DW_TAG_formal_parameter
    1005                            .dwattr $C$DW$120, DW_AT_name("psI2CInst")
    1006                            .dwattr $C$DW$120, DW_AT_TI_symbol_name("psI2CInst")
    1007                            .dwattr $C$DW$120, DW_AT_type(*$C$DW$T$34)
    1008                            .dwattr $C$DW$120, DW_AT_location[DW_OP_reg1]
    1009                    
    1010                    $C$DW$121       .dwtag  DW_TAG_formal_parameter
    1011                            .dwattr $C$DW$121, DW_AT_name("ui8Addr")
    1012                            .dwattr $C$DW$121, DW_AT_TI_symbol_name("ui8Addr")
    1013                            .dwattr $C$DW$121, DW_AT_type(*$C$DW$T$25)
    1014                            .dwattr $C$DW$121, DW_AT_location[DW_OP_reg2]
    1015                    
    1016                    $C$DW$122       .dwtag  DW_TAG_formal_parameter
    1017                            .dwattr $C$DW$122, DW_AT_name("ui8Reg")
    1018                            .dwattr $C$DW$122, DW_AT_TI_symbol_name("ui8Reg")
    1019                            .dwattr $C$DW$122, DW_AT_type(*$C$DW$T$25)
    1020                            .dwattr $C$DW$122, DW_AT_location[DW_OP_reg3]
    1021                    
    1022                    $C$DW$123       .dwtag  DW_TAG_formal_parameter
    1023                            .dwattr $C$DW$123, DW_AT_name("ui16Mask")
    1024                            .dwattr $C$DW$123, DW_AT_TI_symbol_name("ui16Mask")
    1025                            .dwattr $C$DW$123, DW_AT_type(*$C$DW$T$156)
    1026                            .dwattr $C$DW$123, DW_AT_location[DW_OP_breg13 40]
    1027                    
    1028                    $C$DW$124       .dwtag  DW_TAG_formal_parameter
    1029                            .dwattr $C$DW$124, DW_AT_name("ui16Value")
    1030                            .dwattr $C$DW$124, DW_AT_TI_symbol_name("ui16Value")
    1031                            .dwattr $C$DW$124, DW_AT_type(*$C$DW$T$156)
    1032                            .dwattr $C$DW$124, DW_AT_location[DW_OP_breg13 44]
    1033                    
    1034                    $C$DW$125       .dwtag  DW_TAG_formal_parameter
    1035                            .dwattr $C$DW$125, DW_AT_name("pfnCallback")
    1036                            .dwattr $C$DW$125, DW_AT_TI_symbol_name("pfnCallback")
    1037                            .dwattr $C$DW$125, DW_AT_type(*$C$DW$T$28)
    1038                            .dwattr $C$DW$125, DW_AT_location[DW_OP_breg13 48]
    1039                    
    1040                    $C$DW$126       .dwtag  DW_TAG_formal_parameter
    1041                            .dwattr $C$DW$126, DW_AT_name("pvCallbackData")
    1042                            .dwattr $C$DW$126, DW_AT_TI_symbol_name("pvCallbackData")
    1043                            .dwattr $C$DW$126, DW_AT_type(*$C$DW$T$3)
    1044                            .dwattr $C$DW$126, DW_AT_location[DW_OP_breg13 52]
    1045                    
TI ARM Assembler PC v15.12.1 Thu Nov 03 13:01:19 2016

Tools Copyright (c) 1996-2015 Texas Instruments Incorporated
MPU9150AccelerometerManager_Task.asm                                 PAGE   20

    1046                    
    1047                    ;*****************************************************************************
    1048                    ;* FUNCTION NAME: I2CMReadModifyWrite16BE                                    *
    1049                    ;*                                                                           *
    1050                    ;*   Regs Modified     : A1,A2,A3,A4,V9,SP,LR,SR,D0,D0_hi,D1,D1_hi,D2,D2_hi, *
    1051                    ;*                           D3,D3_hi,D4,D4_hi,D5,D5_hi,D6,D6_hi,D7,D7_hi,   *
    1052                    ;*                           FPEXC,FPSCR                                     *
    1053                    ;*   Regs Used         : A1,A2,A3,A4,V9,SP,LR,SR,D0,D0_hi,D1,D1_hi,D2,D2_hi, *
    1054                    ;*                           D3,D3_hi,D4,D4_hi,D5,D5_hi,D6,D6_hi,D7,D7_hi,   *
    1055                    ;*                           FPEXC,FPSCR                                     *
    1056                    ;*   Local Frame Size  : 16 Args + 16 Auto + 4 Save = 36 byte                *
    1057                    ;*****************************************************************************
    1058 00000000           I2CMReadModifyWrite16BE:
    1059                    ;* --------------------------------------------------------------------------*
    1060                            .dwcfi  cfa_offset, 0
    1061 00000000 B500              PUSH      {LR}                  ; [DPU_3_PIPE]  ; [ORIG 16-BIT INS]
    1062                            .dwcfi  cfa_offset, 4
    1063                            .dwcfi  save_reg_to_mem, 14, -4
    1064 00000002 0D24F1AD          SUB       SP, SP, #36           ; [DPU_3_PIPE]  ; [KEEP 32-BIT INS]
    1065                            .dwcfi  cfa_offset, 40
    1066                    $C$DW$127       .dwtag  DW_TAG_variable
    1067                            .dwattr $C$DW$127, DW_AT_name("psInst")
    1068                            .dwattr $C$DW$127, DW_AT_TI_symbol_name("psInst")
    1069                            .dwattr $C$DW$127, DW_AT_type(*$C$DW$T$95)
    1070                            .dwattr $C$DW$127, DW_AT_location[DW_OP_breg13 16]
    1071                    
    1072                    $C$DW$128       .dwtag  DW_TAG_variable
    1073                            .dwattr $C$DW$128, DW_AT_name("psI2CInst")
    1074                            .dwattr $C$DW$128, DW_AT_TI_symbol_name("psI2CInst")
    1075                            .dwattr $C$DW$128, DW_AT_type(*$C$DW$T$34)
    1076                            .dwattr $C$DW$128, DW_AT_location[DW_OP_breg13 20]
    1077                    
    1078                    $C$DW$129       .dwtag  DW_TAG_variable
    1079                            .dwattr $C$DW$129, DW_AT_name("ui8Addr")
    1080                            .dwattr $C$DW$129, DW_AT_TI_symbol_name("ui8Addr")
    1081                            .dwattr $C$DW$129, DW_AT_type(*$C$DW$T$25)
    1082                            .dwattr $C$DW$129, DW_AT_location[DW_OP_breg13 24]
    1083                    
    1084                    $C$DW$130       .dwtag  DW_TAG_variable
    1085                            .dwattr $C$DW$130, DW_AT_name("ui8Reg")
    1086                            .dwattr $C$DW$130, DW_AT_TI_symbol_name("ui8Reg")
    1087                            .dwattr $C$DW$130, DW_AT_type(*$C$DW$T$25)
    1088                            .dwattr $C$DW$130, DW_AT_location[DW_OP_breg13 28]
    1089                    
    1090 00000006 9307              STR       A4, [SP, #28]         ; [DPU_3_PIPE] |526|  ; [ORIG 16-BIT INS]
    1091 00000008 9206              STR       A3, [SP, #24]         ; [DPU_3_PIPE] |526|  ; [ORIG 16-BIT INS]
    1092 0000000a 9105              STR       A2, [SP, #20]         ; [DPU_3_PIPE] |526|  ; [ORIG 16-BIT INS]
    1093 0000000c 9004              STR       A1, [SP, #16]         ; [DPU_3_PIPE] |526|  ; [ORIG 16-BIT INS]
    1094                            .dwpsn  file "C:/TI_CodeComposer/TivaWare/sensorlib/i2cm_drv.h",line 527,column 5,is_stmt,isa 
    1095 0000000e 980A              LDR       A1, [SP, #40]         ; [DPU_3_PIPE] |527|  ; [ORIG 16-BIT INS]
    1096 00000010 990A              LDR       A2, [SP, #40]         ; [DPU_3_PIPE] |527|  ; [ORIG 16-BIT INS]
    1097 00000012 407FF400          AND       A1, A1, #65280        ; [DPU_3_PIPE] |527|  ; [KEEP 32-BIT INS]
    1098 00000016 01FFF001          AND       A2, A2, #255          ; [DPU_3_PIPE] |527|  ; [KEEP 32-BIT INS]
    1099 0000001a 0A00              LSRS      A1, A1, #8            ; [DPU_3_PIPE] |527|  ; [ORIG 16-BIT INS]
    1100 0000001c 2001EA40          ORR       A1, A1, A2, LSL #8    ; [DPU_3_PIPE] |527|  ; [KEEP 32-BIT INS]
TI ARM Assembler PC v15.12.1 Thu Nov 03 13:01:19 2016

Tools Copyright (c) 1996-2015 Texas Instruments Incorporated
MPU9150AccelerometerManager_Task.asm                                 PAGE   21

    1101 00000020 990B              LDR       A2, [SP, #44]         ; [DPU_3_PIPE] |527|  ; [ORIG 16-BIT INS]
    1102 00000022 9000              STR       A1, [SP, #0]          ; [DPU_3_PIPE] |527|  ; [ORIG 16-BIT INS]
    1103 00000024 980B              LDR       A1, [SP, #44]         ; [DPU_3_PIPE] |527|  ; [ORIG 16-BIT INS]
    1104 00000026 01FFF001          AND       A2, A2, #255          ; [DPU_3_PIPE] |527|  ; [KEEP 32-BIT INS]
    1105 0000002a 407FF400          AND       A1, A1, #65280        ; [DPU_3_PIPE] |527|  ; [KEEP 32-BIT INS]
    1106 0000002e 0A00              LSRS      A1, A1, #8            ; [DPU_3_PIPE] |527|  ; [ORIG 16-BIT INS]
    1107 00000030 2001EA40          ORR       A1, A1, A2, LSL #8    ; [DPU_3_PIPE] |527|  ; [KEEP 32-BIT INS]
    1108 00000034 9001              STR       A1, [SP, #4]          ; [DPU_3_PIPE] |527|  ; [ORIG 16-BIT INS]
    1109 00000036 980C              LDR       A1, [SP, #48]         ; [DPU_3_PIPE] |527|  ; [ORIG 16-BIT INS]
    1110 00000038 9002              STR       A1, [SP, #8]          ; [DPU_3_PIPE] |527|  ; [ORIG 16-BIT INS]
    1111 0000003a 980D              LDR       A1, [SP, #52]         ; [DPU_3_PIPE] |527|  ; [ORIG 16-BIT INS]
    1112 0000003c 9003              STR       A1, [SP, #12]         ; [DPU_3_PIPE] |527|  ; [ORIG 16-BIT INS]
    1113 0000003e 9A06              LDR       A3, [SP, #24]         ; [DPU_3_PIPE] |527|  ; [ORIG 16-BIT INS]
    1114 00000040 9B07              LDR       A4, [SP, #28]         ; [DPU_3_PIPE] |527|  ; [ORIG 16-BIT INS]
    1115 00000042 9905              LDR       A2, [SP, #20]         ; [DPU_3_PIPE] |527|  ; [ORIG 16-BIT INS]
    1116 00000044 9804              LDR       A1, [SP, #16]         ; [DPU_3_PIPE] |527|  ; [ORIG 16-BIT INS]
    1117                    $C$DW$131       .dwtag  DW_TAG_TI_branch
    1118                            .dwattr $C$DW$131, DW_AT_low_pc(0x00)
    1119                            .dwattr $C$DW$131, DW_AT_name("I2CMReadModifyWrite16LE")
    1120                            .dwattr $C$DW$131, DW_AT_TI_call
    1121                    
    1122 00000046 FFFEF7FF!         BL        I2CMReadModifyWrite16LE ; [DPU_3_PIPE] |527|  ; [KEEP 32-BIT INS]
    1123                            ; CALL OCCURS {I2CMReadModifyWrite16LE }  ; [] |527| 
    1124                            .dwpsn  file "C:/TI_CodeComposer/TivaWare/sensorlib/i2cm_drv.h",line 533,column 1,is_stmt,isa 
    1125 0000004a B009              ADD       SP, SP, #36           ; [DPU_3_PIPE]  ; [ORIG 16-BIT INS]
    1126                            .dwcfi  cfa_offset, 4
    1127                    $C$DW$132       .dwtag  DW_TAG_TI_branch
    1128                            .dwattr $C$DW$132, DW_AT_low_pc(0x00)
    1129                            .dwattr $C$DW$132, DW_AT_TI_return
    1130                    
    1131 0000004c BD00              POP       {PC}                  ; [DPU_3_PIPE]  ; [ORIG 16-BIT INS]
    1132                            .dwcfi  cfa_offset, 0
    1133                            ; BRANCH OCCURS                  ; [] 
    1134                            .dwattr $C$DW$118, DW_AT_TI_end_file("C:/TI_CodeComposer/TivaWare/sensorlib/i2cm_drv.h")
    1135                            .dwattr $C$DW$118, DW_AT_TI_end_line(0x215)
    1136                            .dwattr $C$DW$118, DW_AT_TI_end_column(0x01)
    1137                            .dwendentry
    1138                            .dwendtag $C$DW$118
    1139                    
    1140 00000000                   .sect   ".text"
    1141                            .clink
    1142                            .thumbfunc accelerometerInit
    1143 00000000                   .thumb
    1144                            .global accelerometerInit
    1145                    
    1146                    $C$DW$133       .dwtag  DW_TAG_subprogram
    1147                            .dwattr $C$DW$133, DW_AT_name("accelerometerInit")
    1148                            .dwattr $C$DW$133, DW_AT_low_pc(accelerometerInit)
    1149                            .dwattr $C$DW$133, DW_AT_high_pc(0x00)
    1150                            .dwattr $C$DW$133, DW_AT_TI_symbol_name("accelerometerInit")
    1151                            .dwattr $C$DW$133, DW_AT_external
    1152                            .dwattr $C$DW$133, DW_AT_TI_begin_file("../Tasks/MPU9150AccelerometerManager_Task.c")
    1153                            .dwattr $C$DW$133, DW_AT_TI_begin_line(0x3a)
    1154                            .dwattr $C$DW$133, DW_AT_TI_begin_column(0x0d)
    1155                            .dwattr $C$DW$133, DW_AT_decl_file("../Tasks/MPU9150AccelerometerManager_Task.c")
TI ARM Assembler PC v15.12.1 Thu Nov 03 13:01:19 2016

Tools Copyright (c) 1996-2015 Texas Instruments Incorporated
MPU9150AccelerometerManager_Task.asm                                 PAGE   22

    1156                            .dwattr $C$DW$133, DW_AT_decl_line(0x3a)
    1157                            .dwattr $C$DW$133, DW_AT_decl_column(0x0d)
    1158                            .dwattr $C$DW$133, DW_AT_TI_max_frame_size(0x10)
    1159                            .dwpsn  file "../Tasks/MPU9150AccelerometerManager_Task.c",line 58,column 32,is_stmt,address a
    1160                    
    1161                            .dwfde $C$DW$CIE, accelerometerInit
    1162                    
    1163                    ;*****************************************************************************
    1164                    ;* FUNCTION NAME: accelerometerInit                                          *
    1165                    ;*                                                                           *
    1166                    ;*   Regs Modified     : A1,A2,A3,A4,V9,SP,LR,SR,D0,D0_hi,D1,D1_hi,D2,D2_hi, *
    1167                    ;*                           D3,D3_hi,D4,D4_hi,D5,D5_hi,D6,D6_hi,D7,D7_hi,   *
    1168                    ;*                           FPEXC,FPSCR                                     *
    1169                    ;*   Regs Used         : A1,A2,A3,A4,V9,SP,LR,SR,D0,D0_hi,D1,D1_hi,D2,D2_hi, *
    1170                    ;*                           D3,D3_hi,D4,D4_hi,D5,D5_hi,D6,D6_hi,D7,D7_hi,   *
    1171                    ;*                           FPEXC,FPSCR                                     *
    1172                    ;*   Local Frame Size  : 4 Args + 4 Auto + 4 Save = 12 byte                  *
    1173                    ;*****************************************************************************
    1174 00000000           accelerometerInit:
    1175                    ;* --------------------------------------------------------------------------*
    1176                            .dwcfi  cfa_offset, 0
    1177 00000000 B50E              PUSH      {A2, A3, A4, LR}      ; [DPU_3_PIPE]  ; [ORIG 16-BIT INS]
    1178                            .dwcfi  cfa_offset, 16
    1179                            .dwcfi  save_reg_to_mem, 14, -4
    1180                            .dwcfi  save_reg_to_mem, 3, -8
    1181                            .dwcfi  save_reg_to_mem, 2, -12
    1182                            .dwcfi  save_reg_to_mem, 1, -16
    1183                            .dwpsn  file "../Tasks/MPU9150AccelerometerManager_Task.c",line 61,column 2,is_stmt,isa 1
    1184 00000002 4854              LDR       A1, $C$CON1           ; [DPU_3_PIPE] |61|  ; [ORIG 16-BIT INS]
    1185 00000004 7800              LDRB      A1, [A1, #0]          ; [DPU_3_PIPE] |61|  ; [ORIG 16-BIT INS]
    1186 00000006 B9D0              CBNZ      A1, ||$C$L2||         ; []  ; [ORIG 16-BIT INS]
    1187                            ; BRANCHCC OCCURS {||$C$L2||}    ; [] |61| 
    1188                    ;* --------------------------------------------------------------------------*
    1189                    
    1190                    $C$DW$134       .dwtag  DW_TAG_lexical_block
    1191                            .dwattr $C$DW$134, DW_AT_low_pc(0x00)
    1192                            .dwattr $C$DW$134, DW_AT_high_pc(0x00)
    1193                    $C$DW$135       .dwtag  DW_TAG_variable
    1194                            .dwattr $C$DW$135, DW_AT_name("stat9150")
    1195                            .dwattr $C$DW$135, DW_AT_TI_symbol_name("stat9150")
    1196                            .dwattr $C$DW$135, DW_AT_type(*$C$DW$T$25)
    1197                            .dwattr $C$DW$135, DW_AT_location[DW_OP_breg13 4]
    1198                    
    1199                            .dwpsn  file "../Tasks/MPU9150AccelerometerManager_Task.c",line 63,column 3,is_stmt,isa 1
    1200 00000008 4953              LDR       A2, $C$CON2           ; [DPU_3_PIPE] |63|  ; [ORIG 16-BIT INS]
    1201 0000000a 2077              MOVS      A1, #119              ; [DPU_3_PIPE] |63|  ; [ORIG 16-BIT INS]
    1202                    $C$DW$136       .dwtag  DW_TAG_TI_branch
    1203                            .dwattr $C$DW$136, DW_AT_low_pc(0x00)
    1204                            .dwattr $C$DW$136, DW_AT_name("IntRegister")
    1205                            .dwattr $C$DW$136, DW_AT_TI_call
    1206                    
    1207 0000000c FFFEF7FF!         BL        IntRegister           ; [DPU_3_PIPE] |63|  ; [KEEP 32-BIT INS]
    1208                            ; CALL OCCURS {IntRegister }     ; [] |63| 
    1209                            .dwpsn  file "../Tasks/MPU9150AccelerometerManager_Task.c",line 66,column 3,is_stmt,isa 1
    1210                    $C$DW$137       .dwtag  DW_TAG_TI_branch
TI ARM Assembler PC v15.12.1 Thu Nov 03 13:01:19 2016

Tools Copyright (c) 1996-2015 Texas Instruments Incorporated
MPU9150AccelerometerManager_Task.asm                                 PAGE   23

    1211                            .dwattr $C$DW$137, DW_AT_low_pc(0x00)
    1212                            .dwattr $C$DW$137, DW_AT_name("I2C7_Initialization")
    1213                            .dwattr $C$DW$137, DW_AT_TI_call
    1214                    
    1215 00000010 FFFEF7FF!         BL        I2C7_Initialization   ; [DPU_3_PIPE] |66|  ; [KEEP 32-BIT INS]
    1216                            ; CALL OCCURS {I2C7_Initialization }  ; [] |66| 
    1217                            .dwpsn  file "../Tasks/MPU9150AccelerometerManager_Task.c",line 70,column 3,is_stmt,isa 1
    1218 00000014 2000              MOVS      A1, #0                ; [DPU_3_PIPE] |70|  ; [ORIG 16-BIT INS]
    1219 00000016 4951              LDR       A2, $C$CON3           ; [DPU_3_PIPE] |70|  ; [ORIG 16-BIT INS]
    1220 00000018 9000              STR       A1, [SP, #0]          ; [DPU_3_PIPE] |70|  ; [ORIG 16-BIT INS]
    1221 0000001a 4B52              LDR       A4, $C$CON5           ; [DPU_3_PIPE] |70|  ; [ORIG 16-BIT INS]
    1222 0000001c 4850              LDR       A1, $C$CON4           ; [DPU_3_PIPE] |70|  ; [ORIG 16-BIT INS]
    1223 0000001e 6809              LDR       A2, [A2, #0]          ; [DPU_3_PIPE] |70|  ; [ORIG 16-BIT INS]
    1224 00000020 2268              MOVS      A3, #104              ; [DPU_3_PIPE] |70|  ; [ORIG 16-BIT INS]
    1225                    $C$DW$138       .dwtag  DW_TAG_TI_branch
    1226                            .dwattr $C$DW$138, DW_AT_low_pc(0x00)
    1227                            .dwattr $C$DW$138, DW_AT_name("MPU9150Init")
    1228                            .dwattr $C$DW$138, DW_AT_TI_call
    1229                    
    1230 00000022 FFFEF7FF!         BL        MPU9150Init           ; [DPU_3_PIPE] |70|  ; [KEEP 32-BIT INS]
    1231                            ; CALL OCCURS {MPU9150Init }     ; [] |70| 
    1232 00000026 9001              STR       A1, [SP, #4]          ; [DPU_3_PIPE] |70|  ; [ORIG 16-BIT INS]
    1233                            .dwpsn  file "../Tasks/MPU9150AccelerometerManager_Task.c",line 71,column 3,is_stmt,isa 1
    1234                    ;* --------------------------------------------------------------------------*
    1235                    ;*   BEGIN LOOP ||$C$L1||
    1236                    ;*
    1237                    ;*   Loop source line                : 71
    1238                    ;*   Loop closing brace source line  : 71
    1239                    ;*   Known Minimum Trip Count        : 1
    1240                    ;*   Known Maximum Trip Count        : 4294967295
    1241                    ;*   Known Max Trip Count Factor     : 1
    1242                    ;* --------------------------------------------------------------------------*
    1243 00000028           ||$C$L1||:    
    1244                            .dwpsn  file "../Tasks/MPU9150AccelerometerManager_Task.c",line 71,column 9,is_stmt,isa 1
    1245 00000028 484F              LDR       A1, $C$CON6           ; [DPU_3_PIPE] |71|  ; [ORIG 16-BIT INS]
    1246 0000002a 7800              LDRB      A1, [A1, #0]          ; [DPU_3_PIPE] |71|  ; [ORIG 16-BIT INS]
    1247 0000002c 2800              CMP       A1, #0                ; [DPU_3_PIPE] |71|  ; [ORIG 16-BIT INS]
    1248 0000002e D0FB              BEQ       ||$C$L1||             ; [DPU_3_PIPE] |71|  ; [ORIG 16-BIT INS]
    1249                            ; BRANCHCC OCCURS {||$C$L1||}    ; [] |71| 
    1250                    ;* --------------------------------------------------------------------------*
    1251                            .dwpsn  file "../Tasks/MPU9150AccelerometerManager_Task.c",line 74,column 3,is_stmt,isa 1
    1252 00000030 4948              LDR       A2, $C$CON1           ; [DPU_3_PIPE] |74|  ; [ORIG 16-BIT INS]
    1253 00000032 2001              MOVS      A1, #1                ; [DPU_3_PIPE] |74|  ; [ORIG 16-BIT INS]
    1254 00000034 7008              STRB      A1, [A2, #0]          ; [DPU_3_PIPE] |74|  ; [ORIG 16-BIT INS]
    1255                            .dwpsn  file "../Tasks/MPU9150AccelerometerManager_Task.c",line 76,column 3,is_stmt,isa 1
    1256 00000036 9901              LDR       A2, [SP, #4]          ; [DPU_3_PIPE] |76|  ; [ORIG 16-BIT INS]
    1257 00000038 A033              ADR       A1, $C$SL1            ; [DPU_3_PIPE] |76|  ; [ORIG 16-BIT INS]
    1258                    $C$DW$139       .dwtag  DW_TAG_TI_branch
    1259                            .dwattr $C$DW$139, DW_AT_low_pc(0x00)
    1260                            .dwattr $C$DW$139, DW_AT_name("UARTprintf")
    1261                            .dwattr $C$DW$139, DW_AT_TI_call
    1262                    
    1263 0000003a FFFEF7FF!         BL        UARTprintf            ; [DPU_3_PIPE] |76|  ; [KEEP 32-BIT INS]
    1264                            ; CALL OCCURS {UARTprintf }      ; [] |76| 
    1265                            .dwendtag $C$DW$134
TI ARM Assembler PC v15.12.1 Thu Nov 03 13:01:19 2016

Tools Copyright (c) 1996-2015 Texas Instruments Incorporated
MPU9150AccelerometerManager_Task.asm                                 PAGE   24

    1266                    
    1267                            .dwpsn  file "../Tasks/MPU9150AccelerometerManager_Task.c",line 78,column 1,is_stmt,isa 1
    1268                    ;* --------------------------------------------------------------------------*
    1269                    ||$C$L2||:    
    1270                    $C$DW$140       .dwtag  DW_TAG_TI_branch
    1271                            .dwattr $C$DW$140, DW_AT_low_pc(0x00)
    1272                            .dwattr $C$DW$140, DW_AT_TI_return
    1273                    
    1274 0000003e BD0E              POP       {A2, A3, A4, PC}      ; [DPU_3_PIPE]  ; [ORIG 16-BIT INS]
    1275                            .dwcfi  cfa_offset, 0
    1276                            ; BRANCH OCCURS                  ; [] 
    1277                            .dwattr $C$DW$133, DW_AT_TI_end_file("../Tasks/MPU9150AccelerometerManager_Task.c")
    1278                            .dwattr $C$DW$133, DW_AT_TI_end_line(0x4e)
    1279                            .dwattr $C$DW$133, DW_AT_TI_end_column(0x01)
    1280                            .dwendentry
    1281                            .dwendtag $C$DW$133
    1282                    
    1283 00000040                   .sect   ".text"
    1284                            .clink
    1285                            .thumbfunc MPU9150Callback2
    1286 00000040                   .thumb
    1287                            .global MPU9150Callback2
    1288                    
    1289                    $C$DW$141       .dwtag  DW_TAG_subprogram
    1290                            .dwattr $C$DW$141, DW_AT_name("MPU9150Callback2")
    1291                            .dwattr $C$DW$141, DW_AT_low_pc(MPU9150Callback2)
    1292                            .dwattr $C$DW$141, DW_AT_high_pc(0x00)
    1293                            .dwattr $C$DW$141, DW_AT_TI_symbol_name("MPU9150Callback2")
    1294                            .dwattr $C$DW$141, DW_AT_external
    1295                            .dwattr $C$DW$141, DW_AT_TI_begin_file("../Tasks/MPU9150AccelerometerManager_Task.c")
    1296                            .dwattr $C$DW$141, DW_AT_TI_begin_line(0x50)
    1297                            .dwattr $C$DW$141, DW_AT_TI_begin_column(0x06)
    1298                            .dwattr $C$DW$141, DW_AT_decl_file("../Tasks/MPU9150AccelerometerManager_Task.c")
    1299                            .dwattr $C$DW$141, DW_AT_decl_line(0x50)
    1300                            .dwattr $C$DW$141, DW_AT_decl_column(0x06)
    1301                            .dwattr $C$DW$141, DW_AT_TI_max_frame_size(0x10)
    1302                            .dwpsn  file "../Tasks/MPU9150AccelerometerManager_Task.c",line 80,column 69,is_stmt,address M
    1303                    
    1304                            .dwfde $C$DW$CIE, MPU9150Callback2
    1305                    $C$DW$142       .dwtag  DW_TAG_formal_parameter
    1306                            .dwattr $C$DW$142, DW_AT_name("pvCallbackData")
    1307                            .dwattr $C$DW$142, DW_AT_TI_symbol_name("pvCallbackData")
    1308                            .dwattr $C$DW$142, DW_AT_type(*$C$DW$T$3)
    1309                            .dwattr $C$DW$142, DW_AT_location[DW_OP_reg0]
    1310                    
    1311                    $C$DW$143       .dwtag  DW_TAG_formal_parameter
    1312                            .dwattr $C$DW$143, DW_AT_name("ui8Status")
    1313                            .dwattr $C$DW$143, DW_AT_TI_symbol_name("ui8Status")
    1314                            .dwattr $C$DW$143, DW_AT_type(*$C$DW$T$25)
    1315                            .dwattr $C$DW$143, DW_AT_location[DW_OP_reg1]
    1316                    
    1317                    
    1318                    ;*****************************************************************************
    1319                    ;* FUNCTION NAME: MPU9150Callback2                                           *
    1320                    ;*                                                                           *
TI ARM Assembler PC v15.12.1 Thu Nov 03 13:01:19 2016

Tools Copyright (c) 1996-2015 Texas Instruments Incorporated
MPU9150AccelerometerManager_Task.asm                                 PAGE   25

    1321                    ;*   Regs Modified     : A1,A2,A3,A4,V9,SP,LR,SR,D0,D0_hi,D1,D1_hi,D2,D2_hi, *
    1322                    ;*                           D3,D3_hi,D4,D4_hi,D5,D5_hi,D6,D6_hi,D7,D7_hi,   *
    1323                    ;*                           FPEXC,FPSCR                                     *
    1324                    ;*   Regs Used         : A1,A2,A3,A4,V9,SP,LR,SR,D0,D0_hi,D1,D1_hi,D2,D2_hi, *
    1325                    ;*                           D3,D3_hi,D4,D4_hi,D5,D5_hi,D6,D6_hi,D7,D7_hi,   *
    1326                    ;*                           FPEXC,FPSCR                                     *
    1327                    ;*   Local Frame Size  : 0 Args + 8 Auto + 4 Save = 12 byte                  *
    1328                    ;*****************************************************************************
    1329 00000040           MPU9150Callback2:
    1330                    ;* --------------------------------------------------------------------------*
    1331                            .dwcfi  cfa_offset, 0
    1332 00000040 B50E              PUSH      {A2, A3, A4, LR}      ; [DPU_3_PIPE]  ; [ORIG 16-BIT INS]
    1333                            .dwcfi  cfa_offset, 16
    1334                            .dwcfi  save_reg_to_mem, 14, -4
    1335                            .dwcfi  save_reg_to_mem, 3, -8
    1336                            .dwcfi  save_reg_to_mem, 2, -12
    1337                            .dwcfi  save_reg_to_mem, 1, -16
    1338                    $C$DW$144       .dwtag  DW_TAG_variable
    1339                            .dwattr $C$DW$144, DW_AT_name("pvCallbackData")
    1340                            .dwattr $C$DW$144, DW_AT_TI_symbol_name("pvCallbackData")
    1341                            .dwattr $C$DW$144, DW_AT_type(*$C$DW$T$3)
    1342                            .dwattr $C$DW$144, DW_AT_location[DW_OP_breg13 0]
    1343                    
    1344                    $C$DW$145       .dwtag  DW_TAG_variable
    1345                            .dwattr $C$DW$145, DW_AT_name("ui8Status")
    1346                            .dwattr $C$DW$145, DW_AT_TI_symbol_name("ui8Status")
    1347                            .dwattr $C$DW$145, DW_AT_type(*$C$DW$T$25)
    1348                            .dwattr $C$DW$145, DW_AT_location[DW_OP_breg13 4]
    1349                    
    1350 00000042 9101              STR       A2, [SP, #4]          ; [DPU_3_PIPE] |80|  ; [ORIG 16-BIT INS]
    1351 00000044 9000              STR       A1, [SP, #0]          ; [DPU_3_PIPE] |80|  ; [ORIG 16-BIT INS]
    1352                            .dwpsn  file "../Tasks/MPU9150AccelerometerManager_Task.c",line 83,column 2,is_stmt,isa 1
    1353 00000046 9801              LDR       A1, [SP, #4]          ; [DPU_3_PIPE] |83|  ; [ORIG 16-BIT INS]
    1354 00000048 B118              CBZ       A1, ||$C$L3||         ; []  ; [ORIG 16-BIT INS]
    1355                            ; BRANCHCC OCCURS {||$C$L3||}    ; [] |83| 
    1356                    ;* --------------------------------------------------------------------------*
    1357                            .dwpsn  file "../Tasks/MPU9150AccelerometerManager_Task.c",line 86,column 3,is_stmt,isa 1
    1358 0000004a 9901              LDR       A2, [SP, #4]          ; [DPU_3_PIPE] |86|  ; [ORIG 16-BIT INS]
    1359 0000004c A036              ADR       A1, $C$SL2            ; [DPU_3_PIPE] |86|  ; [ORIG 16-BIT INS]
    1360                    $C$DW$146       .dwtag  DW_TAG_TI_branch
    1361                            .dwattr $C$DW$146, DW_AT_low_pc(0x00)
    1362                            .dwattr $C$DW$146, DW_AT_name("UARTprintf")
    1363                            .dwattr $C$DW$146, DW_AT_TI_call
    1364                    
    1365 0000004e FFFEF7FF!         BL        UARTprintf            ; [DPU_3_PIPE] |86|  ; [KEEP 32-BIT INS]
    1366                            ; CALL OCCURS {UARTprintf }      ; [] |86| 
    1367                    ;* --------------------------------------------------------------------------*
    1368 00000052           ||$C$L3||:    
    1369                            .dwpsn  file "../Tasks/MPU9150AccelerometerManager_Task.c",line 90,column 2,is_stmt,isa 1
    1370 00000052 4945              LDR       A2, $C$CON6           ; [DPU_3_PIPE] |90|  ; [ORIG 16-BIT INS]
    1371 00000054 2001              MOVS      A1, #1                ; [DPU_3_PIPE] |90|  ; [ORIG 16-BIT INS]
    1372 00000056 7008              STRB      A1, [A2, #0]          ; [DPU_3_PIPE] |90|  ; [ORIG 16-BIT INS]
    1373                            .dwpsn  file "../Tasks/MPU9150AccelerometerManager_Task.c",line 91,column 1,is_stmt,isa 1
    1374                    $C$DW$147       .dwtag  DW_TAG_TI_branch
    1375                            .dwattr $C$DW$147, DW_AT_low_pc(0x00)
TI ARM Assembler PC v15.12.1 Thu Nov 03 13:01:19 2016

Tools Copyright (c) 1996-2015 Texas Instruments Incorporated
MPU9150AccelerometerManager_Task.asm                                 PAGE   26

    1376                            .dwattr $C$DW$147, DW_AT_TI_return
    1377                    
    1378 00000058 BD0E              POP       {A2, A3, A4, PC}      ; [DPU_3_PIPE]  ; [ORIG 16-BIT INS]
    1379                            .dwcfi  cfa_offset, 0
    1380                            ; BRANCH OCCURS                  ; [] 
    1381                            .dwattr $C$DW$141, DW_AT_TI_end_file("../Tasks/MPU9150AccelerometerManager_Task.c")
    1382                            .dwattr $C$DW$141, DW_AT_TI_end_line(0x5b)
    1383                            .dwattr $C$DW$141, DW_AT_TI_end_column(0x01)
    1384                            .dwendentry
    1385                            .dwendtag $C$DW$141
    1386                    
    1387 0000005a                   .sect   ".text"
    1388                            .clink
    1389                            .thumbfunc Task_Accelerometer
    1390 0000005a                   .thumb
    1391                            .global Task_Accelerometer
    1392                    
    1393                    $C$DW$148       .dwtag  DW_TAG_subprogram
    1394                            .dwattr $C$DW$148, DW_AT_name("Task_Accelerometer")
    1395                            .dwattr $C$DW$148, DW_AT_low_pc(Task_Accelerometer)
    1396                            .dwattr $C$DW$148, DW_AT_high_pc(0x00)
    1397                            .dwattr $C$DW$148, DW_AT_TI_symbol_name("Task_Accelerometer")
    1398                            .dwattr $C$DW$148, DW_AT_external
    1399                            .dwattr $C$DW$148, DW_AT_TI_begin_file("../Tasks/MPU9150AccelerometerManager_Task.c")
    1400                            .dwattr $C$DW$148, DW_AT_TI_begin_line(0x5d)
    1401                            .dwattr $C$DW$148, DW_AT_TI_begin_column(0x0d)
    1402                            .dwattr $C$DW$148, DW_AT_decl_file("../Tasks/MPU9150AccelerometerManager_Task.c")
    1403                            .dwattr $C$DW$148, DW_AT_decl_line(0x5d)
    1404                            .dwattr $C$DW$148, DW_AT_decl_column(0x0d)
    1405                            .dwattr $C$DW$148, DW_AT_TI_max_frame_size(0x08)
    1406                            .dwpsn  file "../Tasks/MPU9150AccelerometerManager_Task.c",line 93,column 52,is_stmt,address T
    1407                    
    1408                            .dwfde $C$DW$CIE, Task_Accelerometer
    1409                    $C$DW$149       .dwtag  DW_TAG_formal_parameter
    1410                            .dwattr $C$DW$149, DW_AT_name("pvParameters")
    1411                            .dwattr $C$DW$149, DW_AT_TI_symbol_name("pvParameters")
    1412                            .dwattr $C$DW$149, DW_AT_type(*$C$DW$T$3)
    1413                            .dwattr $C$DW$149, DW_AT_location[DW_OP_reg0]
    1414                    
    1415                    
    1416                    ;*****************************************************************************
    1417                    ;* FUNCTION NAME: Task_Accelerometer                                         *
    1418                    ;*                                                                           *
    1419                    ;*   Regs Modified     : A1,A2,A3,A4,V9,SP,LR,SR,D0,D0_hi,D1,D1_hi,D2,D2_hi, *
    1420                    ;*                           D3,D3_hi,D4,D4_hi,D5,D5_hi,D6,D6_hi,D7,D7_hi,   *
    1421                    ;*                           FPEXC,FPSCR                                     *
    1422                    ;*   Regs Used         : A1,A2,A3,A4,V9,SP,LR,SR,D0,D0_hi,D1,D1_hi,D2,D2_hi, *
    1423                    ;*                           D3,D3_hi,D4,D4_hi,D5,D5_hi,D6,D6_hi,D7,D7_hi,   *
    1424                    ;*                           FPEXC,FPSCR                                     *
    1425                    ;*   Local Frame Size  : 0 Args + 4 Auto + 4 Save = 8 byte                   *
    1426                    ;*****************************************************************************
    1427 0000005a           Task_Accelerometer:
    1428                    ;* --------------------------------------------------------------------------*
    1429                            .dwcfi  cfa_offset, 0
    1430 0000005a B508              PUSH      {A4, LR}              ; [DPU_3_PIPE]  ; [ORIG 16-BIT INS]
TI ARM Assembler PC v15.12.1 Thu Nov 03 13:01:19 2016

Tools Copyright (c) 1996-2015 Texas Instruments Incorporated
MPU9150AccelerometerManager_Task.asm                                 PAGE   27

    1431                            .dwcfi  cfa_offset, 8
    1432                            .dwcfi  save_reg_to_mem, 14, -4
    1433                            .dwcfi  save_reg_to_mem, 3, -8
    1434                    $C$DW$150       .dwtag  DW_TAG_variable
    1435                            .dwattr $C$DW$150, DW_AT_name("pvParameters")
    1436                            .dwattr $C$DW$150, DW_AT_TI_symbol_name("pvParameters")
    1437                            .dwattr $C$DW$150, DW_AT_type(*$C$DW$T$3)
    1438                            .dwattr $C$DW$150, DW_AT_location[DW_OP_breg13 0]
    1439                    
    1440 0000005c 9000              STR       A1, [SP, #0]          ; [DPU_3_PIPE] |93|  ; [ORIG 16-BIT INS]
    1441                            .dwpsn  file "../Tasks/MPU9150AccelerometerManager_Task.c",line 96,column 2,is_stmt,isa 1
    1442                    $C$DW$151       .dwtag  DW_TAG_TI_branch
    1443                            .dwattr $C$DW$151, DW_AT_low_pc(0x00)
    1444                            .dwattr $C$DW$151, DW_AT_name("accelerometerInit")
    1445                            .dwattr $C$DW$151, DW_AT_TI_call
    1446                    
    1447 0000005e FFCFF7FF          BL        accelerometerInit     ; [DPU_3_PIPE] |96|  ; [KEEP 32-BIT INS]
    1448                            ; CALL OCCURS {accelerometerInit }  ; [] |96| 
    1449                            .dwpsn  file "../Tasks/MPU9150AccelerometerManager_Task.c",line 99,column 9,is_stmt,isa 1
    1450                    ;* --------------------------------------------------------------------------*
    1451                    ;*   BEGIN LOOP ||$C$L4||
    1452                    ;*
    1453                    ;*   Loop source line                : 99
    1454                    ;*   Loop closing brace source line  : 119
    1455                    ;*   Known Minimum Trip Count        : 1
    1456                    ;*   Known Maximum Trip Count        : 4294967295
    1457                    ;*   Known Max Trip Count Factor     : 1
    1458                    ;* --------------------------------------------------------------------------*
    1459 00000062           ||$C$L4||:    
    1460                            .dwpsn  file "../Tasks/MPU9150AccelerometerManager_Task.c",line 101,column 3,is_stmt,isa 1
    1461 00000062 4941              LDR       A2, $C$CON6           ; [DPU_3_PIPE] |101|  ; [ORIG 16-BIT INS]
    1462 00000064 2000              MOVS      A1, #0                ; [DPU_3_PIPE] |101|  ; [ORIG 16-BIT INS]
    1463 00000066 7008              STRB      A1, [A2, #0]          ; [DPU_3_PIPE] |101|  ; [ORIG 16-BIT INS]
    1464                            .dwpsn  file "../Tasks/MPU9150AccelerometerManager_Task.c",line 102,column 3,is_stmt,isa 1
    1465 00000068 483D              LDR       A1, $C$CON4           ; [DPU_3_PIPE] |102|  ; [ORIG 16-BIT INS]
    1466 0000006a 493E              LDR       A2, $C$CON5           ; [DPU_3_PIPE] |102|  ; [ORIG 16-BIT INS]
    1467 0000006c 2200              MOVS      A3, #0                ; [DPU_3_PIPE] |102|  ; [ORIG 16-BIT INS]
    1468                    $C$DW$152       .dwtag  DW_TAG_TI_branch
    1469                            .dwattr $C$DW$152, DW_AT_low_pc(0x00)
    1470                            .dwattr $C$DW$152, DW_AT_name("MPU9150DataRead")
    1471                            .dwattr $C$DW$152, DW_AT_TI_call
    1472                    
    1473 0000006e FFFEF7FF!         BL        MPU9150DataRead       ; [DPU_3_PIPE] |102|  ; [KEEP 32-BIT INS]
    1474                            ; CALL OCCURS {MPU9150DataRead }  ; [] |102| 
    1475                            .dwpsn  file "../Tasks/MPU9150AccelerometerManager_Task.c",line 103,column 3,is_stmt,isa 1
    1476                    ;* --------------------------------------------------------------------------*
    1477                    ;*   BEGIN LOOP ||$C$L5||
    1478                    ;*
    1479                    ;*   Loop source line                : 103
    1480                    ;*   Loop closing brace source line  : 103
    1481                    ;*   Known Minimum Trip Count        : 1
    1482                    ;*   Known Maximum Trip Count        : 4294967295
    1483                    ;*   Known Max Trip Count Factor     : 1
    1484                    ;* --------------------------------------------------------------------------*
    1485 00000072           ||$C$L5||:    
TI ARM Assembler PC v15.12.1 Thu Nov 03 13:01:19 2016

Tools Copyright (c) 1996-2015 Texas Instruments Incorporated
MPU9150AccelerometerManager_Task.asm                                 PAGE   28

    1486                            .dwpsn  file "../Tasks/MPU9150AccelerometerManager_Task.c",line 103,column 9,is_stmt,isa 1
    1487 00000072 483D              LDR       A1, $C$CON6           ; [DPU_3_PIPE] |103|  ; [ORIG 16-BIT INS]
    1488 00000074 7800              LDRB      A1, [A1, #0]          ; [DPU_3_PIPE] |103|  ; [ORIG 16-BIT INS]
    1489 00000076 2800              CMP       A1, #0                ; [DPU_3_PIPE] |103|  ; [ORIG 16-BIT INS]
    1490 00000078 D0FB              BEQ       ||$C$L5||             ; [DPU_3_PIPE] |103|  ; [ORIG 16-BIT INS]
    1491                            ; BRANCHCC OCCURS {||$C$L5||}    ; [] |103| 
    1492                    ;* --------------------------------------------------------------------------*
    1493                            .dwpsn  file "../Tasks/MPU9150AccelerometerManager_Task.c",line 104,column 3,is_stmt,isa 1
    1494 0000007a 493C              LDR       A2, $C$CON7           ; [DPU_3_PIPE] |104|  ; [ORIG 16-BIT INS]
    1495 0000007c 4A3C              LDR       A3, $C$CON8           ; [DPU_3_PIPE] |104|  ; [ORIG 16-BIT INS]
    1496 0000007e 4B3D              LDR       A4, $C$CON9           ; [DPU_3_PIPE] |104|  ; [ORIG 16-BIT INS]
    1497 00000080 4837              LDR       A1, $C$CON4           ; [DPU_3_PIPE] |104|  ; [ORIG 16-BIT INS]
    1498                    $C$DW$153       .dwtag  DW_TAG_TI_branch
    1499                            .dwattr $C$DW$153, DW_AT_low_pc(0x00)
    1500                            .dwattr $C$DW$153, DW_AT_name("MPU9150DataAccelGetFloat")
    1501                            .dwattr $C$DW$153, DW_AT_TI_call
    1502                    
    1503 00000082 FFFEF7FF!         BL        MPU9150DataAccelGetFloat ; [DPU_3_PIPE] |104|  ; [KEEP 32-BIT INS]
    1504                            ; CALL OCCURS {MPU9150DataAccelGetFloat }  ; [] |104| 
    1505                            .dwpsn  file "../Tasks/MPU9150AccelerometerManager_Task.c",line 107,column 3,is_stmt,isa 1
    1506 00000086 483D              LDR       A1, $C$CON11          ; [DPU_3_PIPE] |107|  ; [ORIG 16-BIT INS]
    1507 00000088 493B              LDR       A2, $C$CON10          ; [DPU_3_PIPE] |107|  ; [ORIG 16-BIT INS]
    1508 0000008a 6800              LDR       A1, [A1, #0]          ; [DPU_3_PIPE] |107|  ; [ORIG 16-BIT INS]
    1509 0000008c 6008              STR       A1, [A2, #0]          ; [DPU_3_PIPE] |107|  ; [ORIG 16-BIT INS]
    1510                            .dwpsn  file "../Tasks/MPU9150AccelerometerManager_Task.c",line 108,column 3,is_stmt,isa 1
    1511 0000008e 493C              LDR       A2, $C$CON12          ; [DPU_3_PIPE] |108|  ; [ORIG 16-BIT INS]
    1512 00000090 206E              MOVS      A1, #110              ; [DPU_3_PIPE] |108|  ; [ORIG 16-BIT INS]
    1513 00000092 6008              STR       A1, [A2, #0]          ; [DPU_3_PIPE] |108|  ; [ORIG 16-BIT INS]
    1514                            .dwpsn  file "../Tasks/MPU9150AccelerometerManager_Task.c",line 109,column 3,is_stmt,isa 1
    1515 00000094 482E              LDR       A1, $C$FL1            ; [DPU_3_PIPE] |109|  ; [ORIG 16-BIT INS]
    1516 00000096 0A10EE00          VMOV      S0, A1                ; [DPU_LIN_PIPE] |109|  ; [KEEP 32-BIT INS]
    1517 0000009a 4834              LDR       A1, $C$CON7           ; [DPU_3_PIPE] |109|  ; [ORIG 16-BIT INS]
    1518 0000009c 0A00EDD0          VLDR.32   S1, [A1, #0]          ; [DPU_LIN_PIPE] |109|  ; [KEEP 32-BIT INS]
    1519 000000a0 0A20EE20          VMUL.F32  S0, S0, S1            ; [DPU_LIN_PIPE] |109|  ; [KEEP 32-BIT INS]
    1520 000000a4 0AC0EEBD          VCVT.S32.F32 S0, S0             ; [DPU_LIN_PIPE] |109|  ; [KEEP 32-BIT INS]
    1521 000000a8 4936              LDR       A2, $C$CON13          ; [DPU_3_PIPE] |109|  ; [ORIG 16-BIT INS]
    1522 000000aa 0A10EE10          VMOV      A1, S0                ; [DPU_LIN_PIPE] |109|  ; [KEEP 32-BIT INS]
    1523 000000ae 6008              STR       A1, [A2, #0]          ; [DPU_3_PIPE] |109|  ; [ORIG 16-BIT INS]
    1524                            .dwpsn  file "../Tasks/MPU9150AccelerometerManager_Task.c",line 110,column 3,is_stmt,isa 1
    1525 000000b0 4827              LDR       A1, $C$FL1            ; [DPU_3_PIPE] |110|  ; [ORIG 16-BIT INS]
    1526 000000b2 0A10EE00          VMOV      S0, A1                ; [DPU_LIN_PIPE] |110|  ; [KEEP 32-BIT INS]
    1527 000000b6 482E              LDR       A1, $C$CON8           ; [DPU_3_PIPE] |110|  ; [ORIG 16-BIT INS]
    1528 000000b8 0A00EDD0          VLDR.32   S1, [A1, #0]          ; [DPU_LIN_PIPE] |110|  ; [KEEP 32-BIT INS]
    1529 000000bc 0A20EE20          VMUL.F32  S0, S0, S1            ; [DPU_LIN_PIPE] |110|  ; [KEEP 32-BIT INS]
    1530 000000c0 0AC0EEBD          VCVT.S32.F32 S0, S0             ; [DPU_LIN_PIPE] |110|  ; [KEEP 32-BIT INS]
    1531 000000c4 4930              LDR       A2, $C$CON14          ; [DPU_3_PIPE] |110|  ; [ORIG 16-BIT INS]
    1532 000000c6 0A10EE10          VMOV      A1, S0                ; [DPU_LIN_PIPE] |110|  ; [KEEP 32-BIT INS]
    1533 000000ca 6008              STR       A1, [A2, #0]          ; [DPU_3_PIPE] |110|  ; [ORIG 16-BIT INS]
    1534                            .dwpsn  file "../Tasks/MPU9150AccelerometerManager_Task.c",line 111,column 3,is_stmt,isa 1
    1535 000000cc 4820              LDR       A1, $C$FL1            ; [DPU_3_PIPE] |111|  ; [ORIG 16-BIT INS]
    1536 000000ce 0A10EE00          VMOV      S0, A1                ; [DPU_LIN_PIPE] |111|  ; [KEEP 32-BIT INS]
    1537 000000d2 4828              LDR       A1, $C$CON9           ; [DPU_3_PIPE] |111|  ; [ORIG 16-BIT INS]
    1538 000000d4 0A00EDD0          VLDR.32   S1, [A1, #0]          ; [DPU_LIN_PIPE] |111|  ; [KEEP 32-BIT INS]
    1539 000000d8 0A20EE20          VMUL.F32  S0, S0, S1            ; [DPU_LIN_PIPE] |111|  ; [KEEP 32-BIT INS]
    1540 000000dc 0AC0EEBD          VCVT.S32.F32 S0, S0             ; [DPU_LIN_PIPE] |111|  ; [KEEP 32-BIT INS]
TI ARM Assembler PC v15.12.1 Thu Nov 03 13:01:19 2016

Tools Copyright (c) 1996-2015 Texas Instruments Incorporated
MPU9150AccelerometerManager_Task.asm                                 PAGE   29

    1541 000000e0 492A              LDR       A2, $C$CON15          ; [DPU_3_PIPE] |111|  ; [ORIG 16-BIT INS]
    1542 000000e2 0A10EE10          VMOV      A1, S0                ; [DPU_LIN_PIPE] |111|  ; [KEEP 32-BIT INS]
    1543 000000e6 6008              STR       A1, [A2, #0]          ; [DPU_3_PIPE] |111|  ; [ORIG 16-BIT INS]
    1544                            .dwpsn  file "../Tasks/MPU9150AccelerometerManager_Task.c",line 112,column 3,is_stmt,isa 1
    1545 000000e8 4929              LDR       A2, $C$CON16          ; [DPU_3_PIPE] |112|  ; [ORIG 16-BIT INS]
    1546 000000ea 2000              MOVS      A1, #0                ; [DPU_3_PIPE] |112|  ; [ORIG 16-BIT INS]
    1547 000000ec 6008              STR       A1, [A2, #0]          ; [DPU_3_PIPE] |112|  ; [ORIG 16-BIT INS]
    1548                            .dwpsn  file "../Tasks/MPU9150AccelerometerManager_Task.c",line 115,column 3,is_stmt,isa 1
    1549 000000ee 4829              LDR       A1, $C$CON17          ; [DPU_3_PIPE] |115|  ; [ORIG 16-BIT INS]
    1550 000000f0 4921              LDR       A2, $C$CON10          ; [DPU_3_PIPE] |115|  ; [ORIG 16-BIT INS]
    1551 000000f2 6800              LDR       A1, [A1, #0]          ; [DPU_3_PIPE] |115|  ; [ORIG 16-BIT INS]
    1552 000000f4 2200              MOVS      A3, #0                ; [DPU_3_PIPE] |115|  ; [ORIG 16-BIT INS]
    1553 000000f6 2300              MOVS      A4, #0                ; [DPU_3_PIPE] |115|  ; [ORIG 16-BIT INS]
    1554                    $C$DW$154       .dwtag  DW_TAG_TI_branch
    1555                            .dwattr $C$DW$154, DW_AT_low_pc(0x00)
    1556                            .dwattr $C$DW$154, DW_AT_name("xQueueGenericSend")
    1557                            .dwattr $C$DW$154, DW_AT_TI_call
    1558                    
    1559 000000f8 FFFEF7FF!         BL        xQueueGenericSend     ; [DPU_3_PIPE] |115|  ; [KEEP 32-BIT INS]
    1560                            ; CALL OCCURS {xQueueGenericSend }  ; [] |115| 
    1561                            .dwpsn  file "../Tasks/MPU9150AccelerometerManager_Task.c",line 118,column 3,is_stmt,isa 1
    1562 000000fc 707AF44F          MOV       A1, #1000             ; [DPU_3_PIPE] |118|  ; [KEEP 32-BIT INS]
    1563                    $C$DW$155       .dwtag  DW_TAG_TI_branch
    1564                            .dwattr $C$DW$155, DW_AT_low_pc(0x00)
    1565                            .dwattr $C$DW$155, DW_AT_name("vTaskDelay")
    1566                            .dwattr $C$DW$155, DW_AT_TI_call
    1567                    
    1568 00000100 FFFEF7FF!         BL        vTaskDelay            ; [DPU_3_PIPE] |118|  ; [KEEP 32-BIT INS]
    1569                            ; CALL OCCURS {vTaskDelay }      ; [] |118| 
    1570                            .dwpsn  file "../Tasks/MPU9150AccelerometerManager_Task.c",line 99,column 9,is_stmt,isa 1
    1571 00000104 E7AD              B         ||$C$L4||             ; [DPU_3_PIPE] |99|  ; [ORIG 16-BIT INS]
    1572                            ; BRANCH OCCURS {||$C$L4||}      ; [] |99| 
    1573                    ;* --------------------------------------------------------------------------*
    1574                            .dwattr $C$DW$148, DW_AT_TI_end_file("../Tasks/MPU9150AccelerometerManager_Task.c")
    1575                            .dwattr $C$DW$148, DW_AT_TI_end_line(0x78)
    1576                            .dwattr $C$DW$148, DW_AT_TI_end_column(0x01)
    1577                            .dwendentry
    1578                            .dwendtag $C$DW$148
    1579                    
    1580                    ;******************************************************************************
    1581                    ;* STRINGS                                                                    *
    1582                    ;******************************************************************************
    1583 00000106                   .sect   ".text"
    1584                            .align  4
    1585 00000108 3E        ||$C$SL1||:     .string ">>>>MPU9150Init; Status: %02X",10,0
         00000109 3E       
         0000010a 3E       
         0000010b 3E       
         0000010c 4D       
         0000010d 50       
         0000010e 55       
         0000010f 39       
         00000110 31       
         00000111 35       
         00000112 30       
TI ARM Assembler PC v15.12.1 Thu Nov 03 13:01:19 2016

Tools Copyright (c) 1996-2015 Texas Instruments Incorporated
MPU9150AccelerometerManager_Task.asm                                 PAGE   30

         00000113 49       
         00000114 6E       
         00000115 69       
         00000116 74       
         00000117 3B       
         00000118 20       
         00000119 53       
         0000011a 74       
         0000011b 61       
         0000011c 74       
         0000011d 75       
         0000011e 73       
         0000011f 3A       
         00000120 20       
         00000121 25       
         00000122 30       
         00000123 32       
         00000124 58       
         00000125 0A       
         00000126 00       
    1586                            .align  4
    1587 00000128 3E        ||$C$SL2||:     .string ">>>>I2C7 in 9150 callback Error: %02X",10,0
         00000129 3E       
         0000012a 3E       
         0000012b 3E       
         0000012c 49       
         0000012d 32       
         0000012e 43       
         0000012f 37       
         00000130 20       
         00000131 69       
         00000132 6E       
         00000133 20       
         00000134 39       
         00000135 31       
         00000136 35       
         00000137 30       
         00000138 20       
         00000139 63       
         0000013a 61       
         0000013b 6C       
         0000013c 6C       
         0000013d 62       
         0000013e 61       
         0000013f 63       
         00000140 6B       
         00000141 20       
         00000142 45       
         00000143 72       
         00000144 72       
         00000145 6F       
         00000146 72       
         00000147 3A       
         00000148 20       
         00000149 25       
TI ARM Assembler PC v15.12.1 Thu Nov 03 13:01:19 2016

Tools Copyright (c) 1996-2015 Texas Instruments Incorporated
MPU9150AccelerometerManager_Task.asm                                 PAGE   31

         0000014a 30       
         0000014b 32       
         0000014c 58       
         0000014d 0A       
         0000014e 00       
    1588                    ;******************************************************************************
    1589                    ;* FLOATING-POINT CONSTANTS                                                   *
    1590                    ;******************************************************************************
    1591 0000014f                   .sect   ".text"
    1592                            .align  4
    1593 00000150 42C80000  ||$C$FL1||:     .word   042c80000h      ; 100
    1594                    ;******************************************************************************
    1595                    ;* CONSTANT TABLE                                                             *
    1596                    ;******************************************************************************
    1597 00000154                   .sect   ".text"
    1598                            .align  4
    1599 00000152 000042C8! ||$C$CON1||:    .bits   isMPU9150Initialized,32
         00000156 00000000 
    1600                            .align  4
    1601 00000156 00000000! ||$C$CON2||:    .bits   I2C7_IntServiceRoutine,32
         0000015a 00000000 
    1602                            .align  4
    1603 0000015a 00000000! ||$C$CON3||:    .bits   I2C7_Instance_Ref,32
         0000015e 00000000 
    1604                            .align  4
    1605 0000015e 00000000! ||$C$CON4||:    .bits   sMPU9150,32
         00000162 00000000 
    1606                            .align  4
    1607 00000162 00000000! ||$C$CON5||:    .bits   MPU9150Callback2,32
         00000166 00000000 
    1608                            .align  4
    1609 00000166 00000000! ||$C$CON6||:    .bits   g_bMPU9150Done,32
         0000016a 00000000 
    1610                            .align  4
    1611 0000016a 00000000! ||$C$CON7||:    .bits   fAccel,32
         0000016e 00000000 
    1612                            .align  4
    1613 0000016e 00040000! ||$C$CON8||:    .bits   fAccel+4,32
         00000172 00000000 
    1614                            .align  4
    1615 00000172 00080000! ||$C$CON9||:    .bits   fAccel+8,32
         00000176 00000000 
    1616                            .align  4
    1617 00000176 00000000! ||$C$CON10||:   .bits   accelerometerReport,32
         0000017a 00000000 
    1618                            .align  4
    1619 0000017a 00000000! ||$C$CON11||:   .bits   xPortSysTickCount,32
         0000017e 00000000 
    1620                            .align  4
    1621 0000017e 00040000! ||$C$CON12||:   .bits   accelerometerReport+4,32
         00000182 00000000 
    1622                            .align  4
    1623 00000182 00080000! ||$C$CON13||:   .bits   accelerometerReport+8,32
         00000186 00000000 
    1624                            .align  4
TI ARM Assembler PC v15.12.1 Thu Nov 03 13:01:19 2016

Tools Copyright (c) 1996-2015 Texas Instruments Incorporated
MPU9150AccelerometerManager_Task.asm                                 PAGE   32

    1625 00000186 000C0000! ||$C$CON14||:   .bits   accelerometerReport+12,32
         0000018a 00000000 
    1626                            .align  4
    1627 0000018a 00100000! ||$C$CON15||:   .bits   accelerometerReport+16,32
         0000018e 00000000 
    1628                            .align  4
    1629 0000018e 00140000! ||$C$CON16||:   .bits   accelerometerReport+20,32
         00000192 00000000 
    1630                            .align  4
    1631 00000192 00000000! ||$C$CON17||:   .bits   ReportData_Queue,32
         00000196 00000000 
    1632                    ;*****************************************************************************
    1633                    ;* UNDEFINED EXTERNAL REFERENCES                                             *
    1634                    ;*****************************************************************************
    1635                            .global IntRegister
    1636                            .global UARTprintf
    1637                            .global I2CMCommand
    1638                            .global I2CMReadModifyWrite16LE
    1639                            .global MPU9150Init
    1640                            .global MPU9150DataRead
    1641                            .global MPU9150DataAccelGetFloat
    1642                            .global vTaskDelay
    1643                            .global xQueueGenericSend
    1644                            .global I2C7_Initialization
    1645                            .global I2C7_IntServiceRoutine
    1646                            .global xPortSysTickCount
    1647                            .global ReportData_Queue
    1648                            .global isMPU9150Initialized
    1649                            .global I2C7_Instance_Ref
    1650                    ;*****************************************************************************
    1651                    ;* SECTION GROUPS                                                            *
    1652                    ;*****************************************************************************
    1653                            .group    "I2CMRead", 1
    1654                            .gmember  ".text:I2CMRead"
    1655                            .endgroup
    1656                            .group    "I2CMReadBatched", 1
    1657                            .gmember  ".text:I2CMReadBatched"
    1658                            .endgroup
    1659                            .group    "I2CMReadModifyWrite16BE", 1
    1660                            .gmember  ".text:I2CMReadModifyWrite16BE"
    1661                            .endgroup
    1662                            .group    "I2CMWrite", 1
    1663                            .gmember  ".text:I2CMWrite"
    1664                            .endgroup
    1665                            .group    "I2CMWriteBatched", 1
    1666                            .gmember  ".text:I2CMWriteBatched"
    1667                            .endgroup
    1668                    
    1669                    
    1670                    ;******************************************************************************
    1671                    ;* BUILD ATTRIBUTES                                                           *
    1672                    ;******************************************************************************
    1673                            .battr "aeabi", Tag_File, 1, Tag_ABI_PCS_wchar_t(2)
    1674                            .battr "aeabi", Tag_File, 1, Tag_ABI_FP_rounding(0)
    1675                            .battr "aeabi", Tag_File, 1, Tag_ABI_FP_denormal(0)
TI ARM Assembler PC v15.12.1 Thu Nov 03 13:01:19 2016

Tools Copyright (c) 1996-2015 Texas Instruments Incorporated
MPU9150AccelerometerManager_Task.asm                                 PAGE   33

    1676                            .battr "aeabi", Tag_File, 1, Tag_ABI_FP_exceptions(0)
    1677                            .battr "aeabi", Tag_File, 1, Tag_ABI_FP_number_model(1)
    1678                            .battr "aeabi", Tag_File, 1, Tag_ABI_enum_size(1)
    1679                            .battr "aeabi", Tag_File, 1, Tag_ABI_optimization_goals(5)
    1680                            .battr "aeabi", Tag_File, 1, Tag_ABI_FP_optimization_goals(0)
    1681                            .battr "TI", Tag_File, 1, Tag_Bitfield_layout(2)
    1682                            .battr "TI", Tag_File, 1, Tag_FP_interface(1)
    1683                    
    1684                    ;******************************************************************************
    1685                    ;* TYPE INFORMATION                                                           *
    1686                    ;******************************************************************************
    1687                    
    1688                    $C$DW$T$84      .dwtag  DW_TAG_enumeration_type
    1689                            .dwattr $C$DW$T$84, DW_AT_byte_size(0x01)
    1690                    $C$DW$156       .dwtag  DW_TAG_enumerator
    1691                            .dwattr $C$DW$156, DW_AT_name("eRunning")
    1692                            .dwattr $C$DW$156, DW_AT_const_value(0x00)
    1693                            .dwattr $C$DW$156, DW_AT_decl_file("C:/TI_ARM_Tiva_Projects/Source/include/task.h")
    1694                            .dwattr $C$DW$156, DW_AT_decl_line(0x72)
    1695                            .dwattr $C$DW$156, DW_AT_decl_column(0x02)
    1696                    
    1697                    $C$DW$157       .dwtag  DW_TAG_enumerator
    1698                            .dwattr $C$DW$157, DW_AT_name("eReady")
    1699                            .dwattr $C$DW$157, DW_AT_const_value(0x01)
    1700                            .dwattr $C$DW$157, DW_AT_decl_file("C:/TI_ARM_Tiva_Projects/Source/include/task.h")
    1701                            .dwattr $C$DW$157, DW_AT_decl_line(0x73)
    1702                            .dwattr $C$DW$157, DW_AT_decl_column(0x02)
    1703                    
    1704                    $C$DW$158       .dwtag  DW_TAG_enumerator
    1705                            .dwattr $C$DW$158, DW_AT_name("eBlocked")
    1706                            .dwattr $C$DW$158, DW_AT_const_value(0x02)
    1707                            .dwattr $C$DW$158, DW_AT_decl_file("C:/TI_ARM_Tiva_Projects/Source/include/task.h")
    1708                            .dwattr $C$DW$158, DW_AT_decl_line(0x74)
    1709                            .dwattr $C$DW$158, DW_AT_decl_column(0x02)
    1710                    
    1711                    $C$DW$159       .dwtag  DW_TAG_enumerator
    1712                            .dwattr $C$DW$159, DW_AT_name("eSuspended")
    1713                            .dwattr $C$DW$159, DW_AT_const_value(0x03)
    1714                            .dwattr $C$DW$159, DW_AT_decl_file("C:/TI_ARM_Tiva_Projects/Source/include/task.h")
    1715                            .dwattr $C$DW$159, DW_AT_decl_line(0x75)
    1716                            .dwattr $C$DW$159, DW_AT_decl_column(0x02)
    1717                    
    1718                    $C$DW$160       .dwtag  DW_TAG_enumerator
    1719                            .dwattr $C$DW$160, DW_AT_name("eDeleted")
    1720                            .dwattr $C$DW$160, DW_AT_const_value(0x04)
    1721                            .dwattr $C$DW$160, DW_AT_decl_file("C:/TI_ARM_Tiva_Projects/Source/include/task.h")
    1722                            .dwattr $C$DW$160, DW_AT_decl_line(0x76)
    1723                            .dwattr $C$DW$160, DW_AT_decl_column(0x02)
    1724                    
    1725                            .dwattr $C$DW$T$84, DW_AT_decl_file("C:/TI_ARM_Tiva_Projects/Source/include/task.h")
    1726                            .dwattr $C$DW$T$84, DW_AT_decl_line(0x71)
    1727                            .dwattr $C$DW$T$84, DW_AT_decl_column(0x01)
    1728                            .dwendtag $C$DW$T$84
    1729                    
    1730                    $C$DW$T$85      .dwtag  DW_TAG_typedef
TI ARM Assembler PC v15.12.1 Thu Nov 03 13:01:19 2016

Tools Copyright (c) 1996-2015 Texas Instruments Incorporated
MPU9150AccelerometerManager_Task.asm                                 PAGE   34

    1731                            .dwattr $C$DW$T$85, DW_AT_name("eTaskState")
    1732                            .dwattr $C$DW$T$85, DW_AT_type(*$C$DW$T$84)
    1733                            .dwattr $C$DW$T$85, DW_AT_language(DW_LANG_C)
    1734                            .dwattr $C$DW$T$85, DW_AT_decl_file("C:/TI_ARM_Tiva_Projects/Source/include/task.h")
    1735                            .dwattr $C$DW$T$85, DW_AT_decl_line(0x77)
    1736                            .dwattr $C$DW$T$85, DW_AT_decl_column(0x03)
    1737                    
    1738                    
    1739                    $C$DW$T$90      .dwtag  DW_TAG_enumeration_type
    1740                            .dwattr $C$DW$T$90, DW_AT_byte_size(0x01)
    1741                    $C$DW$161       .dwtag  DW_TAG_enumerator
    1742                            .dwattr $C$DW$161, DW_AT_name("eNoAction")
    1743                            .dwattr $C$DW$161, DW_AT_const_value(0x00)
    1744                            .dwattr $C$DW$161, DW_AT_decl_file("C:/TI_ARM_Tiva_Projects/Source/include/task.h")
    1745                            .dwattr $C$DW$161, DW_AT_decl_line(0x7c)
    1746                            .dwattr $C$DW$161, DW_AT_decl_column(0x02)
    1747                    
    1748                    $C$DW$162       .dwtag  DW_TAG_enumerator
    1749                            .dwattr $C$DW$162, DW_AT_name("eSetBits")
    1750                            .dwattr $C$DW$162, DW_AT_const_value(0x01)
    1751                            .dwattr $C$DW$162, DW_AT_decl_file("C:/TI_ARM_Tiva_Projects/Source/include/task.h")
    1752                            .dwattr $C$DW$162, DW_AT_decl_line(0x7d)
    1753                            .dwattr $C$DW$162, DW_AT_decl_column(0x02)
    1754                    
    1755                    $C$DW$163       .dwtag  DW_TAG_enumerator
    1756                            .dwattr $C$DW$163, DW_AT_name("eIncrement")
    1757                            .dwattr $C$DW$163, DW_AT_const_value(0x02)
    1758                            .dwattr $C$DW$163, DW_AT_decl_file("C:/TI_ARM_Tiva_Projects/Source/include/task.h")
    1759                            .dwattr $C$DW$163, DW_AT_decl_line(0x7e)
    1760                            .dwattr $C$DW$163, DW_AT_decl_column(0x02)
    1761                    
    1762                    $C$DW$164       .dwtag  DW_TAG_enumerator
    1763                            .dwattr $C$DW$164, DW_AT_name("eSetValueWithOverwrite")
    1764                            .dwattr $C$DW$164, DW_AT_const_value(0x03)
    1765                            .dwattr $C$DW$164, DW_AT_decl_file("C:/TI_ARM_Tiva_Projects/Source/include/task.h")
    1766                            .dwattr $C$DW$164, DW_AT_decl_line(0x7f)
    1767                            .dwattr $C$DW$164, DW_AT_decl_column(0x02)
    1768                    
    1769                    $C$DW$165       .dwtag  DW_TAG_enumerator
    1770                            .dwattr $C$DW$165, DW_AT_name("eSetValueWithoutOverwrite")
    1771                            .dwattr $C$DW$165, DW_AT_const_value(0x04)
    1772                            .dwattr $C$DW$165, DW_AT_decl_file("C:/TI_ARM_Tiva_Projects/Source/include/task.h")
    1773                            .dwattr $C$DW$165, DW_AT_decl_line(0x80)
    1774                            .dwattr $C$DW$165, DW_AT_decl_column(0x02)
    1775                    
    1776                            .dwattr $C$DW$T$90, DW_AT_decl_file("C:/TI_ARM_Tiva_Projects/Source/include/task.h")
    1777                            .dwattr $C$DW$T$90, DW_AT_decl_line(0x7b)
    1778                            .dwattr $C$DW$T$90, DW_AT_decl_column(0x01)
    1779                            .dwendtag $C$DW$T$90
    1780                    
    1781                    $C$DW$T$91      .dwtag  DW_TAG_typedef
    1782                            .dwattr $C$DW$T$91, DW_AT_name("eNotifyAction")
    1783                            .dwattr $C$DW$T$91, DW_AT_type(*$C$DW$T$90)
    1784                            .dwattr $C$DW$T$91, DW_AT_language(DW_LANG_C)
    1785                            .dwattr $C$DW$T$91, DW_AT_decl_file("C:/TI_ARM_Tiva_Projects/Source/include/task.h")
TI ARM Assembler PC v15.12.1 Thu Nov 03 13:01:19 2016

Tools Copyright (c) 1996-2015 Texas Instruments Incorporated
MPU9150AccelerometerManager_Task.asm                                 PAGE   35

    1786                            .dwattr $C$DW$T$91, DW_AT_decl_line(0x81)
    1787                            .dwattr $C$DW$T$91, DW_AT_decl_column(0x03)
    1788                    
    1789                    
    1790                    $C$DW$T$92      .dwtag  DW_TAG_enumeration_type
    1791                            .dwattr $C$DW$T$92, DW_AT_byte_size(0x01)
    1792                    $C$DW$166       .dwtag  DW_TAG_enumerator
    1793                            .dwattr $C$DW$166, DW_AT_name("eAbortSleep")
    1794                            .dwattr $C$DW$166, DW_AT_const_value(0x00)
    1795                            .dwattr $C$DW$166, DW_AT_decl_file("C:/TI_ARM_Tiva_Projects/Source/include/task.h")
    1796                            .dwattr $C$DW$166, DW_AT_decl_line(0xb5)
    1797                            .dwattr $C$DW$166, DW_AT_decl_column(0x02)
    1798                    
    1799                    $C$DW$167       .dwtag  DW_TAG_enumerator
    1800                            .dwattr $C$DW$167, DW_AT_name("eStandardSleep")
    1801                            .dwattr $C$DW$167, DW_AT_const_value(0x01)
    1802                            .dwattr $C$DW$167, DW_AT_decl_file("C:/TI_ARM_Tiva_Projects/Source/include/task.h")
    1803                            .dwattr $C$DW$167, DW_AT_decl_line(0xb6)
    1804                            .dwattr $C$DW$167, DW_AT_decl_column(0x02)
    1805                    
    1806                    $C$DW$168       .dwtag  DW_TAG_enumerator
    1807                            .dwattr $C$DW$168, DW_AT_name("eNoTasksWaitingTimeout")
    1808                            .dwattr $C$DW$168, DW_AT_const_value(0x02)
    1809                            .dwattr $C$DW$168, DW_AT_decl_file("C:/TI_ARM_Tiva_Projects/Source/include/task.h")
    1810                            .dwattr $C$DW$168, DW_AT_decl_line(0xb7)
    1811                            .dwattr $C$DW$168, DW_AT_decl_column(0x02)
    1812                    
    1813                            .dwattr $C$DW$T$92, DW_AT_decl_file("C:/TI_ARM_Tiva_Projects/Source/include/task.h")
    1814                            .dwattr $C$DW$T$92, DW_AT_decl_line(0xb4)
    1815                            .dwattr $C$DW$T$92, DW_AT_decl_column(0x01)
    1816                            .dwendtag $C$DW$T$92
    1817                    
    1818                    $C$DW$T$93      .dwtag  DW_TAG_typedef
    1819                            .dwattr $C$DW$T$93, DW_AT_name("eSleepModeStatus")
    1820                            .dwattr $C$DW$T$93, DW_AT_type(*$C$DW$T$92)
    1821                            .dwattr $C$DW$T$93, DW_AT_language(DW_LANG_C)
    1822                            .dwattr $C$DW$T$93, DW_AT_decl_file("C:/TI_ARM_Tiva_Projects/Source/include/task.h")
    1823                            .dwattr $C$DW$T$93, DW_AT_decl_line(0xb8)
    1824                            .dwattr $C$DW$T$93, DW_AT_decl_column(0x03)
    1825                    
    1826                    
    1827                    $C$DW$T$29      .dwtag  DW_TAG_structure_type
    1828                            .dwattr $C$DW$T$29, DW_AT_byte_size(0x1c)
    1829                    $C$DW$169       .dwtag  DW_TAG_member
    1830                            .dwattr $C$DW$169, DW_AT_type(*$C$DW$T$19)
    1831                            .dwattr $C$DW$169, DW_AT_name("ui8Addr")
    1832                            .dwattr $C$DW$169, DW_AT_TI_symbol_name("ui8Addr")
    1833                            .dwattr $C$DW$169, DW_AT_data_member_location[DW_OP_plus_uconst 0x0]
    1834                            .dwattr $C$DW$169, DW_AT_accessibility(DW_ACCESS_public)
    1835                            .dwattr $C$DW$169, DW_AT_decl_file("C:/TI_CodeComposer/TivaWare/sensorlib/i2cm_drv.h")
    1836                            .dwattr $C$DW$169, DW_AT_decl_line(0x4c)
    1837                            .dwattr $C$DW$169, DW_AT_decl_column(0x0d)
    1838                    
    1839                    $C$DW$170       .dwtag  DW_TAG_member
    1840                            .dwattr $C$DW$170, DW_AT_type(*$C$DW$T$21)
TI ARM Assembler PC v15.12.1 Thu Nov 03 13:01:19 2016

Tools Copyright (c) 1996-2015 Texas Instruments Incorporated
MPU9150AccelerometerManager_Task.asm                                 PAGE   36

    1841                            .dwattr $C$DW$170, DW_AT_name("pui8WriteData")
    1842                            .dwattr $C$DW$170, DW_AT_TI_symbol_name("pui8WriteData")
    1843                            .dwattr $C$DW$170, DW_AT_data_member_location[DW_OP_plus_uconst 0x4]
    1844                            .dwattr $C$DW$170, DW_AT_accessibility(DW_ACCESS_public)
    1845                            .dwattr $C$DW$170, DW_AT_decl_file("C:/TI_CodeComposer/TivaWare/sensorlib/i2cm_drv.h")
    1846                            .dwattr $C$DW$170, DW_AT_decl_line(0x51)
    1847                            .dwattr $C$DW$170, DW_AT_decl_column(0x14)
    1848                    
    1849                    $C$DW$171       .dwtag  DW_TAG_member
    1850                            .dwattr $C$DW$171, DW_AT_type(*$C$DW$T$22)
    1851                            .dwattr $C$DW$171, DW_AT_name("ui16WriteCount")
    1852                            .dwattr $C$DW$171, DW_AT_TI_symbol_name("ui16WriteCount")
    1853                            .dwattr $C$DW$171, DW_AT_data_member_location[DW_OP_plus_uconst 0x8]
    1854                            .dwattr $C$DW$171, DW_AT_accessibility(DW_ACCESS_public)
    1855                            .dwattr $C$DW$171, DW_AT_decl_file("C:/TI_CodeComposer/TivaWare/sensorlib/i2cm_drv.h")
    1856                            .dwattr $C$DW$171, DW_AT_decl_line(0x56)
    1857                            .dwattr $C$DW$171, DW_AT_decl_column(0x0e)
    1858                    
    1859                    $C$DW$172       .dwtag  DW_TAG_member
    1860                            .dwattr $C$DW$172, DW_AT_type(*$C$DW$T$22)
    1861                            .dwattr $C$DW$172, DW_AT_name("ui16WriteBatchSize")
    1862                            .dwattr $C$DW$172, DW_AT_TI_symbol_name("ui16WriteBatchSize")
    1863                            .dwattr $C$DW$172, DW_AT_data_member_location[DW_OP_plus_uconst 0xa]
    1864                            .dwattr $C$DW$172, DW_AT_accessibility(DW_ACCESS_public)
    1865                            .dwattr $C$DW$172, DW_AT_decl_file("C:/TI_CodeComposer/TivaWare/sensorlib/i2cm_drv.h")
    1866                            .dwattr $C$DW$172, DW_AT_decl_line(0x5b)
    1867                            .dwattr $C$DW$172, DW_AT_decl_column(0x0e)
    1868                    
    1869                    $C$DW$173       .dwtag  DW_TAG_member
    1870                            .dwattr $C$DW$173, DW_AT_type(*$C$DW$T$23)
    1871                            .dwattr $C$DW$173, DW_AT_name("pui8ReadData")
    1872                            .dwattr $C$DW$173, DW_AT_TI_symbol_name("pui8ReadData")
    1873                            .dwattr $C$DW$173, DW_AT_data_member_location[DW_OP_plus_uconst 0xc]
    1874                            .dwattr $C$DW$173, DW_AT_accessibility(DW_ACCESS_public)
    1875                            .dwattr $C$DW$173, DW_AT_decl_file("C:/TI_CodeComposer/TivaWare/sensorlib/i2cm_drv.h")
    1876                            .dwattr $C$DW$173, DW_AT_decl_line(0x60)
    1877                            .dwattr $C$DW$173, DW_AT_decl_column(0x0e)
    1878                    
    1879                    $C$DW$174       .dwtag  DW_TAG_member
    1880                            .dwattr $C$DW$174, DW_AT_type(*$C$DW$T$22)
    1881                            .dwattr $C$DW$174, DW_AT_name("ui16ReadCount")
    1882                            .dwattr $C$DW$174, DW_AT_TI_symbol_name("ui16ReadCount")
    1883                            .dwattr $C$DW$174, DW_AT_data_member_location[DW_OP_plus_uconst 0x10]
    1884                            .dwattr $C$DW$174, DW_AT_accessibility(DW_ACCESS_public)
    1885                            .dwattr $C$DW$174, DW_AT_decl_file("C:/TI_CodeComposer/TivaWare/sensorlib/i2cm_drv.h")
    1886                            .dwattr $C$DW$174, DW_AT_decl_line(0x65)
    1887                            .dwattr $C$DW$174, DW_AT_decl_column(0x0e)
    1888                    
    1889                    $C$DW$175       .dwtag  DW_TAG_member
    1890                            .dwattr $C$DW$175, DW_AT_type(*$C$DW$T$22)
    1891                            .dwattr $C$DW$175, DW_AT_name("ui16ReadBatchSize")
    1892                            .dwattr $C$DW$175, DW_AT_TI_symbol_name("ui16ReadBatchSize")
    1893                            .dwattr $C$DW$175, DW_AT_data_member_location[DW_OP_plus_uconst 0x12]
    1894                            .dwattr $C$DW$175, DW_AT_accessibility(DW_ACCESS_public)
    1895                            .dwattr $C$DW$175, DW_AT_decl_file("C:/TI_CodeComposer/TivaWare/sensorlib/i2cm_drv.h")
TI ARM Assembler PC v15.12.1 Thu Nov 03 13:01:19 2016

Tools Copyright (c) 1996-2015 Texas Instruments Incorporated
MPU9150AccelerometerManager_Task.asm                                 PAGE   37

    1896                            .dwattr $C$DW$175, DW_AT_decl_line(0x6a)
    1897                            .dwattr $C$DW$175, DW_AT_decl_column(0x0e)
    1898                    
    1899                    $C$DW$176       .dwtag  DW_TAG_member
    1900                            .dwattr $C$DW$176, DW_AT_type(*$C$DW$T$28)
    1901                            .dwattr $C$DW$176, DW_AT_name("pfnCallback")
    1902                            .dwattr $C$DW$176, DW_AT_TI_symbol_name("pfnCallback")
    1903                            .dwattr $C$DW$176, DW_AT_data_member_location[DW_OP_plus_uconst 0x14]
    1904                            .dwattr $C$DW$176, DW_AT_accessibility(DW_ACCESS_public)
    1905                            .dwattr $C$DW$176, DW_AT_decl_file("C:/TI_CodeComposer/TivaWare/sensorlib/i2cm_drv.h")
    1906                            .dwattr $C$DW$176, DW_AT_decl_line(0x6f)
    1907                            .dwattr $C$DW$176, DW_AT_decl_column(0x16)
    1908                    
    1909                    $C$DW$177       .dwtag  DW_TAG_member
    1910                            .dwattr $C$DW$177, DW_AT_type(*$C$DW$T$3)
    1911                            .dwattr $C$DW$177, DW_AT_name("pvCallbackData")
    1912                            .dwattr $C$DW$177, DW_AT_TI_symbol_name("pvCallbackData")
    1913                            .dwattr $C$DW$177, DW_AT_data_member_location[DW_OP_plus_uconst 0x18]
    1914                            .dwattr $C$DW$177, DW_AT_accessibility(DW_ACCESS_public)
    1915                            .dwattr $C$DW$177, DW_AT_decl_file("C:/TI_CodeComposer/TivaWare/sensorlib/i2cm_drv.h")
    1916                            .dwattr $C$DW$177, DW_AT_decl_line(0x74)
    1917                            .dwattr $C$DW$177, DW_AT_decl_column(0x0b)
    1918                    
    1919                            .dwattr $C$DW$T$29, DW_AT_decl_file("C:/TI_CodeComposer/TivaWare/sensorlib/i2cm_drv.h")
    1920                            .dwattr $C$DW$T$29, DW_AT_decl_line(0x48)
    1921                            .dwattr $C$DW$T$29, DW_AT_decl_column(0x01)
    1922                            .dwendtag $C$DW$T$29
    1923                    
    1924                    $C$DW$T$30      .dwtag  DW_TAG_typedef
    1925                            .dwattr $C$DW$T$30, DW_AT_name("tI2CMCommand")
    1926                            .dwattr $C$DW$T$30, DW_AT_type(*$C$DW$T$29)
    1927                            .dwattr $C$DW$T$30, DW_AT_language(DW_LANG_C)
    1928                            .dwattr $C$DW$T$30, DW_AT_decl_file("C:/TI_CodeComposer/TivaWare/sensorlib/i2cm_drv.h")
    1929                            .dwattr $C$DW$T$30, DW_AT_decl_line(0x76)
    1930                            .dwattr $C$DW$T$30, DW_AT_decl_column(0x01)
    1931                    
    1932                    
    1933                    $C$DW$T$31      .dwtag  DW_TAG_array_type
    1934                            .dwattr $C$DW$T$31, DW_AT_type(*$C$DW$T$30)
    1935                            .dwattr $C$DW$T$31, DW_AT_language(DW_LANG_C)
    1936                            .dwattr $C$DW$T$31, DW_AT_byte_size(0x118)
    1937                    $C$DW$178       .dwtag  DW_TAG_subrange_type
    1938                            .dwattr $C$DW$178, DW_AT_upper_bound(0x09)
    1939                    
    1940                            .dwendtag $C$DW$T$31
    1941                    
    1942                    
    1943                    $C$DW$T$32      .dwtag  DW_TAG_structure_type
    1944                            .dwattr $C$DW$T$32, DW_AT_byte_size(0x124)
    1945                    $C$DW$179       .dwtag  DW_TAG_member
    1946                            .dwattr $C$DW$179, DW_AT_type(*$C$DW$T$24)
    1947                            .dwattr $C$DW$179, DW_AT_name("ui32Base")
    1948                            .dwattr $C$DW$179, DW_AT_TI_symbol_name("ui32Base")
    1949                            .dwattr $C$DW$179, DW_AT_data_member_location[DW_OP_plus_uconst 0x0]
    1950                            .dwattr $C$DW$179, DW_AT_accessibility(DW_ACCESS_public)
TI ARM Assembler PC v15.12.1 Thu Nov 03 13:01:19 2016

Tools Copyright (c) 1996-2015 Texas Instruments Incorporated
MPU9150AccelerometerManager_Task.asm                                 PAGE   38

    1951                            .dwattr $C$DW$179, DW_AT_decl_file("C:/TI_CodeComposer/TivaWare/sensorlib/i2cm_drv.h")
    1952                            .dwattr $C$DW$179, DW_AT_decl_line(0x82)
    1953                            .dwattr $C$DW$179, DW_AT_decl_column(0x0e)
    1954                    
    1955                    $C$DW$180       .dwtag  DW_TAG_member
    1956                            .dwattr $C$DW$180, DW_AT_type(*$C$DW$T$19)
    1957                            .dwattr $C$DW$180, DW_AT_name("ui8Int")
    1958                            .dwattr $C$DW$180, DW_AT_TI_symbol_name("ui8Int")
    1959                            .dwattr $C$DW$180, DW_AT_data_member_location[DW_OP_plus_uconst 0x4]
    1960                            .dwattr $C$DW$180, DW_AT_accessibility(DW_ACCESS_public)
    1961                            .dwattr $C$DW$180, DW_AT_decl_file("C:/TI_CodeComposer/TivaWare/sensorlib/i2cm_drv.h")
    1962                            .dwattr $C$DW$180, DW_AT_decl_line(0x87)
    1963                            .dwattr $C$DW$180, DW_AT_decl_column(0x0d)
    1964                    
    1965                    $C$DW$181       .dwtag  DW_TAG_member
    1966                            .dwattr $C$DW$181, DW_AT_type(*$C$DW$T$19)
    1967                            .dwattr $C$DW$181, DW_AT_name("ui8TxDMA")
    1968                            .dwattr $C$DW$181, DW_AT_TI_symbol_name("ui8TxDMA")
    1969                            .dwattr $C$DW$181, DW_AT_data_member_location[DW_OP_plus_uconst 0x5]
    1970                            .dwattr $C$DW$181, DW_AT_accessibility(DW_ACCESS_public)
    1971                            .dwattr $C$DW$181, DW_AT_decl_file("C:/TI_CodeComposer/TivaWare/sensorlib/i2cm_drv.h")
    1972                            .dwattr $C$DW$181, DW_AT_decl_line(0x8c)
    1973                            .dwattr $C$DW$181, DW_AT_decl_column(0x0d)
    1974                    
    1975                    $C$DW$182       .dwtag  DW_TAG_member
    1976                            .dwattr $C$DW$182, DW_AT_type(*$C$DW$T$19)
    1977                            .dwattr $C$DW$182, DW_AT_name("ui8RxDMA")
    1978                            .dwattr $C$DW$182, DW_AT_TI_symbol_name("ui8RxDMA")
    1979                            .dwattr $C$DW$182, DW_AT_data_member_location[DW_OP_plus_uconst 0x6]
    1980                            .dwattr $C$DW$182, DW_AT_accessibility(DW_ACCESS_public)
    1981                            .dwattr $C$DW$182, DW_AT_decl_file("C:/TI_CodeComposer/TivaWare/sensorlib/i2cm_drv.h")
    1982                            .dwattr $C$DW$182, DW_AT_decl_line(0x91)
    1983                            .dwattr $C$DW$182, DW_AT_decl_column(0x0d)
    1984                    
    1985                    $C$DW$183       .dwtag  DW_TAG_member
    1986                            .dwattr $C$DW$183, DW_AT_type(*$C$DW$T$19)
    1987                            .dwattr $C$DW$183, DW_AT_name("ui8State")
    1988                            .dwattr $C$DW$183, DW_AT_TI_symbol_name("ui8State")
    1989                            .dwattr $C$DW$183, DW_AT_data_member_location[DW_OP_plus_uconst 0x7]
    1990                            .dwattr $C$DW$183, DW_AT_accessibility(DW_ACCESS_public)
    1991                            .dwattr $C$DW$183, DW_AT_decl_file("C:/TI_CodeComposer/TivaWare/sensorlib/i2cm_drv.h")
    1992                            .dwattr $C$DW$183, DW_AT_decl_line(0x96)
    1993                            .dwattr $C$DW$183, DW_AT_decl_column(0x0d)
    1994                    
    1995                    $C$DW$184       .dwtag  DW_TAG_member
    1996                            .dwattr $C$DW$184, DW_AT_type(*$C$DW$T$19)
    1997                            .dwattr $C$DW$184, DW_AT_name("ui8ReadPtr")
    1998                            .dwattr $C$DW$184, DW_AT_TI_symbol_name("ui8ReadPtr")
    1999                            .dwattr $C$DW$184, DW_AT_data_member_location[DW_OP_plus_uconst 0x8]
    2000                            .dwattr $C$DW$184, DW_AT_accessibility(DW_ACCESS_public)
    2001                            .dwattr $C$DW$184, DW_AT_decl_file("C:/TI_CodeComposer/TivaWare/sensorlib/i2cm_drv.h")
    2002                            .dwattr $C$DW$184, DW_AT_decl_line(0x9c)
    2003                            .dwattr $C$DW$184, DW_AT_decl_column(0x0d)
    2004                    
    2005                    $C$DW$185       .dwtag  DW_TAG_member
TI ARM Assembler PC v15.12.1 Thu Nov 03 13:01:19 2016

Tools Copyright (c) 1996-2015 Texas Instruments Incorporated
MPU9150AccelerometerManager_Task.asm                                 PAGE   39

    2006                            .dwattr $C$DW$185, DW_AT_type(*$C$DW$T$19)
    2007                            .dwattr $C$DW$185, DW_AT_name("ui8WritePtr")
    2008                            .dwattr $C$DW$185, DW_AT_TI_symbol_name("ui8WritePtr")
    2009                            .dwattr $C$DW$185, DW_AT_data_member_location[DW_OP_plus_uconst 0x9]
    2010                            .dwattr $C$DW$185, DW_AT_accessibility(DW_ACCESS_public)
    2011                            .dwattr $C$DW$185, DW_AT_decl_file("C:/TI_CodeComposer/TivaWare/sensorlib/i2cm_drv.h")
    2012                            .dwattr $C$DW$185, DW_AT_decl_line(0xa2)
    2013                            .dwattr $C$DW$185, DW_AT_decl_column(0x0d)
    2014                    
    2015                    $C$DW$186       .dwtag  DW_TAG_member
    2016                            .dwattr $C$DW$186, DW_AT_type(*$C$DW$T$22)
    2017                            .dwattr $C$DW$186, DW_AT_name("ui16Index")
    2018                            .dwattr $C$DW$186, DW_AT_TI_symbol_name("ui16Index")
    2019                            .dwattr $C$DW$186, DW_AT_data_member_location[DW_OP_plus_uconst 0xa]
    2020                            .dwattr $C$DW$186, DW_AT_accessibility(DW_ACCESS_public)
    2021                            .dwattr $C$DW$186, DW_AT_decl_file("C:/TI_CodeComposer/TivaWare/sensorlib/i2cm_drv.h")
    2022                            .dwattr $C$DW$186, DW_AT_decl_line(0xa7)
    2023                            .dwattr $C$DW$186, DW_AT_decl_column(0x0e)
    2024                    
    2025                    $C$DW$187       .dwtag  DW_TAG_member
    2026                            .dwattr $C$DW$187, DW_AT_type(*$C$DW$T$31)
    2027                            .dwattr $C$DW$187, DW_AT_name("pCommands")
    2028                            .dwattr $C$DW$187, DW_AT_TI_symbol_name("pCommands")
    2029                            .dwattr $C$DW$187, DW_AT_data_member_location[DW_OP_plus_uconst 0xc]
    2030                            .dwattr $C$DW$187, DW_AT_accessibility(DW_ACCESS_public)
    2031                            .dwattr $C$DW$187, DW_AT_decl_file("C:/TI_CodeComposer/TivaWare/sensorlib/i2cm_drv.h")
    2032                            .dwattr $C$DW$187, DW_AT_decl_line(0xac)
    2033                            .dwattr $C$DW$187, DW_AT_decl_column(0x12)
    2034                    
    2035                            .dwattr $C$DW$T$32, DW_AT_decl_file("C:/TI_CodeComposer/TivaWare/sensorlib/i2cm_drv.h")
    2036                            .dwattr $C$DW$T$32, DW_AT_decl_line(0x7e)
    2037                            .dwattr $C$DW$T$32, DW_AT_decl_column(0x01)
    2038                            .dwendtag $C$DW$T$32
    2039                    
    2040                    $C$DW$T$33      .dwtag  DW_TAG_typedef
    2041                            .dwattr $C$DW$T$33, DW_AT_name("tI2CMInstance")
    2042                            .dwattr $C$DW$T$33, DW_AT_type(*$C$DW$T$32)
    2043                            .dwattr $C$DW$T$33, DW_AT_language(DW_LANG_C)
    2044                            .dwattr $C$DW$T$33, DW_AT_decl_file("C:/TI_CodeComposer/TivaWare/sensorlib/i2cm_drv.h")
    2045                            .dwattr $C$DW$T$33, DW_AT_decl_line(0xae)
    2046                            .dwattr $C$DW$T$33, DW_AT_decl_column(0x01)
    2047                    
    2048                    $C$DW$T$34      .dwtag  DW_TAG_pointer_type
    2049                            .dwattr $C$DW$T$34, DW_AT_type(*$C$DW$T$33)
    2050                            .dwattr $C$DW$T$34, DW_AT_address_class(0x20)
    2051                    
    2052                    
    2053                    $C$DW$T$36      .dwtag  DW_TAG_structure_type
    2054                            .dwattr $C$DW$T$36, DW_AT_byte_size(0x18)
    2055                    $C$DW$188       .dwtag  DW_TAG_member
    2056                            .dwattr $C$DW$188, DW_AT_type(*$C$DW$T$34)
    2057                            .dwattr $C$DW$188, DW_AT_name("psI2CInst")
    2058                            .dwattr $C$DW$188, DW_AT_TI_symbol_name("psI2CInst")
    2059                            .dwattr $C$DW$188, DW_AT_data_member_location[DW_OP_plus_uconst 0x0]
    2060                            .dwattr $C$DW$188, DW_AT_accessibility(DW_ACCESS_public)
TI ARM Assembler PC v15.12.1 Thu Nov 03 13:01:19 2016

Tools Copyright (c) 1996-2015 Texas Instruments Incorporated
MPU9150AccelerometerManager_Task.asm                                 PAGE   40

    2061                            .dwattr $C$DW$188, DW_AT_decl_file("C:/TI_CodeComposer/TivaWare/sensorlib/i2cm_drv.h")
    2062                            .dwattr $C$DW$188, DW_AT_decl_line(0xf0)
    2063                            .dwattr $C$DW$188, DW_AT_decl_column(0x14)
    2064                    
    2065                    $C$DW$189       .dwtag  DW_TAG_member
    2066                            .dwattr $C$DW$189, DW_AT_type(*$C$DW$T$35)
    2067                            .dwattr $C$DW$189, DW_AT_name("pui8Buffer")
    2068                            .dwattr $C$DW$189, DW_AT_TI_symbol_name("pui8Buffer")
    2069                            .dwattr $C$DW$189, DW_AT_data_member_location[DW_OP_plus_uconst 0x4]
    2070                            .dwattr $C$DW$189, DW_AT_accessibility(DW_ACCESS_public)
    2071                            .dwattr $C$DW$189, DW_AT_decl_file("C:/TI_CodeComposer/TivaWare/sensorlib/i2cm_drv.h")
    2072                            .dwattr $C$DW$189, DW_AT_decl_line(0xf5)
    2073                            .dwattr $C$DW$189, DW_AT_decl_column(0x0d)
    2074                    
    2075                    $C$DW$190       .dwtag  DW_TAG_member
    2076                            .dwattr $C$DW$190, DW_AT_type(*$C$DW$T$19)
    2077                            .dwattr $C$DW$190, DW_AT_name("ui8State")
    2078                            .dwattr $C$DW$190, DW_AT_TI_symbol_name("ui8State")
    2079                            .dwattr $C$DW$190, DW_AT_data_member_location[DW_OP_plus_uconst 0x8]
    2080                            .dwattr $C$DW$190, DW_AT_accessibility(DW_ACCESS_public)
    2081                            .dwattr $C$DW$190, DW_AT_decl_file("C:/TI_CodeComposer/TivaWare/sensorlib/i2cm_drv.h")
    2082                            .dwattr $C$DW$190, DW_AT_decl_line(0xfa)
    2083                            .dwattr $C$DW$190, DW_AT_decl_column(0x0d)
    2084                    
    2085                    $C$DW$191       .dwtag  DW_TAG_member
    2086                            .dwattr $C$DW$191, DW_AT_type(*$C$DW$T$19)
    2087                            .dwattr $C$DW$191, DW_AT_name("ui8Addr")
    2088                            .dwattr $C$DW$191, DW_AT_TI_symbol_name("ui8Addr")
    2089                            .dwattr $C$DW$191, DW_AT_data_member_location[DW_OP_plus_uconst 0x9]
    2090                            .dwattr $C$DW$191, DW_AT_accessibility(DW_ACCESS_public)
    2091                            .dwattr $C$DW$191, DW_AT_decl_file("C:/TI_CodeComposer/TivaWare/sensorlib/i2cm_drv.h")
    2092                            .dwattr $C$DW$191, DW_AT_decl_line(0xff)
    2093                            .dwattr $C$DW$191, DW_AT_decl_column(0x0d)
    2094                    
    2095                    $C$DW$192       .dwtag  DW_TAG_member
    2096                            .dwattr $C$DW$192, DW_AT_type(*$C$DW$T$22)
    2097                            .dwattr $C$DW$192, DW_AT_name("ui16Mask")
    2098                            .dwattr $C$DW$192, DW_AT_TI_symbol_name("ui16Mask")
    2099                            .dwattr $C$DW$192, DW_AT_data_member_location[DW_OP_plus_uconst 0xa]
    2100                            .dwattr $C$DW$192, DW_AT_accessibility(DW_ACCESS_public)
    2101                            .dwattr $C$DW$192, DW_AT_decl_file("C:/TI_CodeComposer/TivaWare/sensorlib/i2cm_drv.h")
    2102                            .dwattr $C$DW$192, DW_AT_decl_line(0x104)
    2103                            .dwattr $C$DW$192, DW_AT_decl_column(0x0e)
    2104                    
    2105                    $C$DW$193       .dwtag  DW_TAG_member
    2106                            .dwattr $C$DW$193, DW_AT_type(*$C$DW$T$22)
    2107                            .dwattr $C$DW$193, DW_AT_name("ui16Value")
    2108                            .dwattr $C$DW$193, DW_AT_TI_symbol_name("ui16Value")
    2109                            .dwattr $C$DW$193, DW_AT_data_member_location[DW_OP_plus_uconst 0xc]
    2110                            .dwattr $C$DW$193, DW_AT_accessibility(DW_ACCESS_public)
    2111                            .dwattr $C$DW$193, DW_AT_decl_file("C:/TI_CodeComposer/TivaWare/sensorlib/i2cm_drv.h")
    2112                            .dwattr $C$DW$193, DW_AT_decl_line(0x109)
    2113                            .dwattr $C$DW$193, DW_AT_decl_column(0x0e)
    2114                    
    2115                    $C$DW$194       .dwtag  DW_TAG_member
TI ARM Assembler PC v15.12.1 Thu Nov 03 13:01:19 2016

Tools Copyright (c) 1996-2015 Texas Instruments Incorporated
MPU9150AccelerometerManager_Task.asm                                 PAGE   41

    2116                            .dwattr $C$DW$194, DW_AT_type(*$C$DW$T$28)
    2117                            .dwattr $C$DW$194, DW_AT_name("pfnCallback")
    2118                            .dwattr $C$DW$194, DW_AT_TI_symbol_name("pfnCallback")
    2119                            .dwattr $C$DW$194, DW_AT_data_member_location[DW_OP_plus_uconst 0x10]
    2120                            .dwattr $C$DW$194, DW_AT_accessibility(DW_ACCESS_public)
    2121                            .dwattr $C$DW$194, DW_AT_decl_file("C:/TI_CodeComposer/TivaWare/sensorlib/i2cm_drv.h")
    2122                            .dwattr $C$DW$194, DW_AT_decl_line(0x10f)
    2123                            .dwattr $C$DW$194, DW_AT_decl_column(0x16)
    2124                    
    2125                    $C$DW$195       .dwtag  DW_TAG_member
    2126                            .dwattr $C$DW$195, DW_AT_type(*$C$DW$T$3)
    2127                            .dwattr $C$DW$195, DW_AT_name("pvCallbackData")
    2128                            .dwattr $C$DW$195, DW_AT_TI_symbol_name("pvCallbackData")
    2129                            .dwattr $C$DW$195, DW_AT_data_member_location[DW_OP_plus_uconst 0x14]
    2130                            .dwattr $C$DW$195, DW_AT_accessibility(DW_ACCESS_public)
    2131                            .dwattr $C$DW$195, DW_AT_decl_file("C:/TI_CodeComposer/TivaWare/sensorlib/i2cm_drv.h")
    2132                            .dwattr $C$DW$195, DW_AT_decl_line(0x114)
    2133                            .dwattr $C$DW$195, DW_AT_decl_column(0x0b)
    2134                    
    2135                            .dwattr $C$DW$T$36, DW_AT_decl_file("C:/TI_CodeComposer/TivaWare/sensorlib/i2cm_drv.h")
    2136                            .dwattr $C$DW$T$36, DW_AT_decl_line(0xeb)
    2137                            .dwattr $C$DW$T$36, DW_AT_decl_column(0x01)
    2138                            .dwendtag $C$DW$T$36
    2139                    
    2140                    $C$DW$T$94      .dwtag  DW_TAG_typedef
    2141                            .dwattr $C$DW$T$94, DW_AT_name("tI2CMReadModifyWrite16")
    2142                            .dwattr $C$DW$T$94, DW_AT_type(*$C$DW$T$36)
    2143                            .dwattr $C$DW$T$94, DW_AT_language(DW_LANG_C)
    2144                            .dwattr $C$DW$T$94, DW_AT_decl_file("C:/TI_CodeComposer/TivaWare/sensorlib/i2cm_drv.h")
    2145                            .dwattr $C$DW$T$94, DW_AT_decl_line(0x116)
    2146                            .dwattr $C$DW$T$94, DW_AT_decl_column(0x01)
    2147                    
    2148                    $C$DW$T$95      .dwtag  DW_TAG_pointer_type
    2149                            .dwattr $C$DW$T$95, DW_AT_type(*$C$DW$T$94)
    2150                            .dwattr $C$DW$T$95, DW_AT_address_class(0x20)
    2151                    
    2152                    
    2153                    $C$DW$T$38      .dwtag  DW_TAG_structure_type
    2154                            .dwattr $C$DW$T$38, DW_AT_byte_size(0x14)
    2155                    $C$DW$196       .dwtag  DW_TAG_member
    2156                            .dwattr $C$DW$196, DW_AT_type(*$C$DW$T$34)
    2157                            .dwattr $C$DW$196, DW_AT_name("psI2CInst")
    2158                            .dwattr $C$DW$196, DW_AT_TI_symbol_name("psI2CInst")
    2159                            .dwattr $C$DW$196, DW_AT_data_member_location[DW_OP_plus_uconst 0x0]
    2160                            .dwattr $C$DW$196, DW_AT_accessibility(DW_ACCESS_public)
    2161                            .dwattr $C$DW$196, DW_AT_decl_file("C:/TI_CodeComposer/TivaWare/sensorlib/i2cm_drv.h")
    2162                            .dwattr $C$DW$196, DW_AT_decl_line(0x123)
    2163                            .dwattr $C$DW$196, DW_AT_decl_column(0x14)
    2164                    
    2165                    $C$DW$197       .dwtag  DW_TAG_member
    2166                            .dwattr $C$DW$197, DW_AT_type(*$C$DW$T$37)
    2167                            .dwattr $C$DW$197, DW_AT_name("pui8Buffer")
    2168                            .dwattr $C$DW$197, DW_AT_TI_symbol_name("pui8Buffer")
    2169                            .dwattr $C$DW$197, DW_AT_data_member_location[DW_OP_plus_uconst 0x4]
    2170                            .dwattr $C$DW$197, DW_AT_accessibility(DW_ACCESS_public)
TI ARM Assembler PC v15.12.1 Thu Nov 03 13:01:19 2016

Tools Copyright (c) 1996-2015 Texas Instruments Incorporated
MPU9150AccelerometerManager_Task.asm                                 PAGE   42

    2171                            .dwattr $C$DW$197, DW_AT_decl_file("C:/TI_CodeComposer/TivaWare/sensorlib/i2cm_drv.h")
    2172                            .dwattr $C$DW$197, DW_AT_decl_line(0x128)
    2173                            .dwattr $C$DW$197, DW_AT_decl_column(0x0d)
    2174                    
    2175                    $C$DW$198       .dwtag  DW_TAG_member
    2176                            .dwattr $C$DW$198, DW_AT_type(*$C$DW$T$22)
    2177                            .dwattr $C$DW$198, DW_AT_name("ui16Count")
    2178                            .dwattr $C$DW$198, DW_AT_TI_symbol_name("ui16Count")
    2179                            .dwattr $C$DW$198, DW_AT_data_member_location[DW_OP_plus_uconst 0x6]
    2180                            .dwattr $C$DW$198, DW_AT_accessibility(DW_ACCESS_public)
    2181                            .dwattr $C$DW$198, DW_AT_decl_file("C:/TI_CodeComposer/TivaWare/sensorlib/i2cm_drv.h")
    2182                            .dwattr $C$DW$198, DW_AT_decl_line(0x12d)
    2183                            .dwattr $C$DW$198, DW_AT_decl_column(0x0e)
    2184                    
    2185                    $C$DW$199       .dwtag  DW_TAG_member
    2186                            .dwattr $C$DW$199, DW_AT_type(*$C$DW$T$21)
    2187                            .dwattr $C$DW$199, DW_AT_name("pui8Data")
    2188                            .dwattr $C$DW$199, DW_AT_TI_symbol_name("pui8Data")
    2189                            .dwattr $C$DW$199, DW_AT_data_member_location[DW_OP_plus_uconst 0x8]
    2190                            .dwattr $C$DW$199, DW_AT_accessibility(DW_ACCESS_public)
    2191                            .dwattr $C$DW$199, DW_AT_decl_file("C:/TI_CodeComposer/TivaWare/sensorlib/i2cm_drv.h")
    2192                            .dwattr $C$DW$199, DW_AT_decl_line(0x132)
    2193                            .dwattr $C$DW$199, DW_AT_decl_column(0x14)
    2194                    
    2195                    $C$DW$200       .dwtag  DW_TAG_member
    2196                            .dwattr $C$DW$200, DW_AT_type(*$C$DW$T$28)
    2197                            .dwattr $C$DW$200, DW_AT_name("pfnCallback")
    2198                            .dwattr $C$DW$200, DW_AT_TI_symbol_name("pfnCallback")
    2199                            .dwattr $C$DW$200, DW_AT_data_member_location[DW_OP_plus_uconst 0xc]
    2200                            .dwattr $C$DW$200, DW_AT_accessibility(DW_ACCESS_public)
    2201                            .dwattr $C$DW$200, DW_AT_decl_file("C:/TI_CodeComposer/TivaWare/sensorlib/i2cm_drv.h")
    2202                            .dwattr $C$DW$200, DW_AT_decl_line(0x137)
    2203                            .dwattr $C$DW$200, DW_AT_decl_column(0x16)
    2204                    
    2205                    $C$DW$201       .dwtag  DW_TAG_member
    2206                            .dwattr $C$DW$201, DW_AT_type(*$C$DW$T$3)
    2207                            .dwattr $C$DW$201, DW_AT_name("pvCallbackData")
    2208                            .dwattr $C$DW$201, DW_AT_TI_symbol_name("pvCallbackData")
    2209                            .dwattr $C$DW$201, DW_AT_data_member_location[DW_OP_plus_uconst 0x10]
    2210                            .dwattr $C$DW$201, DW_AT_accessibility(DW_ACCESS_public)
    2211                            .dwattr $C$DW$201, DW_AT_decl_file("C:/TI_CodeComposer/TivaWare/sensorlib/i2cm_drv.h")
    2212                            .dwattr $C$DW$201, DW_AT_decl_line(0x13c)
    2213                            .dwattr $C$DW$201, DW_AT_decl_column(0x0b)
    2214                    
    2215                            .dwattr $C$DW$T$38, DW_AT_decl_file("C:/TI_CodeComposer/TivaWare/sensorlib/i2cm_drv.h")
    2216                            .dwattr $C$DW$T$38, DW_AT_decl_line(0x11e)
    2217                            .dwattr $C$DW$T$38, DW_AT_decl_column(0x01)
    2218                            .dwendtag $C$DW$T$38
    2219                    
    2220                    $C$DW$T$52      .dwtag  DW_TAG_typedef
    2221                            .dwattr $C$DW$T$52, DW_AT_name("tI2CMWrite8")
    2222                            .dwattr $C$DW$T$52, DW_AT_type(*$C$DW$T$38)
    2223                            .dwattr $C$DW$T$52, DW_AT_language(DW_LANG_C)
    2224                            .dwattr $C$DW$T$52, DW_AT_decl_file("C:/TI_CodeComposer/TivaWare/sensorlib/i2cm_drv.h")
    2225                            .dwattr $C$DW$T$52, DW_AT_decl_line(0x13e)
TI ARM Assembler PC v15.12.1 Thu Nov 03 13:01:19 2016

Tools Copyright (c) 1996-2015 Texas Instruments Incorporated
MPU9150AccelerometerManager_Task.asm                                 PAGE   43

    2226                            .dwattr $C$DW$T$52, DW_AT_decl_column(0x01)
    2227                    
    2228                    
    2229                    $C$DW$T$39      .dwtag  DW_TAG_structure_type
    2230                            .dwattr $C$DW$T$39, DW_AT_byte_size(0x14)
    2231                    $C$DW$202       .dwtag  DW_TAG_member
    2232                            .dwattr $C$DW$202, DW_AT_type(*$C$DW$T$34)
    2233                            .dwattr $C$DW$202, DW_AT_name("psI2CInst")
    2234                            .dwattr $C$DW$202, DW_AT_TI_symbol_name("psI2CInst")
    2235                            .dwattr $C$DW$202, DW_AT_data_member_location[DW_OP_plus_uconst 0x0]
    2236                            .dwattr $C$DW$202, DW_AT_accessibility(DW_ACCESS_public)
    2237                            .dwattr $C$DW$202, DW_AT_decl_file("C:/TI_CodeComposer/TivaWare/sensorlib/i2cm_drv.h")
    2238                            .dwattr $C$DW$202, DW_AT_decl_line(0xbc)
    2239                            .dwattr $C$DW$202, DW_AT_decl_column(0x14)
    2240                    
    2241                    $C$DW$203       .dwtag  DW_TAG_member
    2242                            .dwattr $C$DW$203, DW_AT_type(*$C$DW$T$35)
    2243                            .dwattr $C$DW$203, DW_AT_name("pui8Buffer")
    2244                            .dwattr $C$DW$203, DW_AT_TI_symbol_name("pui8Buffer")
    2245                            .dwattr $C$DW$203, DW_AT_data_member_location[DW_OP_plus_uconst 0x4]
    2246                            .dwattr $C$DW$203, DW_AT_accessibility(DW_ACCESS_public)
    2247                            .dwattr $C$DW$203, DW_AT_decl_file("C:/TI_CodeComposer/TivaWare/sensorlib/i2cm_drv.h")
    2248                            .dwattr $C$DW$203, DW_AT_decl_line(0xc1)
    2249                            .dwattr $C$DW$203, DW_AT_decl_column(0x0d)
    2250                    
    2251                    $C$DW$204       .dwtag  DW_TAG_member
    2252                            .dwattr $C$DW$204, DW_AT_type(*$C$DW$T$19)
    2253                            .dwattr $C$DW$204, DW_AT_name("ui8State")
    2254                            .dwattr $C$DW$204, DW_AT_TI_symbol_name("ui8State")
    2255                            .dwattr $C$DW$204, DW_AT_data_member_location[DW_OP_plus_uconst 0x8]
    2256                            .dwattr $C$DW$204, DW_AT_accessibility(DW_ACCESS_public)
    2257                            .dwattr $C$DW$204, DW_AT_decl_file("C:/TI_CodeComposer/TivaWare/sensorlib/i2cm_drv.h")
    2258                            .dwattr $C$DW$204, DW_AT_decl_line(0xc6)
    2259                            .dwattr $C$DW$204, DW_AT_decl_column(0x0d)
    2260                    
    2261                    $C$DW$205       .dwtag  DW_TAG_member
    2262                            .dwattr $C$DW$205, DW_AT_type(*$C$DW$T$19)
    2263                            .dwattr $C$DW$205, DW_AT_name("ui8Addr")
    2264                            .dwattr $C$DW$205, DW_AT_TI_symbol_name("ui8Addr")
    2265                            .dwattr $C$DW$205, DW_AT_data_member_location[DW_OP_plus_uconst 0x9]
    2266                            .dwattr $C$DW$205, DW_AT_accessibility(DW_ACCESS_public)
    2267                            .dwattr $C$DW$205, DW_AT_decl_file("C:/TI_CodeComposer/TivaWare/sensorlib/i2cm_drv.h")
    2268                            .dwattr $C$DW$205, DW_AT_decl_line(0xcb)
    2269                            .dwattr $C$DW$205, DW_AT_decl_column(0x0d)
    2270                    
    2271                    $C$DW$206       .dwtag  DW_TAG_member
    2272                            .dwattr $C$DW$206, DW_AT_type(*$C$DW$T$19)
    2273                            .dwattr $C$DW$206, DW_AT_name("ui8Mask")
    2274                            .dwattr $C$DW$206, DW_AT_TI_symbol_name("ui8Mask")
    2275                            .dwattr $C$DW$206, DW_AT_data_member_location[DW_OP_plus_uconst 0xa]
    2276                            .dwattr $C$DW$206, DW_AT_accessibility(DW_ACCESS_public)
    2277                            .dwattr $C$DW$206, DW_AT_decl_file("C:/TI_CodeComposer/TivaWare/sensorlib/i2cm_drv.h")
    2278                            .dwattr $C$DW$206, DW_AT_decl_line(0xd0)
    2279                            .dwattr $C$DW$206, DW_AT_decl_column(0x0d)
    2280                    
TI ARM Assembler PC v15.12.1 Thu Nov 03 13:01:19 2016

Tools Copyright (c) 1996-2015 Texas Instruments Incorporated
MPU9150AccelerometerManager_Task.asm                                 PAGE   44

    2281                    $C$DW$207       .dwtag  DW_TAG_member
    2282                            .dwattr $C$DW$207, DW_AT_type(*$C$DW$T$19)
    2283                            .dwattr $C$DW$207, DW_AT_name("ui8Value")
    2284                            .dwattr $C$DW$207, DW_AT_TI_symbol_name("ui8Value")
    2285                            .dwattr $C$DW$207, DW_AT_data_member_location[DW_OP_plus_uconst 0xb]
    2286                            .dwattr $C$DW$207, DW_AT_accessibility(DW_ACCESS_public)
    2287                            .dwattr $C$DW$207, DW_AT_decl_file("C:/TI_CodeComposer/TivaWare/sensorlib/i2cm_drv.h")
    2288                            .dwattr $C$DW$207, DW_AT_decl_line(0xd5)
    2289                            .dwattr $C$DW$207, DW_AT_decl_column(0x0d)
    2290                    
    2291                    $C$DW$208       .dwtag  DW_TAG_member
    2292                            .dwattr $C$DW$208, DW_AT_type(*$C$DW$T$28)
    2293                            .dwattr $C$DW$208, DW_AT_name("pfnCallback")
    2294                            .dwattr $C$DW$208, DW_AT_TI_symbol_name("pfnCallback")
    2295                            .dwattr $C$DW$208, DW_AT_data_member_location[DW_OP_plus_uconst 0xc]
    2296                            .dwattr $C$DW$208, DW_AT_accessibility(DW_ACCESS_public)
    2297                            .dwattr $C$DW$208, DW_AT_decl_file("C:/TI_CodeComposer/TivaWare/sensorlib/i2cm_drv.h")
    2298                            .dwattr $C$DW$208, DW_AT_decl_line(0xdb)
    2299                            .dwattr $C$DW$208, DW_AT_decl_column(0x16)
    2300                    
    2301                    $C$DW$209       .dwtag  DW_TAG_member
    2302                            .dwattr $C$DW$209, DW_AT_type(*$C$DW$T$3)
    2303                            .dwattr $C$DW$209, DW_AT_name("pvCallbackData")
    2304                            .dwattr $C$DW$209, DW_AT_TI_symbol_name("pvCallbackData")
    2305                            .dwattr $C$DW$209, DW_AT_data_member_location[DW_OP_plus_uconst 0x10]
    2306                            .dwattr $C$DW$209, DW_AT_accessibility(DW_ACCESS_public)
    2307                            .dwattr $C$DW$209, DW_AT_decl_file("C:/TI_CodeComposer/TivaWare/sensorlib/i2cm_drv.h")
    2308                            .dwattr $C$DW$209, DW_AT_decl_line(0xe0)
    2309                            .dwattr $C$DW$209, DW_AT_decl_column(0x0b)
    2310                    
    2311                            .dwattr $C$DW$T$39, DW_AT_decl_file("C:/TI_CodeComposer/TivaWare/sensorlib/i2cm_drv.h")
    2312                            .dwattr $C$DW$T$39, DW_AT_decl_line(0xb7)
    2313                            .dwattr $C$DW$T$39, DW_AT_decl_column(0x01)
    2314                            .dwendtag $C$DW$T$39
    2315                    
    2316                    $C$DW$T$53      .dwtag  DW_TAG_typedef
    2317                            .dwattr $C$DW$T$53, DW_AT_name("tI2CMReadModifyWrite8")
    2318                            .dwattr $C$DW$T$53, DW_AT_type(*$C$DW$T$39)
    2319                            .dwattr $C$DW$T$53, DW_AT_language(DW_LANG_C)
    2320                            .dwattr $C$DW$T$53, DW_AT_decl_file("C:/TI_CodeComposer/TivaWare/sensorlib/i2cm_drv.h")
    2321                            .dwattr $C$DW$T$53, DW_AT_decl_line(0xe2)
    2322                            .dwattr $C$DW$T$53, DW_AT_decl_column(0x01)
    2323                    
    2324                    
    2325                    $C$DW$T$41      .dwtag  DW_TAG_structure_type
    2326                            .dwattr $C$DW$T$41, DW_AT_byte_size(0x2c)
    2327                    $C$DW$210       .dwtag  DW_TAG_member
    2328                            .dwattr $C$DW$210, DW_AT_type(*$C$DW$T$34)
    2329                            .dwattr $C$DW$210, DW_AT_name("psI2CInst")
    2330                            .dwattr $C$DW$210, DW_AT_TI_symbol_name("psI2CInst")
    2331                            .dwattr $C$DW$210, DW_AT_data_member_location[DW_OP_plus_uconst 0x0]
    2332                            .dwattr $C$DW$210, DW_AT_accessibility(DW_ACCESS_public)
    2333                            .dwattr $C$DW$210, DW_AT_decl_file("C:/TI_CodeComposer/TivaWare/sensorlib/ak8975.h")
    2334                            .dwattr $C$DW$210, DW_AT_decl_line(0x32)
    2335                            .dwattr $C$DW$210, DW_AT_decl_column(0x14)
TI ARM Assembler PC v15.12.1 Thu Nov 03 13:01:19 2016

Tools Copyright (c) 1996-2015 Texas Instruments Incorporated
MPU9150AccelerometerManager_Task.asm                                 PAGE   45

    2336                    
    2337                    $C$DW$211       .dwtag  DW_TAG_member
    2338                            .dwattr $C$DW$211, DW_AT_type(*$C$DW$T$19)
    2339                            .dwattr $C$DW$211, DW_AT_name("ui8Addr")
    2340                            .dwattr $C$DW$211, DW_AT_TI_symbol_name("ui8Addr")
    2341                            .dwattr $C$DW$211, DW_AT_data_member_location[DW_OP_plus_uconst 0x4]
    2342                            .dwattr $C$DW$211, DW_AT_accessibility(DW_ACCESS_public)
    2343                            .dwattr $C$DW$211, DW_AT_decl_file("C:/TI_CodeComposer/TivaWare/sensorlib/ak8975.h")
    2344                            .dwattr $C$DW$211, DW_AT_decl_line(0x37)
    2345                            .dwattr $C$DW$211, DW_AT_decl_column(0x0d)
    2346                    
    2347                    $C$DW$212       .dwtag  DW_TAG_member
    2348                            .dwattr $C$DW$212, DW_AT_type(*$C$DW$T$19)
    2349                            .dwattr $C$DW$212, DW_AT_name("ui8State")
    2350                            .dwattr $C$DW$212, DW_AT_TI_symbol_name("ui8State")
    2351                            .dwattr $C$DW$212, DW_AT_data_member_location[DW_OP_plus_uconst 0x5]
    2352                            .dwattr $C$DW$212, DW_AT_accessibility(DW_ACCESS_public)
    2353                            .dwattr $C$DW$212, DW_AT_decl_file("C:/TI_CodeComposer/TivaWare/sensorlib/ak8975.h")
    2354                            .dwattr $C$DW$212, DW_AT_decl_line(0x3c)
    2355                            .dwattr $C$DW$212, DW_AT_decl_column(0x0d)
    2356                    
    2357                    $C$DW$213       .dwtag  DW_TAG_member
    2358                            .dwattr $C$DW$213, DW_AT_type(*$C$DW$T$40)
    2359                            .dwattr $C$DW$213, DW_AT_name("pui8Data")
    2360                            .dwattr $C$DW$213, DW_AT_TI_symbol_name("pui8Data")
    2361                            .dwattr $C$DW$213, DW_AT_data_member_location[DW_OP_plus_uconst 0x6]
    2362                            .dwattr $C$DW$213, DW_AT_accessibility(DW_ACCESS_public)
    2363                            .dwattr $C$DW$213, DW_AT_decl_file("C:/TI_CodeComposer/TivaWare/sensorlib/ak8975.h")
    2364                            .dwattr $C$DW$213, DW_AT_decl_line(0x41)
    2365                            .dwattr $C$DW$213, DW_AT_decl_column(0x0d)
    2366                    
    2367                    $C$DW$214       .dwtag  DW_TAG_member
    2368                            .dwattr $C$DW$214, DW_AT_type(*$C$DW$T$28)
    2369                            .dwattr $C$DW$214, DW_AT_name("pfnCallback")
    2370                            .dwattr $C$DW$214, DW_AT_TI_symbol_name("pfnCallback")
    2371                            .dwattr $C$DW$214, DW_AT_data_member_location[DW_OP_plus_uconst 0x10]
    2372                            .dwattr $C$DW$214, DW_AT_accessibility(DW_ACCESS_public)
    2373                            .dwattr $C$DW$214, DW_AT_decl_file("C:/TI_CodeComposer/TivaWare/sensorlib/ak8975.h")
    2374                            .dwattr $C$DW$214, DW_AT_decl_line(0x47)
    2375                            .dwattr $C$DW$214, DW_AT_decl_column(0x16)
    2376                    
    2377                    $C$DW$215       .dwtag  DW_TAG_member
    2378                            .dwattr $C$DW$215, DW_AT_type(*$C$DW$T$3)
    2379                            .dwattr $C$DW$215, DW_AT_name("pvCallbackData")
    2380                            .dwattr $C$DW$215, DW_AT_TI_symbol_name("pvCallbackData")
    2381                            .dwattr $C$DW$215, DW_AT_data_member_location[DW_OP_plus_uconst 0x14]
    2382                            .dwattr $C$DW$215, DW_AT_accessibility(DW_ACCESS_public)
    2383                            .dwattr $C$DW$215, DW_AT_decl_file("C:/TI_CodeComposer/TivaWare/sensorlib/ak8975.h")
    2384                            .dwattr $C$DW$215, DW_AT_decl_line(0x4c)
    2385                            .dwattr $C$DW$215, DW_AT_decl_column(0x0b)
    2386                    
    2387                    $C$DW$216       .dwtag  DW_TAG_member
    2388                            .dwattr $C$DW$216, DW_AT_type(*$C$DW$T$54)
    2389                            .dwattr $C$DW$216, DW_AT_name("uCommand")
    2390                            .dwattr $C$DW$216, DW_AT_TI_symbol_name("uCommand")
TI ARM Assembler PC v15.12.1 Thu Nov 03 13:01:19 2016

Tools Copyright (c) 1996-2015 Texas Instruments Incorporated
MPU9150AccelerometerManager_Task.asm                                 PAGE   46

    2391                            .dwattr $C$DW$216, DW_AT_data_member_location[DW_OP_plus_uconst 0x18]
    2392                            .dwattr $C$DW$216, DW_AT_accessibility(DW_ACCESS_public)
    2393                            .dwattr $C$DW$216, DW_AT_decl_file("C:/TI_CodeComposer/TivaWare/sensorlib/ak8975.h")
    2394                            .dwattr $C$DW$216, DW_AT_decl_line(0x64)
    2395                            .dwattr $C$DW$216, DW_AT_decl_column(0x05)
    2396                    
    2397                            .dwattr $C$DW$T$41, DW_AT_decl_file("C:/TI_CodeComposer/TivaWare/sensorlib/ak8975.h")
    2398                            .dwattr $C$DW$T$41, DW_AT_decl_line(0x2d)
    2399                            .dwattr $C$DW$T$41, DW_AT_decl_column(0x01)
    2400                            .dwendtag $C$DW$T$41
    2401                    
    2402                    $C$DW$T$42      .dwtag  DW_TAG_typedef
    2403                            .dwattr $C$DW$T$42, DW_AT_name("tAK8975")
    2404                            .dwattr $C$DW$T$42, DW_AT_type(*$C$DW$T$41)
    2405                            .dwattr $C$DW$T$42, DW_AT_language(DW_LANG_C)
    2406                            .dwattr $C$DW$T$42, DW_AT_decl_file("C:/TI_CodeComposer/TivaWare/sensorlib/ak8975.h")
    2407                            .dwattr $C$DW$T$42, DW_AT_decl_line(0x66)
    2408                            .dwattr $C$DW$T$42, DW_AT_decl_column(0x01)
    2409                    
    2410                    
    2411                    $C$DW$T$44      .dwtag  DW_TAG_structure_type
    2412                            .dwattr $C$DW$T$44, DW_AT_byte_size(0x6c)
    2413                    $C$DW$217       .dwtag  DW_TAG_member
    2414                            .dwattr $C$DW$217, DW_AT_type(*$C$DW$T$34)
    2415                            .dwattr $C$DW$217, DW_AT_name("psI2CInst")
    2416                            .dwattr $C$DW$217, DW_AT_TI_symbol_name("psI2CInst")
    2417                            .dwattr $C$DW$217, DW_AT_data_member_location[DW_OP_plus_uconst 0x0]
    2418                            .dwattr $C$DW$217, DW_AT_accessibility(DW_ACCESS_public)
    2419                            .dwattr $C$DW$217, DW_AT_decl_file("C:/TI_CodeComposer/TivaWare/sensorlib/mpu9150.h")
    2420                            .dwattr $C$DW$217, DW_AT_decl_line(0x33)
    2421                            .dwattr $C$DW$217, DW_AT_decl_column(0x14)
    2422                    
    2423                    $C$DW$218       .dwtag  DW_TAG_member
    2424                            .dwattr $C$DW$218, DW_AT_type(*$C$DW$T$42)
    2425                            .dwattr $C$DW$218, DW_AT_name("sAK8975Inst")
    2426                            .dwattr $C$DW$218, DW_AT_TI_symbol_name("sAK8975Inst")
    2427                            .dwattr $C$DW$218, DW_AT_data_member_location[DW_OP_plus_uconst 0x4]
    2428                            .dwattr $C$DW$218, DW_AT_accessibility(DW_ACCESS_public)
    2429                            .dwattr $C$DW$218, DW_AT_decl_file("C:/TI_CodeComposer/TivaWare/sensorlib/mpu9150.h")
    2430                            .dwattr $C$DW$218, DW_AT_decl_line(0x38)
    2431                            .dwattr $C$DW$218, DW_AT_decl_column(0x0d)
    2432                    
    2433                    $C$DW$219       .dwtag  DW_TAG_member
    2434                            .dwattr $C$DW$219, DW_AT_type(*$C$DW$T$19)
    2435                            .dwattr $C$DW$219, DW_AT_name("ui8Addr")
    2436                            .dwattr $C$DW$219, DW_AT_TI_symbol_name("ui8Addr")
    2437                            .dwattr $C$DW$219, DW_AT_data_member_location[DW_OP_plus_uconst 0x30]
    2438                            .dwattr $C$DW$219, DW_AT_accessibility(DW_ACCESS_public)
    2439                            .dwattr $C$DW$219, DW_AT_decl_file("C:/TI_CodeComposer/TivaWare/sensorlib/mpu9150.h")
    2440                            .dwattr $C$DW$219, DW_AT_decl_line(0x3d)
    2441                            .dwattr $C$DW$219, DW_AT_decl_column(0x0d)
    2442                    
    2443                    $C$DW$220       .dwtag  DW_TAG_member
    2444                            .dwattr $C$DW$220, DW_AT_type(*$C$DW$T$19)
    2445                            .dwattr $C$DW$220, DW_AT_name("ui8State")
TI ARM Assembler PC v15.12.1 Thu Nov 03 13:01:19 2016

Tools Copyright (c) 1996-2015 Texas Instruments Incorporated
MPU9150AccelerometerManager_Task.asm                                 PAGE   47

    2446                            .dwattr $C$DW$220, DW_AT_TI_symbol_name("ui8State")
    2447                            .dwattr $C$DW$220, DW_AT_data_member_location[DW_OP_plus_uconst 0x31]
    2448                            .dwattr $C$DW$220, DW_AT_accessibility(DW_ACCESS_public)
    2449                            .dwattr $C$DW$220, DW_AT_decl_file("C:/TI_CodeComposer/TivaWare/sensorlib/mpu9150.h")
    2450                            .dwattr $C$DW$220, DW_AT_decl_line(0x42)
    2451                            .dwattr $C$DW$220, DW_AT_decl_column(0x0d)
    2452                    
    2453                    $C$DW$221       .dwtag  DW_TAG_member
    2454                            .dwattr $C$DW$221, DW_AT_type(*$C$DW$T$19)
    2455                            .dwattr $C$DW$221, DW_AT_name("ui8AccelAfsSel")
    2456                            .dwattr $C$DW$221, DW_AT_TI_symbol_name("ui8AccelAfsSel")
    2457                            .dwattr $C$DW$221, DW_AT_data_member_location[DW_OP_plus_uconst 0x32]
    2458                            .dwattr $C$DW$221, DW_AT_accessibility(DW_ACCESS_public)
    2459                            .dwattr $C$DW$221, DW_AT_decl_file("C:/TI_CodeComposer/TivaWare/sensorlib/mpu9150.h")
    2460                            .dwattr $C$DW$221, DW_AT_decl_line(0x47)
    2461                            .dwattr $C$DW$221, DW_AT_decl_column(0x0d)
    2462                    
    2463                    $C$DW$222       .dwtag  DW_TAG_member
    2464                            .dwattr $C$DW$222, DW_AT_type(*$C$DW$T$19)
    2465                            .dwattr $C$DW$222, DW_AT_name("ui8NewAccelAfsSel")
    2466                            .dwattr $C$DW$222, DW_AT_TI_symbol_name("ui8NewAccelAfsSel")
    2467                            .dwattr $C$DW$222, DW_AT_data_member_location[DW_OP_plus_uconst 0x33]
    2468                            .dwattr $C$DW$222, DW_AT_accessibility(DW_ACCESS_public)
    2469                            .dwattr $C$DW$222, DW_AT_decl_file("C:/TI_CodeComposer/TivaWare/sensorlib/mpu9150.h")
    2470                            .dwattr $C$DW$222, DW_AT_decl_line(0x4d)
    2471                            .dwattr $C$DW$222, DW_AT_decl_column(0x0d)
    2472                    
    2473                    $C$DW$223       .dwtag  DW_TAG_member
    2474                            .dwattr $C$DW$223, DW_AT_type(*$C$DW$T$19)
    2475                            .dwattr $C$DW$223, DW_AT_name("ui8GyroFsSel")
    2476                            .dwattr $C$DW$223, DW_AT_TI_symbol_name("ui8GyroFsSel")
    2477                            .dwattr $C$DW$223, DW_AT_data_member_location[DW_OP_plus_uconst 0x34]
    2478                            .dwattr $C$DW$223, DW_AT_accessibility(DW_ACCESS_public)
    2479                            .dwattr $C$DW$223, DW_AT_decl_file("C:/TI_CodeComposer/TivaWare/sensorlib/mpu9150.h")
    2480                            .dwattr $C$DW$223, DW_AT_decl_line(0x52)
    2481                            .dwattr $C$DW$223, DW_AT_decl_column(0x0d)
    2482                    
    2483                    $C$DW$224       .dwtag  DW_TAG_member
    2484                            .dwattr $C$DW$224, DW_AT_type(*$C$DW$T$19)
    2485                            .dwattr $C$DW$224, DW_AT_name("ui8NewGyroFsSel")
    2486                            .dwattr $C$DW$224, DW_AT_TI_symbol_name("ui8NewGyroFsSel")
    2487                            .dwattr $C$DW$224, DW_AT_data_member_location[DW_OP_plus_uconst 0x35]
    2488                            .dwattr $C$DW$224, DW_AT_accessibility(DW_ACCESS_public)
    2489                            .dwattr $C$DW$224, DW_AT_decl_file("C:/TI_CodeComposer/TivaWare/sensorlib/mpu9150.h")
    2490                            .dwattr $C$DW$224, DW_AT_decl_line(0x58)
    2491                            .dwattr $C$DW$224, DW_AT_decl_column(0x0d)
    2492                    
    2493                    $C$DW$225       .dwtag  DW_TAG_member
    2494                            .dwattr $C$DW$225, DW_AT_type(*$C$DW$T$43)
    2495                            .dwattr $C$DW$225, DW_AT_name("pui8Data")
    2496                            .dwattr $C$DW$225, DW_AT_TI_symbol_name("pui8Data")
    2497                            .dwattr $C$DW$225, DW_AT_data_member_location[DW_OP_plus_uconst 0x36]
    2498                            .dwattr $C$DW$225, DW_AT_accessibility(DW_ACCESS_public)
    2499                            .dwattr $C$DW$225, DW_AT_decl_file("C:/TI_CodeComposer/TivaWare/sensorlib/mpu9150.h")
    2500                            .dwattr $C$DW$225, DW_AT_decl_line(0x5d)
TI ARM Assembler PC v15.12.1 Thu Nov 03 13:01:19 2016

Tools Copyright (c) 1996-2015 Texas Instruments Incorporated
MPU9150AccelerometerManager_Task.asm                                 PAGE   48

    2501                            .dwattr $C$DW$225, DW_AT_decl_column(0x0d)
    2502                    
    2503                    $C$DW$226       .dwtag  DW_TAG_member
    2504                            .dwattr $C$DW$226, DW_AT_type(*$C$DW$T$28)
    2505                            .dwattr $C$DW$226, DW_AT_name("pfnCallback")
    2506                            .dwattr $C$DW$226, DW_AT_TI_symbol_name("pfnCallback")
    2507                            .dwattr $C$DW$226, DW_AT_data_member_location[DW_OP_plus_uconst 0x50]
    2508                            .dwattr $C$DW$226, DW_AT_accessibility(DW_ACCESS_public)
    2509                            .dwattr $C$DW$226, DW_AT_decl_file("C:/TI_CodeComposer/TivaWare/sensorlib/mpu9150.h")
    2510                            .dwattr $C$DW$226, DW_AT_decl_line(0x63)
    2511                            .dwattr $C$DW$226, DW_AT_decl_column(0x16)
    2512                    
    2513                    $C$DW$227       .dwtag  DW_TAG_member
    2514                            .dwattr $C$DW$227, DW_AT_type(*$C$DW$T$3)
    2515                            .dwattr $C$DW$227, DW_AT_name("pvCallbackData")
    2516                            .dwattr $C$DW$227, DW_AT_TI_symbol_name("pvCallbackData")
    2517                            .dwattr $C$DW$227, DW_AT_data_member_location[DW_OP_plus_uconst 0x54]
    2518                            .dwattr $C$DW$227, DW_AT_accessibility(DW_ACCESS_public)
    2519                            .dwattr $C$DW$227, DW_AT_decl_file("C:/TI_CodeComposer/TivaWare/sensorlib/mpu9150.h")
    2520                            .dwattr $C$DW$227, DW_AT_decl_line(0x68)
    2521                            .dwattr $C$DW$227, DW_AT_decl_column(0x0b)
    2522                    
    2523                    $C$DW$228       .dwtag  DW_TAG_member
    2524                            .dwattr $C$DW$228, DW_AT_type(*$C$DW$T$56)
    2525                            .dwattr $C$DW$228, DW_AT_name("uCommand")
    2526                            .dwattr $C$DW$228, DW_AT_TI_symbol_name("uCommand")
    2527                            .dwattr $C$DW$228, DW_AT_data_member_location[DW_OP_plus_uconst 0x58]
    2528                            .dwattr $C$DW$228, DW_AT_accessibility(DW_ACCESS_public)
    2529                            .dwattr $C$DW$228, DW_AT_decl_file("C:/TI_CodeComposer/TivaWare/sensorlib/mpu9150.h")
    2530                            .dwattr $C$DW$228, DW_AT_decl_line(0x80)
    2531                            .dwattr $C$DW$228, DW_AT_decl_column(0x05)
    2532                    
    2533                            .dwattr $C$DW$T$44, DW_AT_decl_file("C:/TI_CodeComposer/TivaWare/sensorlib/mpu9150.h")
    2534                            .dwattr $C$DW$T$44, DW_AT_decl_line(0x2e)
    2535                            .dwattr $C$DW$T$44, DW_AT_decl_column(0x01)
    2536                            .dwendtag $C$DW$T$44
    2537                    
    2538                    $C$DW$T$96      .dwtag  DW_TAG_typedef
    2539                            .dwattr $C$DW$T$96, DW_AT_name("tMPU9150")
    2540                            .dwattr $C$DW$T$96, DW_AT_type(*$C$DW$T$44)
    2541                            .dwattr $C$DW$T$96, DW_AT_language(DW_LANG_C)
    2542                            .dwattr $C$DW$T$96, DW_AT_decl_file("C:/TI_CodeComposer/TivaWare/sensorlib/mpu9150.h")
    2543                            .dwattr $C$DW$T$96, DW_AT_decl_line(0x82)
    2544                            .dwattr $C$DW$T$96, DW_AT_decl_column(0x01)
    2545                    
    2546                    $C$DW$T$97      .dwtag  DW_TAG_pointer_type
    2547                            .dwattr $C$DW$T$97, DW_AT_type(*$C$DW$T$96)
    2548                            .dwattr $C$DW$T$97, DW_AT_address_class(0x20)
    2549                    
    2550                    
    2551                    $C$DW$T$45      .dwtag  DW_TAG_structure_type
    2552                            .dwattr $C$DW$T$45, DW_AT_byte_size(0x14)
    2553                    $C$DW$229       .dwtag  DW_TAG_member
    2554                            .dwattr $C$DW$229, DW_AT_type(*$C$DW$T$34)
    2555                            .dwattr $C$DW$229, DW_AT_name("psI2CInst")
TI ARM Assembler PC v15.12.1 Thu Nov 03 13:01:19 2016

Tools Copyright (c) 1996-2015 Texas Instruments Incorporated
MPU9150AccelerometerManager_Task.asm                                 PAGE   49

    2556                            .dwattr $C$DW$229, DW_AT_TI_symbol_name("psI2CInst")
    2557                            .dwattr $C$DW$229, DW_AT_data_member_location[DW_OP_plus_uconst 0x0]
    2558                            .dwattr $C$DW$229, DW_AT_accessibility(DW_ACCESS_public)
    2559                            .dwattr $C$DW$229, DW_AT_decl_file("C:/TI_CodeComposer/TivaWare/sensorlib/i2cm_drv.h")
    2560                            .dwattr $C$DW$229, DW_AT_decl_line(0x14c)
    2561                            .dwattr $C$DW$229, DW_AT_decl_column(0x14)
    2562                    
    2563                    $C$DW$230       .dwtag  DW_TAG_member
    2564                            .dwattr $C$DW$230, DW_AT_type(*$C$DW$T$23)
    2565                            .dwattr $C$DW$230, DW_AT_name("pui8Data")
    2566                            .dwattr $C$DW$230, DW_AT_TI_symbol_name("pui8Data")
    2567                            .dwattr $C$DW$230, DW_AT_data_member_location[DW_OP_plus_uconst 0x4]
    2568                            .dwattr $C$DW$230, DW_AT_accessibility(DW_ACCESS_public)
    2569                            .dwattr $C$DW$230, DW_AT_decl_file("C:/TI_CodeComposer/TivaWare/sensorlib/i2cm_drv.h")
    2570                            .dwattr $C$DW$230, DW_AT_decl_line(0x151)
    2571                            .dwattr $C$DW$230, DW_AT_decl_column(0x0e)
    2572                    
    2573                    $C$DW$231       .dwtag  DW_TAG_member
    2574                            .dwattr $C$DW$231, DW_AT_type(*$C$DW$T$22)
    2575                            .dwattr $C$DW$231, DW_AT_name("ui16Count")
    2576                            .dwattr $C$DW$231, DW_AT_TI_symbol_name("ui16Count")
    2577                            .dwattr $C$DW$231, DW_AT_data_member_location[DW_OP_plus_uconst 0x8]
    2578                            .dwattr $C$DW$231, DW_AT_accessibility(DW_ACCESS_public)
    2579                            .dwattr $C$DW$231, DW_AT_decl_file("C:/TI_CodeComposer/TivaWare/sensorlib/i2cm_drv.h")
    2580                            .dwattr $C$DW$231, DW_AT_decl_line(0x156)
    2581                            .dwattr $C$DW$231, DW_AT_decl_column(0x0e)
    2582                    
    2583                    $C$DW$232       .dwtag  DW_TAG_member
    2584                            .dwattr $C$DW$232, DW_AT_type(*$C$DW$T$28)
    2585                            .dwattr $C$DW$232, DW_AT_name("pfnCallback")
    2586                            .dwattr $C$DW$232, DW_AT_TI_symbol_name("pfnCallback")
    2587                            .dwattr $C$DW$232, DW_AT_data_member_location[DW_OP_plus_uconst 0xc]
    2588                            .dwattr $C$DW$232, DW_AT_accessibility(DW_ACCESS_public)
    2589                            .dwattr $C$DW$232, DW_AT_decl_file("C:/TI_CodeComposer/TivaWare/sensorlib/i2cm_drv.h")
    2590                            .dwattr $C$DW$232, DW_AT_decl_line(0x15b)
    2591                            .dwattr $C$DW$232, DW_AT_decl_column(0x16)
    2592                    
    2593                    $C$DW$233       .dwtag  DW_TAG_member
    2594                            .dwattr $C$DW$233, DW_AT_type(*$C$DW$T$3)
    2595                            .dwattr $C$DW$233, DW_AT_name("pvCallbackData")
    2596                            .dwattr $C$DW$233, DW_AT_TI_symbol_name("pvCallbackData")
    2597                            .dwattr $C$DW$233, DW_AT_data_member_location[DW_OP_plus_uconst 0x10]
    2598                            .dwattr $C$DW$233, DW_AT_accessibility(DW_ACCESS_public)
    2599                            .dwattr $C$DW$233, DW_AT_decl_file("C:/TI_CodeComposer/TivaWare/sensorlib/i2cm_drv.h")
    2600                            .dwattr $C$DW$233, DW_AT_decl_line(0x160)
    2601                            .dwattr $C$DW$233, DW_AT_decl_column(0x0b)
    2602                    
    2603                            .dwattr $C$DW$T$45, DW_AT_decl_file("C:/TI_CodeComposer/TivaWare/sensorlib/i2cm_drv.h")
    2604                            .dwattr $C$DW$T$45, DW_AT_decl_line(0x147)
    2605                            .dwattr $C$DW$T$45, DW_AT_decl_column(0x01)
    2606                            .dwendtag $C$DW$T$45
    2607                    
    2608                    $C$DW$T$98      .dwtag  DW_TAG_typedef
    2609                            .dwattr $C$DW$T$98, DW_AT_name("tI2CMRead16BE")
    2610                            .dwattr $C$DW$T$98, DW_AT_type(*$C$DW$T$45)
TI ARM Assembler PC v15.12.1 Thu Nov 03 13:01:19 2016

Tools Copyright (c) 1996-2015 Texas Instruments Incorporated
MPU9150AccelerometerManager_Task.asm                                 PAGE   50

    2611                            .dwattr $C$DW$T$98, DW_AT_language(DW_LANG_C)
    2612                            .dwattr $C$DW$T$98, DW_AT_decl_file("C:/TI_CodeComposer/TivaWare/sensorlib/i2cm_drv.h")
    2613                            .dwattr $C$DW$T$98, DW_AT_decl_line(0x162)
    2614                            .dwattr $C$DW$T$98, DW_AT_decl_column(0x01)
    2615                    
    2616                    
    2617                    $C$DW$T$46      .dwtag  DW_TAG_structure_type
    2618                            .dwattr $C$DW$T$46, DW_AT_byte_size(0x14)
    2619                    $C$DW$234       .dwtag  DW_TAG_member
    2620                            .dwattr $C$DW$234, DW_AT_type(*$C$DW$T$34)
    2621                            .dwattr $C$DW$234, DW_AT_name("psI2CInst")
    2622                            .dwattr $C$DW$234, DW_AT_TI_symbol_name("psI2CInst")
    2623                            .dwattr $C$DW$234, DW_AT_data_member_location[DW_OP_plus_uconst 0x0]
    2624                            .dwattr $C$DW$234, DW_AT_accessibility(DW_ACCESS_public)
    2625                            .dwattr $C$DW$234, DW_AT_decl_file("C:/TI_CodeComposer/TivaWare/sensorlib/i2cm_drv.h")
    2626                            .dwattr $C$DW$234, DW_AT_decl_line(0x170)
    2627                            .dwattr $C$DW$234, DW_AT_decl_column(0x14)
    2628                    
    2629                    $C$DW$235       .dwtag  DW_TAG_member
    2630                            .dwattr $C$DW$235, DW_AT_type(*$C$DW$T$37)
    2631                            .dwattr $C$DW$235, DW_AT_name("pui8Buffer")
    2632                            .dwattr $C$DW$235, DW_AT_TI_symbol_name("pui8Buffer")
    2633                            .dwattr $C$DW$235, DW_AT_data_member_location[DW_OP_plus_uconst 0x4]
    2634                            .dwattr $C$DW$235, DW_AT_accessibility(DW_ACCESS_public)
    2635                            .dwattr $C$DW$235, DW_AT_decl_file("C:/TI_CodeComposer/TivaWare/sensorlib/i2cm_drv.h")
    2636                            .dwattr $C$DW$235, DW_AT_decl_line(0x175)
    2637                            .dwattr $C$DW$235, DW_AT_decl_column(0x0d)
    2638                    
    2639                    $C$DW$236       .dwtag  DW_TAG_member
    2640                            .dwattr $C$DW$236, DW_AT_type(*$C$DW$T$22)
    2641                            .dwattr $C$DW$236, DW_AT_name("ui16Count")
    2642                            .dwattr $C$DW$236, DW_AT_TI_symbol_name("ui16Count")
    2643                            .dwattr $C$DW$236, DW_AT_data_member_location[DW_OP_plus_uconst 0x6]
    2644                            .dwattr $C$DW$236, DW_AT_accessibility(DW_ACCESS_public)
    2645                            .dwattr $C$DW$236, DW_AT_decl_file("C:/TI_CodeComposer/TivaWare/sensorlib/i2cm_drv.h")
    2646                            .dwattr $C$DW$236, DW_AT_decl_line(0x17a)
    2647                            .dwattr $C$DW$236, DW_AT_decl_column(0x0e)
    2648                    
    2649                    $C$DW$237       .dwtag  DW_TAG_member
    2650                            .dwattr $C$DW$237, DW_AT_type(*$C$DW$T$21)
    2651                            .dwattr $C$DW$237, DW_AT_name("pui8Data")
    2652                            .dwattr $C$DW$237, DW_AT_TI_symbol_name("pui8Data")
    2653                            .dwattr $C$DW$237, DW_AT_data_member_location[DW_OP_plus_uconst 0x8]
    2654                            .dwattr $C$DW$237, DW_AT_accessibility(DW_ACCESS_public)
    2655                            .dwattr $C$DW$237, DW_AT_decl_file("C:/TI_CodeComposer/TivaWare/sensorlib/i2cm_drv.h")
    2656                            .dwattr $C$DW$237, DW_AT_decl_line(0x17f)
    2657                            .dwattr $C$DW$237, DW_AT_decl_column(0x14)
    2658                    
    2659                    $C$DW$238       .dwtag  DW_TAG_member
    2660                            .dwattr $C$DW$238, DW_AT_type(*$C$DW$T$28)
    2661                            .dwattr $C$DW$238, DW_AT_name("pfnCallback")
    2662                            .dwattr $C$DW$238, DW_AT_TI_symbol_name("pfnCallback")
    2663                            .dwattr $C$DW$238, DW_AT_data_member_location[DW_OP_plus_uconst 0xc]
    2664                            .dwattr $C$DW$238, DW_AT_accessibility(DW_ACCESS_public)
    2665                            .dwattr $C$DW$238, DW_AT_decl_file("C:/TI_CodeComposer/TivaWare/sensorlib/i2cm_drv.h")
TI ARM Assembler PC v15.12.1 Thu Nov 03 13:01:19 2016

Tools Copyright (c) 1996-2015 Texas Instruments Incorporated
MPU9150AccelerometerManager_Task.asm                                 PAGE   51

    2666                            .dwattr $C$DW$238, DW_AT_decl_line(0x184)
    2667                            .dwattr $C$DW$238, DW_AT_decl_column(0x16)
    2668                    
    2669                    $C$DW$239       .dwtag  DW_TAG_member
    2670                            .dwattr $C$DW$239, DW_AT_type(*$C$DW$T$3)
    2671                            .dwattr $C$DW$239, DW_AT_name("pvCallbackData")
    2672                            .dwattr $C$DW$239, DW_AT_TI_symbol_name("pvCallbackData")
    2673                            .dwattr $C$DW$239, DW_AT_data_member_location[DW_OP_plus_uconst 0x10]
    2674                            .dwattr $C$DW$239, DW_AT_accessibility(DW_ACCESS_public)
    2675                            .dwattr $C$DW$239, DW_AT_decl_file("C:/TI_CodeComposer/TivaWare/sensorlib/i2cm_drv.h")
    2676                            .dwattr $C$DW$239, DW_AT_decl_line(0x189)
    2677                            .dwattr $C$DW$239, DW_AT_decl_column(0x0b)
    2678                    
    2679                            .dwattr $C$DW$T$46, DW_AT_decl_file("C:/TI_CodeComposer/TivaWare/sensorlib/i2cm_drv.h")
    2680                            .dwattr $C$DW$T$46, DW_AT_decl_line(0x16b)
    2681                            .dwattr $C$DW$T$46, DW_AT_decl_column(0x01)
    2682                            .dwendtag $C$DW$T$46
    2683                    
    2684                    $C$DW$T$99      .dwtag  DW_TAG_typedef
    2685                            .dwattr $C$DW$T$99, DW_AT_name("tI2CMWrite16BE")
    2686                            .dwattr $C$DW$T$99, DW_AT_type(*$C$DW$T$46)
    2687                            .dwattr $C$DW$T$99, DW_AT_language(DW_LANG_C)
    2688                            .dwattr $C$DW$T$99, DW_AT_decl_file("C:/TI_CodeComposer/TivaWare/sensorlib/i2cm_drv.h")
    2689                            .dwattr $C$DW$T$99, DW_AT_decl_line(0x18b)
    2690                            .dwattr $C$DW$T$99, DW_AT_decl_column(0x01)
    2691                    
    2692                    
    2693                    $C$DW$T$49      .dwtag  DW_TAG_structure_type
    2694                            .dwattr $C$DW$T$49, DW_AT_byte_size(0x58)
    2695                    $C$DW$240       .dwtag  DW_TAG_member
    2696                            .dwattr $C$DW$240, DW_AT_type(*$C$DW$T$48)
    2697                            .dwattr $C$DW$240, DW_AT_name("ppfDCM")
    2698                            .dwattr $C$DW$240, DW_AT_TI_symbol_name("ppfDCM")
    2699                            .dwattr $C$DW$240, DW_AT_data_member_location[DW_OP_plus_uconst 0x0]
    2700                            .dwattr $C$DW$240, DW_AT_accessibility(DW_ACCESS_public)
    2701                            .dwattr $C$DW$240, DW_AT_decl_file("C:/TI_CodeComposer/TivaWare/sensorlib/comp_dcm.h")
    2702                            .dwattr $C$DW$240, DW_AT_decl_line(0x33)
    2703                            .dwattr $C$DW$240, DW_AT_decl_column(0x0b)
    2704                    
    2705                    $C$DW$241       .dwtag  DW_TAG_member
    2706                            .dwattr $C$DW$241, DW_AT_type(*$C$DW$T$16)
    2707                            .dwattr $C$DW$241, DW_AT_name("fDeltaT")
    2708                            .dwattr $C$DW$241, DW_AT_TI_symbol_name("fDeltaT")
    2709                            .dwattr $C$DW$241, DW_AT_data_member_location[DW_OP_plus_uconst 0x24]
    2710                            .dwattr $C$DW$241, DW_AT_accessibility(DW_ACCESS_public)
    2711                            .dwattr $C$DW$241, DW_AT_decl_file("C:/TI_CodeComposer/TivaWare/sensorlib/comp_dcm.h")
    2712                            .dwattr $C$DW$241, DW_AT_decl_line(0x38)
    2713                            .dwattr $C$DW$241, DW_AT_decl_column(0x0b)
    2714                    
    2715                    $C$DW$242       .dwtag  DW_TAG_member
    2716                            .dwattr $C$DW$242, DW_AT_type(*$C$DW$T$16)
    2717                            .dwattr $C$DW$242, DW_AT_name("fScaleA")
    2718                            .dwattr $C$DW$242, DW_AT_TI_symbol_name("fScaleA")
    2719                            .dwattr $C$DW$242, DW_AT_data_member_location[DW_OP_plus_uconst 0x28]
    2720                            .dwattr $C$DW$242, DW_AT_accessibility(DW_ACCESS_public)
TI ARM Assembler PC v15.12.1 Thu Nov 03 13:01:19 2016

Tools Copyright (c) 1996-2015 Texas Instruments Incorporated
MPU9150AccelerometerManager_Task.asm                                 PAGE   52

    2721                            .dwattr $C$DW$242, DW_AT_decl_file("C:/TI_CodeComposer/TivaWare/sensorlib/comp_dcm.h")
    2722                            .dwattr $C$DW$242, DW_AT_decl_line(0x3e)
    2723                            .dwattr $C$DW$242, DW_AT_decl_column(0x0b)
    2724                    
    2725                    $C$DW$243       .dwtag  DW_TAG_member
    2726                            .dwattr $C$DW$243, DW_AT_type(*$C$DW$T$16)
    2727                            .dwattr $C$DW$243, DW_AT_name("fScaleG")
    2728                            .dwattr $C$DW$243, DW_AT_TI_symbol_name("fScaleG")
    2729                            .dwattr $C$DW$243, DW_AT_data_member_location[DW_OP_plus_uconst 0x2c]
    2730                            .dwattr $C$DW$243, DW_AT_accessibility(DW_ACCESS_public)
    2731                            .dwattr $C$DW$243, DW_AT_decl_file("C:/TI_CodeComposer/TivaWare/sensorlib/comp_dcm.h")
    2732                            .dwattr $C$DW$243, DW_AT_decl_line(0x43)
    2733                            .dwattr $C$DW$243, DW_AT_decl_column(0x0b)
    2734                    
    2735                    $C$DW$244       .dwtag  DW_TAG_member
    2736                            .dwattr $C$DW$244, DW_AT_type(*$C$DW$T$16)
    2737                            .dwattr $C$DW$244, DW_AT_name("fScaleM")
    2738                            .dwattr $C$DW$244, DW_AT_TI_symbol_name("fScaleM")
    2739                            .dwattr $C$DW$244, DW_AT_data_member_location[DW_OP_plus_uconst 0x30]
    2740                            .dwattr $C$DW$244, DW_AT_accessibility(DW_ACCESS_public)
    2741                            .dwattr $C$DW$244, DW_AT_decl_file("C:/TI_CodeComposer/TivaWare/sensorlib/comp_dcm.h")
    2742                            .dwattr $C$DW$244, DW_AT_decl_line(0x48)
    2743                            .dwattr $C$DW$244, DW_AT_decl_column(0x0b)
    2744                    
    2745                    $C$DW$245       .dwtag  DW_TAG_member
    2746                            .dwattr $C$DW$245, DW_AT_type(*$C$DW$T$47)
    2747                            .dwattr $C$DW$245, DW_AT_name("pfAccel")
    2748                            .dwattr $C$DW$245, DW_AT_TI_symbol_name("pfAccel")
    2749                            .dwattr $C$DW$245, DW_AT_data_member_location[DW_OP_plus_uconst 0x34]
    2750                            .dwattr $C$DW$245, DW_AT_accessibility(DW_ACCESS_public)
    2751                            .dwattr $C$DW$245, DW_AT_decl_file("C:/TI_CodeComposer/TivaWare/sensorlib/comp_dcm.h")
    2752                            .dwattr $C$DW$245, DW_AT_decl_line(0x4d)
    2753                            .dwattr $C$DW$245, DW_AT_decl_column(0x0b)
    2754                    
    2755                    $C$DW$246       .dwtag  DW_TAG_member
    2756                            .dwattr $C$DW$246, DW_AT_type(*$C$DW$T$47)
    2757                            .dwattr $C$DW$246, DW_AT_name("pfGyro")
    2758                            .dwattr $C$DW$246, DW_AT_TI_symbol_name("pfGyro")
    2759                            .dwattr $C$DW$246, DW_AT_data_member_location[DW_OP_plus_uconst 0x40]
    2760                            .dwattr $C$DW$246, DW_AT_accessibility(DW_ACCESS_public)
    2761                            .dwattr $C$DW$246, DW_AT_decl_file("C:/TI_CodeComposer/TivaWare/sensorlib/comp_dcm.h")
    2762                            .dwattr $C$DW$246, DW_AT_decl_line(0x52)
    2763                            .dwattr $C$DW$246, DW_AT_decl_column(0x0b)
    2764                    
    2765                    $C$DW$247       .dwtag  DW_TAG_member
    2766                            .dwattr $C$DW$247, DW_AT_type(*$C$DW$T$47)
    2767                            .dwattr $C$DW$247, DW_AT_name("pfMagneto")
    2768                            .dwattr $C$DW$247, DW_AT_TI_symbol_name("pfMagneto")
    2769                            .dwattr $C$DW$247, DW_AT_data_member_location[DW_OP_plus_uconst 0x4c]
    2770                            .dwattr $C$DW$247, DW_AT_accessibility(DW_ACCESS_public)
    2771                            .dwattr $C$DW$247, DW_AT_decl_file("C:/TI_CodeComposer/TivaWare/sensorlib/comp_dcm.h")
    2772                            .dwattr $C$DW$247, DW_AT_decl_line(0x57)
    2773                            .dwattr $C$DW$247, DW_AT_decl_column(0x0b)
    2774                    
    2775                            .dwattr $C$DW$T$49, DW_AT_decl_file("C:/TI_CodeComposer/TivaWare/sensorlib/comp_dcm.h")
TI ARM Assembler PC v15.12.1 Thu Nov 03 13:01:19 2016

Tools Copyright (c) 1996-2015 Texas Instruments Incorporated
MPU9150AccelerometerManager_Task.asm                                 PAGE   53

    2776                            .dwattr $C$DW$T$49, DW_AT_decl_line(0x2f)
    2777                            .dwattr $C$DW$T$49, DW_AT_decl_column(0x01)
    2778                            .dwendtag $C$DW$T$49
    2779                    
    2780                    $C$DW$T$100     .dwtag  DW_TAG_typedef
    2781                            .dwattr $C$DW$T$100, DW_AT_name("tCompDCM")
    2782                            .dwattr $C$DW$T$100, DW_AT_type(*$C$DW$T$49)
    2783                            .dwattr $C$DW$T$100, DW_AT_language(DW_LANG_C)
    2784                            .dwattr $C$DW$T$100, DW_AT_decl_file("C:/TI_CodeComposer/TivaWare/sensorlib/comp_dcm.h")
    2785                            .dwattr $C$DW$T$100, DW_AT_decl_line(0x59)
    2786                            .dwattr $C$DW$T$100, DW_AT_decl_column(0x01)
    2787                    
    2788                    
    2789                    $C$DW$T$51      .dwtag  DW_TAG_structure_type
    2790                            .dwattr $C$DW$T$51, DW_AT_byte_size(0x18)
    2791                    $C$DW$248       .dwtag  DW_TAG_member
    2792                            .dwattr $C$DW$248, DW_AT_type(*$C$DW$T$10)
    2793                            .dwattr $C$DW$248, DW_AT_name("fd")
    2794                            .dwattr $C$DW$248, DW_AT_TI_symbol_name("fd")
    2795                            .dwattr $C$DW$248, DW_AT_data_member_location[DW_OP_plus_uconst 0x0]
    2796                            .dwattr $C$DW$248, DW_AT_accessibility(DW_ACCESS_public)
    2797                            .dwattr $C$DW$248, DW_AT_decl_file("C:/TI_CodeComposer/ccsv6/tools/compiler/ti-cgt-arm_15.12.1
    2798                            .dwattr $C$DW$248, DW_AT_decl_line(0x5c)
    2799                            .dwattr $C$DW$248, DW_AT_decl_column(0x0b)
    2800                    
    2801                    $C$DW$249       .dwtag  DW_TAG_member
    2802                            .dwattr $C$DW$249, DW_AT_type(*$C$DW$T$50)
    2803                            .dwattr $C$DW$249, DW_AT_name("buf")
    2804                            .dwattr $C$DW$249, DW_AT_TI_symbol_name("buf")
    2805                            .dwattr $C$DW$249, DW_AT_data_member_location[DW_OP_plus_uconst 0x4]
    2806                            .dwattr $C$DW$249, DW_AT_accessibility(DW_ACCESS_public)
    2807                            .dwattr $C$DW$249, DW_AT_decl_file("C:/TI_CodeComposer/ccsv6/tools/compiler/ti-cgt-arm_15.12.1
    2808                            .dwattr $C$DW$249, DW_AT_decl_line(0x5d)
    2809                            .dwattr $C$DW$249, DW_AT_decl_column(0x16)
    2810                    
    2811                    $C$DW$250       .dwtag  DW_TAG_member
    2812                            .dwattr $C$DW$250, DW_AT_type(*$C$DW$T$50)
    2813                            .dwattr $C$DW$250, DW_AT_name("pos")
    2814                            .dwattr $C$DW$250, DW_AT_TI_symbol_name("pos")
    2815                            .dwattr $C$DW$250, DW_AT_data_member_location[DW_OP_plus_uconst 0x8]
    2816                            .dwattr $C$DW$250, DW_AT_accessibility(DW_ACCESS_public)
    2817                            .dwattr $C$DW$250, DW_AT_decl_file("C:/TI_CodeComposer/ccsv6/tools/compiler/ti-cgt-arm_15.12.1
    2818                            .dwattr $C$DW$250, DW_AT_decl_line(0x5e)
    2819                            .dwattr $C$DW$250, DW_AT_decl_column(0x16)
    2820                    
    2821                    $C$DW$251       .dwtag  DW_TAG_member
    2822                            .dwattr $C$DW$251, DW_AT_type(*$C$DW$T$50)
    2823                            .dwattr $C$DW$251, DW_AT_name("bufend")
    2824                            .dwattr $C$DW$251, DW_AT_TI_symbol_name("bufend")
    2825                            .dwattr $C$DW$251, DW_AT_data_member_location[DW_OP_plus_uconst 0xc]
    2826                            .dwattr $C$DW$251, DW_AT_accessibility(DW_ACCESS_public)
    2827                            .dwattr $C$DW$251, DW_AT_decl_file("C:/TI_CodeComposer/ccsv6/tools/compiler/ti-cgt-arm_15.12.1
    2828                            .dwattr $C$DW$251, DW_AT_decl_line(0x5f)
    2829                            .dwattr $C$DW$251, DW_AT_decl_column(0x16)
    2830                    
TI ARM Assembler PC v15.12.1 Thu Nov 03 13:01:19 2016

Tools Copyright (c) 1996-2015 Texas Instruments Incorporated
MPU9150AccelerometerManager_Task.asm                                 PAGE   54

    2831                    $C$DW$252       .dwtag  DW_TAG_member
    2832                            .dwattr $C$DW$252, DW_AT_type(*$C$DW$T$50)
    2833                            .dwattr $C$DW$252, DW_AT_name("buff_stop")
    2834                            .dwattr $C$DW$252, DW_AT_TI_symbol_name("buff_stop")
    2835                            .dwattr $C$DW$252, DW_AT_data_member_location[DW_OP_plus_uconst 0x10]
    2836                            .dwattr $C$DW$252, DW_AT_accessibility(DW_ACCESS_public)
    2837                            .dwattr $C$DW$252, DW_AT_decl_file("C:/TI_CodeComposer/ccsv6/tools/compiler/ti-cgt-arm_15.12.1
    2838                            .dwattr $C$DW$252, DW_AT_decl_line(0x60)
    2839                            .dwattr $C$DW$252, DW_AT_decl_column(0x16)
    2840                    
    2841                    $C$DW$253       .dwtag  DW_TAG_member
    2842                            .dwattr $C$DW$253, DW_AT_type(*$C$DW$T$11)
    2843                            .dwattr $C$DW$253, DW_AT_name("flags")
    2844                            .dwattr $C$DW$253, DW_AT_TI_symbol_name("flags")
    2845                            .dwattr $C$DW$253, DW_AT_data_member_location[DW_OP_plus_uconst 0x14]
    2846                            .dwattr $C$DW$253, DW_AT_accessibility(DW_ACCESS_public)
    2847                            .dwattr $C$DW$253, DW_AT_decl_file("C:/TI_CodeComposer/ccsv6/tools/compiler/ti-cgt-arm_15.12.1
    2848                            .dwattr $C$DW$253, DW_AT_decl_line(0x61)
    2849                            .dwattr $C$DW$253, DW_AT_decl_column(0x16)
    2850                    
    2851                            .dwattr $C$DW$T$51, DW_AT_decl_file("C:/TI_CodeComposer/ccsv6/tools/compiler/ti-cgt-arm_15.12.
    2852                            .dwattr $C$DW$T$51, DW_AT_decl_line(0x5b)
    2853                            .dwattr $C$DW$T$51, DW_AT_decl_column(0x10)
    2854                            .dwendtag $C$DW$T$51
    2855                    
    2856                    $C$DW$T$101     .dwtag  DW_TAG_typedef
    2857                            .dwattr $C$DW$T$101, DW_AT_name("FILE")
    2858                            .dwattr $C$DW$T$101, DW_AT_type(*$C$DW$T$51)
    2859                            .dwattr $C$DW$T$101, DW_AT_language(DW_LANG_C)
    2860                            .dwattr $C$DW$T$101, DW_AT_decl_file("C:/TI_CodeComposer/ccsv6/tools/compiler/ti-cgt-arm_15.12
    2861                            .dwattr $C$DW$T$101, DW_AT_decl_line(0x62)
    2862                            .dwattr $C$DW$T$101, DW_AT_decl_column(0x03)
    2863                    
    2864                    
    2865                    $C$DW$T$54      .dwtag  DW_TAG_union_type
    2866                            .dwattr $C$DW$T$54, DW_AT_byte_size(0x14)
    2867                    $C$DW$254       .dwtag  DW_TAG_member
    2868                            .dwattr $C$DW$254, DW_AT_type(*$C$DW$T$37)
    2869                            .dwattr $C$DW$254, DW_AT_name("pui8Buffer")
    2870                            .dwattr $C$DW$254, DW_AT_TI_symbol_name("pui8Buffer")
    2871                            .dwattr $C$DW$254, DW_AT_data_member_location[DW_OP_plus_uconst 0x0]
    2872                            .dwattr $C$DW$254, DW_AT_accessibility(DW_ACCESS_public)
    2873                            .dwattr $C$DW$254, DW_AT_decl_file("C:/TI_CodeComposer/TivaWare/sensorlib/ak8975.h")
    2874                            .dwattr $C$DW$254, DW_AT_decl_line(0x58)
    2875                            .dwattr $C$DW$254, DW_AT_decl_column(0x11)
    2876                    
    2877                    $C$DW$255       .dwtag  DW_TAG_member
    2878                            .dwattr $C$DW$255, DW_AT_type(*$C$DW$T$52)
    2879                            .dwattr $C$DW$255, DW_AT_name("sWriteState")
    2880                            .dwattr $C$DW$255, DW_AT_TI_symbol_name("sWriteState")
    2881                            .dwattr $C$DW$255, DW_AT_data_member_location[DW_OP_plus_uconst 0x0]
    2882                            .dwattr $C$DW$255, DW_AT_accessibility(DW_ACCESS_public)
    2883                            .dwattr $C$DW$255, DW_AT_decl_file("C:/TI_CodeComposer/TivaWare/sensorlib/ak8975.h")
    2884                            .dwattr $C$DW$255, DW_AT_decl_line(0x5d)
    2885                            .dwattr $C$DW$255, DW_AT_decl_column(0x15)
TI ARM Assembler PC v15.12.1 Thu Nov 03 13:01:19 2016

Tools Copyright (c) 1996-2015 Texas Instruments Incorporated
MPU9150AccelerometerManager_Task.asm                                 PAGE   55

    2886                    
    2887                    $C$DW$256       .dwtag  DW_TAG_member
    2888                            .dwattr $C$DW$256, DW_AT_type(*$C$DW$T$53)
    2889                            .dwattr $C$DW$256, DW_AT_name("sReadModifyWriteState")
    2890                            .dwattr $C$DW$256, DW_AT_TI_symbol_name("sReadModifyWriteState")
    2891                            .dwattr $C$DW$256, DW_AT_data_member_location[DW_OP_plus_uconst 0x0]
    2892                            .dwattr $C$DW$256, DW_AT_accessibility(DW_ACCESS_public)
    2893                            .dwattr $C$DW$256, DW_AT_decl_file("C:/TI_CodeComposer/TivaWare/sensorlib/ak8975.h")
    2894                            .dwattr $C$DW$256, DW_AT_decl_line(0x62)
    2895                            .dwattr $C$DW$256, DW_AT_decl_column(0x1f)
    2896                    
    2897                            .dwattr $C$DW$T$54, DW_AT_decl_file("C:/TI_CodeComposer/TivaWare/sensorlib/ak8975.h")
    2898                            .dwattr $C$DW$T$54, DW_AT_decl_line(0x54)
    2899                            .dwattr $C$DW$T$54, DW_AT_decl_column(0x05)
    2900                            .dwendtag $C$DW$T$54
    2901                    
    2902                    
    2903                    $C$DW$T$56      .dwtag  DW_TAG_union_type
    2904                            .dwattr $C$DW$T$56, DW_AT_byte_size(0x14)
    2905                    $C$DW$257       .dwtag  DW_TAG_member
    2906                            .dwattr $C$DW$257, DW_AT_type(*$C$DW$T$55)
    2907                            .dwattr $C$DW$257, DW_AT_name("pui8Buffer")
    2908                            .dwattr $C$DW$257, DW_AT_TI_symbol_name("pui8Buffer")
    2909                            .dwattr $C$DW$257, DW_AT_data_member_location[DW_OP_plus_uconst 0x0]
    2910                            .dwattr $C$DW$257, DW_AT_accessibility(DW_ACCESS_public)
    2911                            .dwattr $C$DW$257, DW_AT_decl_file("C:/TI_CodeComposer/TivaWare/sensorlib/mpu9150.h")
    2912                            .dwattr $C$DW$257, DW_AT_decl_line(0x74)
    2913                            .dwattr $C$DW$257, DW_AT_decl_column(0x11)
    2914                    
    2915                    $C$DW$258       .dwtag  DW_TAG_member
    2916                            .dwattr $C$DW$258, DW_AT_type(*$C$DW$T$52)
    2917                            .dwattr $C$DW$258, DW_AT_name("sWriteState")
    2918                            .dwattr $C$DW$258, DW_AT_TI_symbol_name("sWriteState")
    2919                            .dwattr $C$DW$258, DW_AT_data_member_location[DW_OP_plus_uconst 0x0]
    2920                            .dwattr $C$DW$258, DW_AT_accessibility(DW_ACCESS_public)
    2921                            .dwattr $C$DW$258, DW_AT_decl_file("C:/TI_CodeComposer/TivaWare/sensorlib/mpu9150.h")
    2922                            .dwattr $C$DW$258, DW_AT_decl_line(0x79)
    2923                            .dwattr $C$DW$258, DW_AT_decl_column(0x15)
    2924                    
    2925                    $C$DW$259       .dwtag  DW_TAG_member
    2926                            .dwattr $C$DW$259, DW_AT_type(*$C$DW$T$53)
    2927                            .dwattr $C$DW$259, DW_AT_name("sReadModifyWriteState")
    2928                            .dwattr $C$DW$259, DW_AT_TI_symbol_name("sReadModifyWriteState")
    2929                            .dwattr $C$DW$259, DW_AT_data_member_location[DW_OP_plus_uconst 0x0]
    2930                            .dwattr $C$DW$259, DW_AT_accessibility(DW_ACCESS_public)
    2931                            .dwattr $C$DW$259, DW_AT_decl_file("C:/TI_CodeComposer/TivaWare/sensorlib/mpu9150.h")
    2932                            .dwattr $C$DW$259, DW_AT_decl_line(0x7e)
    2933                            .dwattr $C$DW$259, DW_AT_decl_column(0x1f)
    2934                    
    2935                            .dwattr $C$DW$T$56, DW_AT_decl_file("C:/TI_CodeComposer/TivaWare/sensorlib/mpu9150.h")
    2936                            .dwattr $C$DW$T$56, DW_AT_decl_line(0x70)
    2937                            .dwattr $C$DW$T$56, DW_AT_decl_column(0x05)
    2938                            .dwendtag $C$DW$T$56
    2939                    
    2940                    
TI ARM Assembler PC v15.12.1 Thu Nov 03 13:01:19 2016

Tools Copyright (c) 1996-2015 Texas Instruments Incorporated
MPU9150AccelerometerManager_Task.asm                                 PAGE   56

    2941                    $C$DW$T$58      .dwtag  DW_TAG_structure_type
    2942                            .dwattr $C$DW$T$58, DW_AT_name("HeapRegion")
    2943                            .dwattr $C$DW$T$58, DW_AT_byte_size(0x08)
    2944                    $C$DW$260       .dwtag  DW_TAG_member
    2945                            .dwattr $C$DW$260, DW_AT_type(*$C$DW$T$23)
    2946                            .dwattr $C$DW$260, DW_AT_name("pucStartAddress")
    2947                            .dwattr $C$DW$260, DW_AT_TI_symbol_name("pucStartAddress")
    2948                            .dwattr $C$DW$260, DW_AT_data_member_location[DW_OP_plus_uconst 0x0]
    2949                            .dwattr $C$DW$260, DW_AT_accessibility(DW_ACCESS_public)
    2950                            .dwattr $C$DW$260, DW_AT_decl_file("C:\TI_ARM_Tiva_Projects\Source\include\portable.h")
    2951                            .dwattr $C$DW$260, DW_AT_decl_line(0x96)
    2952                            .dwattr $C$DW$260, DW_AT_decl_column(0x0b)
    2953                    
    2954                    $C$DW$261       .dwtag  DW_TAG_member
    2955                            .dwattr $C$DW$261, DW_AT_type(*$C$DW$T$57)
    2956                            .dwattr $C$DW$261, DW_AT_name("xSizeInBytes")
    2957                            .dwattr $C$DW$261, DW_AT_TI_symbol_name("xSizeInBytes")
    2958                            .dwattr $C$DW$261, DW_AT_data_member_location[DW_OP_plus_uconst 0x4]
    2959                            .dwattr $C$DW$261, DW_AT_accessibility(DW_ACCESS_public)
    2960                            .dwattr $C$DW$261, DW_AT_decl_file("C:\TI_ARM_Tiva_Projects\Source\include\portable.h")
    2961                            .dwattr $C$DW$261, DW_AT_decl_line(0x97)
    2962                            .dwattr $C$DW$261, DW_AT_decl_column(0x09)
    2963                    
    2964                            .dwattr $C$DW$T$58, DW_AT_decl_file("C:\TI_ARM_Tiva_Projects\Source\include\portable.h")
    2965                            .dwattr $C$DW$T$58, DW_AT_decl_line(0x94)
    2966                            .dwattr $C$DW$T$58, DW_AT_decl_column(0x10)
    2967                            .dwendtag $C$DW$T$58
    2968                    
    2969                    $C$DW$T$102     .dwtag  DW_TAG_typedef
    2970                            .dwattr $C$DW$T$102, DW_AT_name("HeapRegion_t")
    2971                            .dwattr $C$DW$T$102, DW_AT_type(*$C$DW$T$58)
    2972                            .dwattr $C$DW$T$102, DW_AT_language(DW_LANG_C)
    2973                            .dwattr $C$DW$T$102, DW_AT_decl_file("C:\TI_ARM_Tiva_Projects\Source\include\portable.h")
    2974                            .dwattr $C$DW$T$102, DW_AT_decl_line(0x98)
    2975                            .dwattr $C$DW$T$102, DW_AT_decl_column(0x03)
    2976                    
    2977                    
