TI ARM Assembler PC v15.12.1 Thu Oct 27 13:57:51 2016

Tools Copyright (c) 1996-2015 Texas Instruments Incorporated
Task_gyro.asm                                                        PAGE    1

       1                    ;******************************************************************************
       2                    ;* TI ARM C/C++ Codegen                                       PC v15.12.1.LTS *
       3                    ;* Date/Time created: Thu Oct 27 13:57:51 2016                                *
       4                    ;******************************************************************************
       5                            .compiler_opts --abi=eabi --arm_vmrs_si_workaround=off --code_state=16 --diag_wrap=off --disab
       6 00000000                   .thumb
       7                    
       8                    $C$DW$CU        .dwtag  DW_TAG_compile_unit
       9                            .dwattr $C$DW$CU, DW_AT_name("../Tasks/Task_gyro.c")
      10                            .dwattr $C$DW$CU, DW_AT_producer("TI TI ARM C/C++ Codegen PC v15.12.1.LTS Copyright (c) 1996-2
      11                            .dwattr $C$DW$CU, DW_AT_TI_version(0x01)
      12                            .dwattr $C$DW$CU, DW_AT_comp_dir("C:\TI_ARM_Tiva_Projects\Proj2_Magnetometer\Debug")
      13                    
      14                    $C$DW$1 .dwtag  DW_TAG_subprogram
      15                            .dwattr $C$DW$1, DW_AT_name("I2CMCommand")
      16                            .dwattr $C$DW$1, DW_AT_TI_symbol_name("I2CMCommand")
      17                            .dwattr $C$DW$1, DW_AT_type(*$C$DW$T$25)
      18                            .dwattr $C$DW$1, DW_AT_declaration
      19                            .dwattr $C$DW$1, DW_AT_external
      20                            .dwattr $C$DW$1, DW_AT_decl_file("C:/TI_CodeComposer/TivaWare/sensorlib/i2cm_drv.h")
      21                            .dwattr $C$DW$1, DW_AT_decl_line(0x196)
      22                            .dwattr $C$DW$1, DW_AT_decl_column(0x15)
      23                    $C$DW$2 .dwtag  DW_TAG_formal_parameter
      24                            .dwattr $C$DW$2, DW_AT_type(*$C$DW$T$34)
      25                    
      26                    $C$DW$3 .dwtag  DW_TAG_formal_parameter
      27                            .dwattr $C$DW$3, DW_AT_type(*$C$DW$T$25)
      28                    
      29                    $C$DW$4 .dwtag  DW_TAG_formal_parameter
      30                            .dwattr $C$DW$4, DW_AT_type(*$C$DW$T$21)
      31                    
      32                    $C$DW$5 .dwtag  DW_TAG_formal_parameter
      33                            .dwattr $C$DW$5, DW_AT_type(*$C$DW$T$144)
      34                    
      35                    $C$DW$6 .dwtag  DW_TAG_formal_parameter
      36                            .dwattr $C$DW$6, DW_AT_type(*$C$DW$T$144)
      37                    
      38                    $C$DW$7 .dwtag  DW_TAG_formal_parameter
      39                            .dwattr $C$DW$7, DW_AT_type(*$C$DW$T$23)
      40                    
      41                    $C$DW$8 .dwtag  DW_TAG_formal_parameter
      42                            .dwattr $C$DW$8, DW_AT_type(*$C$DW$T$144)
      43                    
      44                    $C$DW$9 .dwtag  DW_TAG_formal_parameter
      45                            .dwattr $C$DW$9, DW_AT_type(*$C$DW$T$144)
      46                    
      47                    $C$DW$10        .dwtag  DW_TAG_formal_parameter
      48                            .dwattr $C$DW$10, DW_AT_type(*$C$DW$T$28)
      49                    
      50                    $C$DW$11        .dwtag  DW_TAG_formal_parameter
      51                            .dwattr $C$DW$11, DW_AT_type(*$C$DW$T$3)
      52                    
      53                            .dwendtag $C$DW$1
      54                    
      55                    
TI ARM Assembler PC v15.12.1 Thu Oct 27 13:57:51 2016

Tools Copyright (c) 1996-2015 Texas Instruments Incorporated
Task_gyro.asm                                                        PAGE    2

      56                    $C$DW$12        .dwtag  DW_TAG_subprogram
      57                            .dwattr $C$DW$12, DW_AT_name("I2CMReadModifyWrite16LE")
      58                            .dwattr $C$DW$12, DW_AT_TI_symbol_name("I2CMReadModifyWrite16LE")
      59                            .dwattr $C$DW$12, DW_AT_type(*$C$DW$T$25)
      60                            .dwattr $C$DW$12, DW_AT_declaration
      61                            .dwattr $C$DW$12, DW_AT_external
      62                            .dwattr $C$DW$12, DW_AT_decl_file("C:/TI_CodeComposer/TivaWare/sensorlib/i2cm_drv.h")
      63                            .dwattr $C$DW$12, DW_AT_decl_line(0x1a9)
      64                            .dwattr $C$DW$12, DW_AT_decl_column(0x15)
      65                    $C$DW$13        .dwtag  DW_TAG_formal_parameter
      66                            .dwattr $C$DW$13, DW_AT_type(*$C$DW$T$92)
      67                    
      68                    $C$DW$14        .dwtag  DW_TAG_formal_parameter
      69                            .dwattr $C$DW$14, DW_AT_type(*$C$DW$T$34)
      70                    
      71                    $C$DW$15        .dwtag  DW_TAG_formal_parameter
      72                            .dwattr $C$DW$15, DW_AT_type(*$C$DW$T$25)
      73                    
      74                    $C$DW$16        .dwtag  DW_TAG_formal_parameter
      75                            .dwattr $C$DW$16, DW_AT_type(*$C$DW$T$25)
      76                    
      77                    $C$DW$17        .dwtag  DW_TAG_formal_parameter
      78                            .dwattr $C$DW$17, DW_AT_type(*$C$DW$T$144)
      79                    
      80                    $C$DW$18        .dwtag  DW_TAG_formal_parameter
      81                            .dwattr $C$DW$18, DW_AT_type(*$C$DW$T$144)
      82                    
      83                    $C$DW$19        .dwtag  DW_TAG_formal_parameter
      84                            .dwattr $C$DW$19, DW_AT_type(*$C$DW$T$28)
      85                    
      86                    $C$DW$20        .dwtag  DW_TAG_formal_parameter
      87                            .dwattr $C$DW$20, DW_AT_type(*$C$DW$T$3)
      88                    
      89                            .dwendtag $C$DW$12
      90                    
      91                    
      92                    $C$DW$21        .dwtag  DW_TAG_subprogram
      93                            .dwattr $C$DW$21, DW_AT_name("I2C7_Initialization")
      94                            .dwattr $C$DW$21, DW_AT_TI_symbol_name("I2C7_Initialization")
      95                            .dwattr $C$DW$21, DW_AT_type(*$C$DW$T$24)
      96                            .dwattr $C$DW$21, DW_AT_declaration
      97                            .dwattr $C$DW$21, DW_AT_external
      98                            .dwattr $C$DW$21, DW_AT_decl_file("C:/TI_ARM_Tiva_Projects/Proj2_Magnetometer/Tasks/Task_I2C7_
      99                            .dwattr $C$DW$21, DW_AT_decl_line(0x17)
     100                            .dwattr $C$DW$21, DW_AT_decl_column(0x11)
     101                            .dwendtag $C$DW$21
     102                    
     103                    
     104                    $C$DW$22        .dwtag  DW_TAG_subprogram
     105                            .dwattr $C$DW$22, DW_AT_name("MPU9150Init")
     106                            .dwattr $C$DW$22, DW_AT_TI_symbol_name("MPU9150Init")
     107                            .dwattr $C$DW$22, DW_AT_type(*$C$DW$T$25)
     108                            .dwattr $C$DW$22, DW_AT_declaration
     109                            .dwattr $C$DW$22, DW_AT_external
     110                            .dwattr $C$DW$22, DW_AT_decl_file("C:/TI_CodeComposer/TivaWare/sensorlib/mpu9150.h")
TI ARM Assembler PC v15.12.1 Thu Oct 27 13:57:51 2016

Tools Copyright (c) 1996-2015 Texas Instruments Incorporated
Task_gyro.asm                                                        PAGE    3

     111                            .dwattr $C$DW$22, DW_AT_decl_line(0x89)
     112                            .dwattr $C$DW$22, DW_AT_decl_column(0x15)
     113                    $C$DW$23        .dwtag  DW_TAG_formal_parameter
     114                            .dwattr $C$DW$23, DW_AT_type(*$C$DW$T$94)
     115                    
     116                    $C$DW$24        .dwtag  DW_TAG_formal_parameter
     117                            .dwattr $C$DW$24, DW_AT_type(*$C$DW$T$34)
     118                    
     119                    $C$DW$25        .dwtag  DW_TAG_formal_parameter
     120                            .dwattr $C$DW$25, DW_AT_type(*$C$DW$T$25)
     121                    
     122                    $C$DW$26        .dwtag  DW_TAG_formal_parameter
     123                            .dwattr $C$DW$26, DW_AT_type(*$C$DW$T$28)
     124                    
     125                    $C$DW$27        .dwtag  DW_TAG_formal_parameter
     126                            .dwattr $C$DW$27, DW_AT_type(*$C$DW$T$3)
     127                    
     128                            .dwendtag $C$DW$22
     129                    
     130                    
     131                    $C$DW$28        .dwtag  DW_TAG_subprogram
     132                            .dwattr $C$DW$28, DW_AT_name("MPU9150ReadModifyWrite")
     133                            .dwattr $C$DW$28, DW_AT_TI_symbol_name("MPU9150ReadModifyWrite")
     134                            .dwattr $C$DW$28, DW_AT_type(*$C$DW$T$25)
     135                            .dwattr $C$DW$28, DW_AT_declaration
     136                            .dwattr $C$DW$28, DW_AT_external
     137                            .dwattr $C$DW$28, DW_AT_decl_file("C:/TI_CodeComposer/TivaWare/sensorlib/mpu9150.h")
     138                            .dwattr $C$DW$28, DW_AT_decl_line(0x97)
     139                            .dwattr $C$DW$28, DW_AT_decl_column(0x15)
     140                    $C$DW$29        .dwtag  DW_TAG_formal_parameter
     141                            .dwattr $C$DW$29, DW_AT_type(*$C$DW$T$94)
     142                    
     143                    $C$DW$30        .dwtag  DW_TAG_formal_parameter
     144                            .dwattr $C$DW$30, DW_AT_type(*$C$DW$T$25)
     145                    
     146                    $C$DW$31        .dwtag  DW_TAG_formal_parameter
     147                            .dwattr $C$DW$31, DW_AT_type(*$C$DW$T$25)
     148                    
     149                    $C$DW$32        .dwtag  DW_TAG_formal_parameter
     150                            .dwattr $C$DW$32, DW_AT_type(*$C$DW$T$25)
     151                    
     152                    $C$DW$33        .dwtag  DW_TAG_formal_parameter
     153                            .dwattr $C$DW$33, DW_AT_type(*$C$DW$T$28)
     154                    
     155                    $C$DW$34        .dwtag  DW_TAG_formal_parameter
     156                            .dwattr $C$DW$34, DW_AT_type(*$C$DW$T$3)
     157                    
     158                            .dwendtag $C$DW$28
     159                    
     160                    
     161                    $C$DW$35        .dwtag  DW_TAG_subprogram
     162                            .dwattr $C$DW$35, DW_AT_name("MPU9150DataRead")
     163                            .dwattr $C$DW$35, DW_AT_TI_symbol_name("MPU9150DataRead")
     164                            .dwattr $C$DW$35, DW_AT_type(*$C$DW$T$25)
     165                            .dwattr $C$DW$35, DW_AT_declaration
TI ARM Assembler PC v15.12.1 Thu Oct 27 13:57:51 2016

Tools Copyright (c) 1996-2015 Texas Instruments Incorporated
Task_gyro.asm                                                        PAGE    4

     166                            .dwattr $C$DW$35, DW_AT_external
     167                            .dwattr $C$DW$35, DW_AT_decl_file("C:/TI_CodeComposer/TivaWare/sensorlib/mpu9150.h")
     168                            .dwattr $C$DW$35, DW_AT_decl_line(0x9d)
     169                            .dwattr $C$DW$35, DW_AT_decl_column(0x15)
     170                    $C$DW$36        .dwtag  DW_TAG_formal_parameter
     171                            .dwattr $C$DW$36, DW_AT_type(*$C$DW$T$94)
     172                    
     173                    $C$DW$37        .dwtag  DW_TAG_formal_parameter
     174                            .dwattr $C$DW$37, DW_AT_type(*$C$DW$T$28)
     175                    
     176                    $C$DW$38        .dwtag  DW_TAG_formal_parameter
     177                            .dwattr $C$DW$38, DW_AT_type(*$C$DW$T$3)
     178                    
     179                            .dwendtag $C$DW$35
     180                    
     181                    
     182                    $C$DW$39        .dwtag  DW_TAG_subprogram
     183                            .dwattr $C$DW$39, DW_AT_name("MPU9150DataGyroGetFloat")
     184                            .dwattr $C$DW$39, DW_AT_TI_symbol_name("MPU9150DataGyroGetFloat")
     185                            .dwattr $C$DW$39, DW_AT_declaration
     186                            .dwattr $C$DW$39, DW_AT_external
     187                            .dwattr $C$DW$39, DW_AT_decl_file("C:/TI_CodeComposer/TivaWare/sensorlib/mpu9150.h")
     188                            .dwattr $C$DW$39, DW_AT_decl_line(0xa9)
     189                            .dwattr $C$DW$39, DW_AT_decl_column(0x0d)
     190                    $C$DW$40        .dwtag  DW_TAG_formal_parameter
     191                            .dwattr $C$DW$40, DW_AT_type(*$C$DW$T$94)
     192                    
     193                    $C$DW$41        .dwtag  DW_TAG_formal_parameter
     194                            .dwattr $C$DW$41, DW_AT_type(*$C$DW$T$107)
     195                    
     196                    $C$DW$42        .dwtag  DW_TAG_formal_parameter
     197                            .dwattr $C$DW$42, DW_AT_type(*$C$DW$T$107)
     198                    
     199                    $C$DW$43        .dwtag  DW_TAG_formal_parameter
     200                            .dwattr $C$DW$43, DW_AT_type(*$C$DW$T$107)
     201                    
     202                            .dwendtag $C$DW$39
     203                    
     204                    
     205                    $C$DW$44        .dwtag  DW_TAG_subprogram
     206                            .dwattr $C$DW$44, DW_AT_name("UART_Initialization")
     207                            .dwattr $C$DW$44, DW_AT_TI_symbol_name("UART_Initialization")
     208                            .dwattr $C$DW$44, DW_AT_type(*$C$DW$T$24)
     209                            .dwattr $C$DW$44, DW_AT_declaration
     210                            .dwattr $C$DW$44, DW_AT_external
     211                            .dwattr $C$DW$44, DW_AT_decl_file("C:\TI_ARM_Tiva_Projects\Proj2_Magnetometer\Drivers/Processo
     212                            .dwattr $C$DW$44, DW_AT_decl_line(0x29)
     213                            .dwattr $C$DW$44, DW_AT_decl_column(0x11)
     214                            .dwendtag $C$DW$44
     215                    
     216                    
     217                    $C$DW$45        .dwtag  DW_TAG_subprogram
     218                            .dwattr $C$DW$45, DW_AT_name("vTaskDelay")
     219                            .dwattr $C$DW$45, DW_AT_TI_symbol_name("vTaskDelay")
     220                            .dwattr $C$DW$45, DW_AT_declaration
TI ARM Assembler PC v15.12.1 Thu Oct 27 13:57:51 2016

Tools Copyright (c) 1996-2015 Texas Instruments Incorporated
Task_gyro.asm                                                        PAGE    5

     221                            .dwattr $C$DW$45, DW_AT_external
     222                            .dwattr $C$DW$45, DW_AT_decl_file("C:/TI_ARM_Tiva_Projects/Source/include/task.h")
     223                            .dwattr $C$DW$45, DW_AT_decl_line(0x22b)
     224                            .dwattr $C$DW$45, DW_AT_decl_column(0x06)
     225                    $C$DW$46        .dwtag  DW_TAG_formal_parameter
     226                            .dwattr $C$DW$46, DW_AT_type(*$C$DW$T$110)
     227                    
     228                            .dwendtag $C$DW$45
     229                    
     230                    
     231                    $C$DW$47        .dwtag  DW_TAG_subprogram
     232                            .dwattr $C$DW$47, DW_AT_name("xQueueGenericSend")
     233                            .dwattr $C$DW$47, DW_AT_TI_symbol_name("xQueueGenericSend")
     234                            .dwattr $C$DW$47, DW_AT_type(*$C$DW$T$85)
     235                            .dwattr $C$DW$47, DW_AT_declaration
     236                            .dwattr $C$DW$47, DW_AT_external
     237                            .dwattr $C$DW$47, DW_AT_decl_file("C:/TI_ARM_Tiva_Projects/Source/include/queue.h")
     238                            .dwattr $C$DW$47, DW_AT_decl_line(0x250)
     239                            .dwattr $C$DW$47, DW_AT_decl_column(0x0c)
     240                    $C$DW$48        .dwtag  DW_TAG_formal_parameter
     241                            .dwattr $C$DW$48, DW_AT_type(*$C$DW$T$103)
     242                    
     243                    $C$DW$49        .dwtag  DW_TAG_formal_parameter
     244                            .dwattr $C$DW$49, DW_AT_type(*$C$DW$T$115)
     245                    
     246                    $C$DW$50        .dwtag  DW_TAG_formal_parameter
     247                            .dwattr $C$DW$50, DW_AT_type(*$C$DW$T$63)
     248                    
     249                    $C$DW$51        .dwtag  DW_TAG_formal_parameter
     250                            .dwattr $C$DW$51, DW_AT_type(*$C$DW$T$126)
     251                    
     252                            .dwendtag $C$DW$47
     253                    
     254                    $C$DW$52        .dwtag  DW_TAG_variable
     255                            .dwattr $C$DW$52, DW_AT_name("I2C7_Instance_Ref")
     256                            .dwattr $C$DW$52, DW_AT_TI_symbol_name("I2C7_Instance_Ref")
     257                            .dwattr $C$DW$52, DW_AT_type(*$C$DW$T$34)
     258                            .dwattr $C$DW$52, DW_AT_declaration
     259                            .dwattr $C$DW$52, DW_AT_external
     260                            .dwattr $C$DW$52, DW_AT_decl_file("C:/TI_ARM_Tiva_Projects/Proj2_Magnetometer/Tasks/Task_I2C7_
     261                            .dwattr $C$DW$52, DW_AT_decl_line(0x1b)
     262                            .dwattr $C$DW$52, DW_AT_decl_column(0x17)
     263                    
     264                    $C$DW$53        .dwtag  DW_TAG_variable
     265                            .dwattr $C$DW$53, DW_AT_name("isMPU9150Initialized")
     266                            .dwattr $C$DW$53, DW_AT_TI_symbol_name("isMPU9150Initialized")
     267                            .dwattr $C$DW$53, DW_AT_type(*$C$DW$T$173)
     268                            .dwattr $C$DW$53, DW_AT_declaration
     269                            .dwattr $C$DW$53, DW_AT_external
     270                            .dwattr $C$DW$53, DW_AT_decl_file("C:/TI_ARM_Tiva_Projects/Proj2_Magnetometer/Tasks/Task_gyro.
     271                            .dwattr $C$DW$53, DW_AT_decl_line(0x18)
     272                            .dwattr $C$DW$53, DW_AT_decl_column(0x0d)
     273                    
     274                    $C$DW$54        .dwtag  DW_TAG_variable
     275                            .dwattr $C$DW$54, DW_AT_name("xPortSysTickCount")
TI ARM Assembler PC v15.12.1 Thu Oct 27 13:57:51 2016

Tools Copyright (c) 1996-2015 Texas Instruments Incorporated
Task_gyro.asm                                                        PAGE    6

     276                            .dwattr $C$DW$54, DW_AT_TI_symbol_name("xPortSysTickCount")
     277                            .dwattr $C$DW$54, DW_AT_type(*$C$DW$T$143)
     278                            .dwattr $C$DW$54, DW_AT_declaration
     279                            .dwattr $C$DW$54, DW_AT_external
     280                            .dwattr $C$DW$54, DW_AT_decl_file("C:/TI_ARM_Tiva_Projects/Proj2_Magnetometer/Tasks/Task_Repor
     281                            .dwattr $C$DW$54, DW_AT_decl_line(0x12)
     282                            .dwattr $C$DW$54, DW_AT_decl_column(0x1a)
     283                    
     284                    $C$DW$55        .dwtag  DW_TAG_variable
     285                            .dwattr $C$DW$55, DW_AT_name("ReportData_Queue")
     286                            .dwattr $C$DW$55, DW_AT_TI_symbol_name("ReportData_Queue")
     287                            .dwattr $C$DW$55, DW_AT_type(*$C$DW$T$103)
     288                            .dwattr $C$DW$55, DW_AT_declaration
     289                            .dwattr $C$DW$55, DW_AT_external
     290                            .dwattr $C$DW$55, DW_AT_decl_file("C:/TI_ARM_Tiva_Projects/Proj2_Magnetometer/Tasks/Task_Repor
     291                            .dwattr $C$DW$55, DW_AT_decl_line(0x1c)
     292                            .dwattr $C$DW$55, DW_AT_decl_column(0x16)
     293                    
     294                            .global task_done
     295                            .common task_done,1,1
     296                    $C$DW$56        .dwtag  DW_TAG_variable
     297                            .dwattr $C$DW$56, DW_AT_name("task_done")
     298                            .dwattr $C$DW$56, DW_AT_TI_symbol_name("task_done")
     299                            .dwattr $C$DW$56, DW_AT_location[DW_OP_addr task_done]
     300                            .dwattr $C$DW$56, DW_AT_type(*$C$DW$T$174)
     301                            .dwattr $C$DW$56, DW_AT_external
     302                            .dwattr $C$DW$56, DW_AT_decl_file("../Tasks/Task_gyro.c")
     303                            .dwattr $C$DW$56, DW_AT_decl_line(0x27)
     304                            .dwattr $C$DW$56, DW_AT_decl_column(0x0f)
     305                    
     306                            .global fGyrox
     307                            .common fGyrox,4,4
     308                    $C$DW$57        .dwtag  DW_TAG_variable
     309                            .dwattr $C$DW$57, DW_AT_name("fGyrox")
     310                            .dwattr $C$DW$57, DW_AT_TI_symbol_name("fGyrox")
     311                            .dwattr $C$DW$57, DW_AT_location[DW_OP_addr fGyrox]
     312                            .dwattr $C$DW$57, DW_AT_type(*$C$DW$T$107)
     313                            .dwattr $C$DW$57, DW_AT_external
     314                            .dwattr $C$DW$57, DW_AT_decl_file("../Tasks/Task_gyro.c")
     315                            .dwattr $C$DW$57, DW_AT_decl_line(0x28)
     316                            .dwattr $C$DW$57, DW_AT_decl_column(0x08)
     317                    
     318                            .global fGyroy
     319                            .common fGyroy,4,4
     320                    $C$DW$58        .dwtag  DW_TAG_variable
     321                            .dwattr $C$DW$58, DW_AT_name("fGyroy")
     322                            .dwattr $C$DW$58, DW_AT_TI_symbol_name("fGyroy")
     323                            .dwattr $C$DW$58, DW_AT_location[DW_OP_addr fGyroy]
     324                            .dwattr $C$DW$58, DW_AT_type(*$C$DW$T$107)
     325                            .dwattr $C$DW$58, DW_AT_external
     326                            .dwattr $C$DW$58, DW_AT_decl_file("../Tasks/Task_gyro.c")
     327                            .dwattr $C$DW$58, DW_AT_decl_line(0x29)
     328                            .dwattr $C$DW$58, DW_AT_decl_column(0x08)
     329                    
     330                            .global fGyroz
TI ARM Assembler PC v15.12.1 Thu Oct 27 13:57:51 2016

Tools Copyright (c) 1996-2015 Texas Instruments Incorporated
Task_gyro.asm                                                        PAGE    7

     331                            .common fGyroz,4,4
     332                    $C$DW$59        .dwtag  DW_TAG_variable
     333                            .dwattr $C$DW$59, DW_AT_name("fGyroz")
     334                            .dwattr $C$DW$59, DW_AT_TI_symbol_name("fGyroz")
     335                            .dwattr $C$DW$59, DW_AT_location[DW_OP_addr fGyroz]
     336                            .dwattr $C$DW$59, DW_AT_type(*$C$DW$T$107)
     337                            .dwattr $C$DW$59, DW_AT_external
     338                            .dwattr $C$DW$59, DW_AT_decl_file("../Tasks/Task_gyro.c")
     339                            .dwattr $C$DW$59, DW_AT_decl_line(0x2a)
     340                            .dwattr $C$DW$59, DW_AT_decl_column(0x08)
     341                    
     342                            .global sMPU9150
     343                            .common sMPU9150,108,4
     344                    $C$DW$60        .dwtag  DW_TAG_variable
     345                            .dwattr $C$DW$60, DW_AT_name("sMPU9150")
     346                            .dwattr $C$DW$60, DW_AT_TI_symbol_name("sMPU9150")
     347                            .dwattr $C$DW$60, DW_AT_location[DW_OP_addr sMPU9150]
     348                            .dwattr $C$DW$60, DW_AT_type(*$C$DW$T$93)
     349                            .dwattr $C$DW$60, DW_AT_external
     350                            .dwattr $C$DW$60, DW_AT_decl_file("../Tasks/Task_gyro.c")
     351                            .dwattr $C$DW$60, DW_AT_decl_line(0x2e)
     352                            .dwattr $C$DW$60, DW_AT_decl_column(0x0a)
     353                    
     354                    ;       C:\TI_CodeComposer\ccsv6\tools\compiler\ti-cgt-arm_15.12.1.LTS\bin\armacpia.exe -@C:\\Users\\R
     355 00000000                   .sect   ".text:I2CMWrite"
     356                            .clink
     357                            .thumbfunc I2CMWrite
     358 00000000                   .thumb
     359                            .global I2CMWrite
     360                    
     361                    $C$DW$61        .dwtag  DW_TAG_subprogram
     362                            .dwattr $C$DW$61, DW_AT_name("I2CMWrite")
     363                            .dwattr $C$DW$61, DW_AT_low_pc(I2CMWrite)
     364                            .dwattr $C$DW$61, DW_AT_high_pc(0x00)
     365                            .dwattr $C$DW$61, DW_AT_TI_symbol_name("I2CMWrite")
     366                            .dwattr $C$DW$61, DW_AT_external
     367                            .dwattr $C$DW$61, DW_AT_type(*$C$DW$T$25)
     368                            .dwattr $C$DW$61, DW_AT_TI_begin_file("C:/TI_CodeComposer/TivaWare/sensorlib/i2cm_drv.h")
     369                            .dwattr $C$DW$61, DW_AT_TI_begin_line(0x1cb)
     370                            .dwattr $C$DW$61, DW_AT_TI_begin_column(0x01)
     371                            .dwattr $C$DW$61, DW_AT_decl_file("C:/TI_CodeComposer/TivaWare/sensorlib/i2cm_drv.h")
     372                            .dwattr $C$DW$61, DW_AT_decl_line(0x1cb)
     373                            .dwattr $C$DW$61, DW_AT_decl_column(0x01)
     374                            .dwattr $C$DW$61, DW_AT_TI_max_frame_size(0x30)
     375                            .dwpsn  file "C:/TI_CodeComposer/TivaWare/sensorlib/i2cm_drv.h",line 462,column 1,is_stmt,addr
     376                    
     377                            .dwfde $C$DW$CIE, I2CMWrite
     378                    $C$DW$62        .dwtag  DW_TAG_formal_parameter
     379                            .dwattr $C$DW$62, DW_AT_name("psInst")
     380                            .dwattr $C$DW$62, DW_AT_TI_symbol_name("psInst")
     381                            .dwattr $C$DW$62, DW_AT_type(*$C$DW$T$34)
     382                            .dwattr $C$DW$62, DW_AT_location[DW_OP_reg0]
     383                    
     384                    $C$DW$63        .dwtag  DW_TAG_formal_parameter
     385                            .dwattr $C$DW$63, DW_AT_name("ui8Addr")
TI ARM Assembler PC v15.12.1 Thu Oct 27 13:57:51 2016

Tools Copyright (c) 1996-2015 Texas Instruments Incorporated
Task_gyro.asm                                                        PAGE    8

     386                            .dwattr $C$DW$63, DW_AT_TI_symbol_name("ui8Addr")
     387                            .dwattr $C$DW$63, DW_AT_type(*$C$DW$T$25)
     388                            .dwattr $C$DW$63, DW_AT_location[DW_OP_reg1]
     389                    
     390                    $C$DW$64        .dwtag  DW_TAG_formal_parameter
     391                            .dwattr $C$DW$64, DW_AT_name("pui8Data")
     392                            .dwattr $C$DW$64, DW_AT_TI_symbol_name("pui8Data")
     393                            .dwattr $C$DW$64, DW_AT_type(*$C$DW$T$21)
     394                            .dwattr $C$DW$64, DW_AT_location[DW_OP_reg2]
     395                    
     396                    $C$DW$65        .dwtag  DW_TAG_formal_parameter
     397                            .dwattr $C$DW$65, DW_AT_name("ui16Count")
     398                            .dwattr $C$DW$65, DW_AT_TI_symbol_name("ui16Count")
     399                            .dwattr $C$DW$65, DW_AT_type(*$C$DW$T$144)
     400                            .dwattr $C$DW$65, DW_AT_location[DW_OP_reg3]
     401                    
     402                    $C$DW$66        .dwtag  DW_TAG_formal_parameter
     403                            .dwattr $C$DW$66, DW_AT_name("pfnCallback")
     404                            .dwattr $C$DW$66, DW_AT_TI_symbol_name("pfnCallback")
     405                            .dwattr $C$DW$66, DW_AT_type(*$C$DW$T$28)
     406                            .dwattr $C$DW$66, DW_AT_location[DW_OP_breg13 48]
     407                    
     408                    $C$DW$67        .dwtag  DW_TAG_formal_parameter
     409                            .dwattr $C$DW$67, DW_AT_name("pvCallbackData")
     410                            .dwattr $C$DW$67, DW_AT_TI_symbol_name("pvCallbackData")
     411                            .dwattr $C$DW$67, DW_AT_type(*$C$DW$T$3)
     412                            .dwattr $C$DW$67, DW_AT_location[DW_OP_breg13 52]
     413                    
     414                    
     415                    ;*****************************************************************************
     416                    ;* FUNCTION NAME: I2CMWrite                                                  *
     417                    ;*                                                                           *
     418                    ;*   Regs Modified     : A1,A2,A3,A4,V9,SP,LR,SR,D0,D0_hi,D1,D1_hi,D2,D2_hi, *
     419                    ;*                           D3,D3_hi,D4,D4_hi,D5,D5_hi,D6,D6_hi,D7,D7_hi,   *
     420                    ;*                           FPEXC,FPSCR                                     *
     421                    ;*   Regs Used         : A1,A2,A3,A4,V9,SP,LR,SR,D0,D0_hi,D1,D1_hi,D2,D2_hi, *
     422                    ;*                           D3,D3_hi,D4,D4_hi,D5,D5_hi,D6,D6_hi,D7,D7_hi,   *
     423                    ;*                           FPEXC,FPSCR                                     *
     424                    ;*   Local Frame Size  : 24 Args + 16 Auto + 4 Save = 44 byte                *
     425                    ;*****************************************************************************
     426 00000000           I2CMWrite:
     427                    ;* --------------------------------------------------------------------------*
     428                            .dwcfi  cfa_offset, 0
     429 00000000 B500              PUSH      {LR}                  ; [DPU_3_PIPE]  ; [ORIG 16-BIT INS]
     430                            .dwcfi  cfa_offset, 4
     431                            .dwcfi  save_reg_to_mem, 14, -4
     432 00000002 0D2CF1AD          SUB       SP, SP, #44           ; [DPU_3_PIPE]  ; [KEEP 32-BIT INS]
     433                            .dwcfi  cfa_offset, 48
     434                    $C$DW$68        .dwtag  DW_TAG_variable
     435                            .dwattr $C$DW$68, DW_AT_name("psInst")
     436                            .dwattr $C$DW$68, DW_AT_TI_symbol_name("psInst")
     437                            .dwattr $C$DW$68, DW_AT_type(*$C$DW$T$34)
     438                            .dwattr $C$DW$68, DW_AT_location[DW_OP_breg13 24]
     439                    
     440                    $C$DW$69        .dwtag  DW_TAG_variable
TI ARM Assembler PC v15.12.1 Thu Oct 27 13:57:51 2016

Tools Copyright (c) 1996-2015 Texas Instruments Incorporated
Task_gyro.asm                                                        PAGE    9

     441                            .dwattr $C$DW$69, DW_AT_name("ui8Addr")
     442                            .dwattr $C$DW$69, DW_AT_TI_symbol_name("ui8Addr")
     443                            .dwattr $C$DW$69, DW_AT_type(*$C$DW$T$25)
     444                            .dwattr $C$DW$69, DW_AT_location[DW_OP_breg13 28]
     445                    
     446                    $C$DW$70        .dwtag  DW_TAG_variable
     447                            .dwattr $C$DW$70, DW_AT_name("pui8Data")
     448                            .dwattr $C$DW$70, DW_AT_TI_symbol_name("pui8Data")
     449                            .dwattr $C$DW$70, DW_AT_type(*$C$DW$T$21)
     450                            .dwattr $C$DW$70, DW_AT_location[DW_OP_breg13 32]
     451                    
     452                    $C$DW$71        .dwtag  DW_TAG_variable
     453                            .dwattr $C$DW$71, DW_AT_name("ui16Count")
     454                            .dwattr $C$DW$71, DW_AT_TI_symbol_name("ui16Count")
     455                            .dwattr $C$DW$71, DW_AT_type(*$C$DW$T$144)
     456                            .dwattr $C$DW$71, DW_AT_location[DW_OP_breg13 36]
     457                    
     458 00000006 9309              STR       A4, [SP, #36]         ; [DPU_3_PIPE] |462|  ; [ORIG 16-BIT INS]
     459 00000008 9208              STR       A3, [SP, #32]         ; [DPU_3_PIPE] |462|  ; [ORIG 16-BIT INS]
     460 0000000a 9107              STR       A2, [SP, #28]         ; [DPU_3_PIPE] |462|  ; [ORIG 16-BIT INS]
     461 0000000c 9006              STR       A1, [SP, #24]         ; [DPU_3_PIPE] |462|  ; [ORIG 16-BIT INS]
     462                            .dwpsn  file "C:/TI_CodeComposer/TivaWare/sensorlib/i2cm_drv.h",line 463,column 5,is_stmt,isa 
     463 0000000e 9809              LDR       A1, [SP, #36]         ; [DPU_3_PIPE] |463|  ; [ORIG 16-BIT INS]
     464 00000010 9000              STR       A1, [SP, #0]          ; [DPU_3_PIPE] |463|  ; [ORIG 16-BIT INS]
     465 00000012 2000              MOVS      A1, #0                ; [DPU_3_PIPE] |463|  ; [ORIG 16-BIT INS]
     466 00000014 9001              STR       A1, [SP, #4]          ; [DPU_3_PIPE] |463|  ; [ORIG 16-BIT INS]
     467 00000016 2000              MOVS      A1, #0                ; [DPU_3_PIPE] |463|  ; [ORIG 16-BIT INS]
     468 00000018 9002              STR       A1, [SP, #8]          ; [DPU_3_PIPE] |463|  ; [ORIG 16-BIT INS]
     469 0000001a 2000              MOVS      A1, #0                ; [DPU_3_PIPE] |463|  ; [ORIG 16-BIT INS]
     470 0000001c 9003              STR       A1, [SP, #12]         ; [DPU_3_PIPE] |463|  ; [ORIG 16-BIT INS]
     471 0000001e 980C              LDR       A1, [SP, #48]         ; [DPU_3_PIPE] |463|  ; [ORIG 16-BIT INS]
     472 00000020 9004              STR       A1, [SP, #16]         ; [DPU_3_PIPE] |463|  ; [ORIG 16-BIT INS]
     473 00000022 980D              LDR       A1, [SP, #52]         ; [DPU_3_PIPE] |463|  ; [ORIG 16-BIT INS]
     474 00000024 9005              STR       A1, [SP, #20]         ; [DPU_3_PIPE] |463|  ; [ORIG 16-BIT INS]
     475 00000026 9B09              LDR       A4, [SP, #36]         ; [DPU_3_PIPE] |463|  ; [ORIG 16-BIT INS]
     476 00000028 9A08              LDR       A3, [SP, #32]         ; [DPU_3_PIPE] |463|  ; [ORIG 16-BIT INS]
     477 0000002a 9907              LDR       A2, [SP, #28]         ; [DPU_3_PIPE] |463|  ; [ORIG 16-BIT INS]
     478 0000002c 9806              LDR       A1, [SP, #24]         ; [DPU_3_PIPE] |463|  ; [ORIG 16-BIT INS]
     479                    $C$DW$72        .dwtag  DW_TAG_TI_branch
     480                            .dwattr $C$DW$72, DW_AT_low_pc(0x00)
     481                            .dwattr $C$DW$72, DW_AT_name("I2CMCommand")
     482                            .dwattr $C$DW$72, DW_AT_TI_call
     483                    
     484 0000002e FFFEF7FF!         BL        I2CMCommand           ; [DPU_3_PIPE] |463|  ; [KEEP 32-BIT INS]
     485                            ; CALL OCCURS {I2CMCommand }     ; [] |463| 
     486                            .dwpsn  file "C:/TI_CodeComposer/TivaWare/sensorlib/i2cm_drv.h",line 465,column 1,is_stmt,isa 
     487 00000032 B00B              ADD       SP, SP, #44           ; [DPU_3_PIPE]  ; [ORIG 16-BIT INS]
     488                            .dwcfi  cfa_offset, 4
     489                    $C$DW$73        .dwtag  DW_TAG_TI_branch
     490                            .dwattr $C$DW$73, DW_AT_low_pc(0x00)
     491                            .dwattr $C$DW$73, DW_AT_TI_return
     492                    
     493 00000034 BD00              POP       {PC}                  ; [DPU_3_PIPE]  ; [ORIG 16-BIT INS]
     494                            .dwcfi  cfa_offset, 0
     495                            ; BRANCH OCCURS                  ; [] 
TI ARM Assembler PC v15.12.1 Thu Oct 27 13:57:51 2016

Tools Copyright (c) 1996-2015 Texas Instruments Incorporated
Task_gyro.asm                                                        PAGE   10

     496                            .dwattr $C$DW$61, DW_AT_TI_end_file("C:/TI_CodeComposer/TivaWare/sensorlib/i2cm_drv.h")
     497                            .dwattr $C$DW$61, DW_AT_TI_end_line(0x1d1)
     498                            .dwattr $C$DW$61, DW_AT_TI_end_column(0x01)
     499                            .dwendentry
     500                            .dwendtag $C$DW$61
     501                    
     502 00000000                   .sect   ".text:I2CMRead"
     503                            .clink
     504                            .thumbfunc I2CMRead
     505 00000000                   .thumb
     506                            .global I2CMRead
     507                    
     508                    $C$DW$74        .dwtag  DW_TAG_subprogram
     509                            .dwattr $C$DW$74, DW_AT_name("I2CMRead")
     510                            .dwattr $C$DW$74, DW_AT_low_pc(I2CMRead)
     511                            .dwattr $C$DW$74, DW_AT_high_pc(0x00)
     512                            .dwattr $C$DW$74, DW_AT_TI_symbol_name("I2CMRead")
     513                            .dwattr $C$DW$74, DW_AT_external
     514                            .dwattr $C$DW$74, DW_AT_type(*$C$DW$T$25)
     515                            .dwattr $C$DW$74, DW_AT_TI_begin_file("C:/TI_CodeComposer/TivaWare/sensorlib/i2cm_drv.h")
     516                            .dwattr $C$DW$74, DW_AT_TI_begin_line(0x1d9)
     517                            .dwattr $C$DW$74, DW_AT_TI_begin_column(0x01)
     518                            .dwattr $C$DW$74, DW_AT_decl_file("C:/TI_CodeComposer/TivaWare/sensorlib/i2cm_drv.h")
     519                            .dwattr $C$DW$74, DW_AT_decl_line(0x1d9)
     520                            .dwattr $C$DW$74, DW_AT_decl_column(0x01)
     521                            .dwattr $C$DW$74, DW_AT_TI_max_frame_size(0x30)
     522                            .dwpsn  file "C:/TI_CodeComposer/TivaWare/sensorlib/i2cm_drv.h",line 477,column 1,is_stmt,addr
     523                    
     524                            .dwfde $C$DW$CIE, I2CMRead
     525                    $C$DW$75        .dwtag  DW_TAG_formal_parameter
     526                            .dwattr $C$DW$75, DW_AT_name("psInst")
     527                            .dwattr $C$DW$75, DW_AT_TI_symbol_name("psInst")
     528                            .dwattr $C$DW$75, DW_AT_type(*$C$DW$T$34)
     529                            .dwattr $C$DW$75, DW_AT_location[DW_OP_reg0]
     530                    
     531                    $C$DW$76        .dwtag  DW_TAG_formal_parameter
     532                            .dwattr $C$DW$76, DW_AT_name("ui8Addr")
     533                            .dwattr $C$DW$76, DW_AT_TI_symbol_name("ui8Addr")
     534                            .dwattr $C$DW$76, DW_AT_type(*$C$DW$T$25)
     535                            .dwattr $C$DW$76, DW_AT_location[DW_OP_reg1]
     536                    
     537                    $C$DW$77        .dwtag  DW_TAG_formal_parameter
     538                            .dwattr $C$DW$77, DW_AT_name("pui8WriteData")
     539                            .dwattr $C$DW$77, DW_AT_TI_symbol_name("pui8WriteData")
     540                            .dwattr $C$DW$77, DW_AT_type(*$C$DW$T$21)
     541                            .dwattr $C$DW$77, DW_AT_location[DW_OP_reg2]
     542                    
     543                    $C$DW$78        .dwtag  DW_TAG_formal_parameter
     544                            .dwattr $C$DW$78, DW_AT_name("ui16WriteCount")
     545                            .dwattr $C$DW$78, DW_AT_TI_symbol_name("ui16WriteCount")
     546                            .dwattr $C$DW$78, DW_AT_type(*$C$DW$T$144)
     547                            .dwattr $C$DW$78, DW_AT_location[DW_OP_reg3]
     548                    
     549                    $C$DW$79        .dwtag  DW_TAG_formal_parameter
     550                            .dwattr $C$DW$79, DW_AT_name("pui8ReadData")
TI ARM Assembler PC v15.12.1 Thu Oct 27 13:57:51 2016

Tools Copyright (c) 1996-2015 Texas Instruments Incorporated
Task_gyro.asm                                                        PAGE   11

     551                            .dwattr $C$DW$79, DW_AT_TI_symbol_name("pui8ReadData")
     552                            .dwattr $C$DW$79, DW_AT_type(*$C$DW$T$23)
     553                            .dwattr $C$DW$79, DW_AT_location[DW_OP_breg13 48]
     554                    
     555                    $C$DW$80        .dwtag  DW_TAG_formal_parameter
     556                            .dwattr $C$DW$80, DW_AT_name("ui16ReadCount")
     557                            .dwattr $C$DW$80, DW_AT_TI_symbol_name("ui16ReadCount")
     558                            .dwattr $C$DW$80, DW_AT_type(*$C$DW$T$144)
     559                            .dwattr $C$DW$80, DW_AT_location[DW_OP_breg13 52]
     560                    
     561                    $C$DW$81        .dwtag  DW_TAG_formal_parameter
     562                            .dwattr $C$DW$81, DW_AT_name("pfnCallback")
     563                            .dwattr $C$DW$81, DW_AT_TI_symbol_name("pfnCallback")
     564                            .dwattr $C$DW$81, DW_AT_type(*$C$DW$T$28)
     565                            .dwattr $C$DW$81, DW_AT_location[DW_OP_breg13 56]
     566                    
     567                    $C$DW$82        .dwtag  DW_TAG_formal_parameter
     568                            .dwattr $C$DW$82, DW_AT_name("pvCallbackData")
     569                            .dwattr $C$DW$82, DW_AT_TI_symbol_name("pvCallbackData")
     570                            .dwattr $C$DW$82, DW_AT_type(*$C$DW$T$3)
     571                            .dwattr $C$DW$82, DW_AT_location[DW_OP_breg13 60]
     572                    
     573                    
     574                    ;*****************************************************************************
     575                    ;* FUNCTION NAME: I2CMRead                                                   *
     576                    ;*                                                                           *
     577                    ;*   Regs Modified     : A1,A2,A3,A4,V9,SP,LR,SR,D0,D0_hi,D1,D1_hi,D2,D2_hi, *
     578                    ;*                           D3,D3_hi,D4,D4_hi,D5,D5_hi,D6,D6_hi,D7,D7_hi,   *
     579                    ;*                           FPEXC,FPSCR                                     *
     580                    ;*   Regs Used         : A1,A2,A3,A4,V9,SP,LR,SR,D0,D0_hi,D1,D1_hi,D2,D2_hi, *
     581                    ;*                           D3,D3_hi,D4,D4_hi,D5,D5_hi,D6,D6_hi,D7,D7_hi,   *
     582                    ;*                           FPEXC,FPSCR                                     *
     583                    ;*   Local Frame Size  : 24 Args + 16 Auto + 4 Save = 44 byte                *
     584                    ;*****************************************************************************
     585 00000000           I2CMRead:
     586                    ;* --------------------------------------------------------------------------*
     587                            .dwcfi  cfa_offset, 0
     588 00000000 B500              PUSH      {LR}                  ; [DPU_3_PIPE]  ; [ORIG 16-BIT INS]
     589                            .dwcfi  cfa_offset, 4
     590                            .dwcfi  save_reg_to_mem, 14, -4
     591 00000002 0D2CF1AD          SUB       SP, SP, #44           ; [DPU_3_PIPE]  ; [KEEP 32-BIT INS]
     592                            .dwcfi  cfa_offset, 48
     593                    $C$DW$83        .dwtag  DW_TAG_variable
     594                            .dwattr $C$DW$83, DW_AT_name("psInst")
     595                            .dwattr $C$DW$83, DW_AT_TI_symbol_name("psInst")
     596                            .dwattr $C$DW$83, DW_AT_type(*$C$DW$T$34)
     597                            .dwattr $C$DW$83, DW_AT_location[DW_OP_breg13 24]
     598                    
     599                    $C$DW$84        .dwtag  DW_TAG_variable
     600                            .dwattr $C$DW$84, DW_AT_name("ui8Addr")
     601                            .dwattr $C$DW$84, DW_AT_TI_symbol_name("ui8Addr")
     602                            .dwattr $C$DW$84, DW_AT_type(*$C$DW$T$25)
     603                            .dwattr $C$DW$84, DW_AT_location[DW_OP_breg13 28]
     604                    
     605                    $C$DW$85        .dwtag  DW_TAG_variable
TI ARM Assembler PC v15.12.1 Thu Oct 27 13:57:51 2016

Tools Copyright (c) 1996-2015 Texas Instruments Incorporated
Task_gyro.asm                                                        PAGE   12

     606                            .dwattr $C$DW$85, DW_AT_name("pui8WriteData")
     607                            .dwattr $C$DW$85, DW_AT_TI_symbol_name("pui8WriteData")
     608                            .dwattr $C$DW$85, DW_AT_type(*$C$DW$T$21)
     609                            .dwattr $C$DW$85, DW_AT_location[DW_OP_breg13 32]
     610                    
     611                    $C$DW$86        .dwtag  DW_TAG_variable
     612                            .dwattr $C$DW$86, DW_AT_name("ui16WriteCount")
     613                            .dwattr $C$DW$86, DW_AT_TI_symbol_name("ui16WriteCount")
     614                            .dwattr $C$DW$86, DW_AT_type(*$C$DW$T$144)
     615                            .dwattr $C$DW$86, DW_AT_location[DW_OP_breg13 36]
     616                    
     617 00000006 9309              STR       A4, [SP, #36]         ; [DPU_3_PIPE] |477|  ; [ORIG 16-BIT INS]
     618 00000008 9208              STR       A3, [SP, #32]         ; [DPU_3_PIPE] |477|  ; [ORIG 16-BIT INS]
     619 0000000a 9107              STR       A2, [SP, #28]         ; [DPU_3_PIPE] |477|  ; [ORIG 16-BIT INS]
     620 0000000c 9006              STR       A1, [SP, #24]         ; [DPU_3_PIPE] |477|  ; [ORIG 16-BIT INS]
     621                            .dwpsn  file "C:/TI_CodeComposer/TivaWare/sensorlib/i2cm_drv.h",line 478,column 5,is_stmt,isa 
     622 0000000e 9809              LDR       A1, [SP, #36]         ; [DPU_3_PIPE] |478|  ; [ORIG 16-BIT INS]
     623 00000010 9000              STR       A1, [SP, #0]          ; [DPU_3_PIPE] |478|  ; [ORIG 16-BIT INS]
     624 00000012 980C              LDR       A1, [SP, #48]         ; [DPU_3_PIPE] |478|  ; [ORIG 16-BIT INS]
     625 00000014 9001              STR       A1, [SP, #4]          ; [DPU_3_PIPE] |478|  ; [ORIG 16-BIT INS]
     626 00000016 980D              LDR       A1, [SP, #52]         ; [DPU_3_PIPE] |478|  ; [ORIG 16-BIT INS]
     627 00000018 9002              STR       A1, [SP, #8]          ; [DPU_3_PIPE] |478|  ; [ORIG 16-BIT INS]
     628 0000001a 980D              LDR       A1, [SP, #52]         ; [DPU_3_PIPE] |478|  ; [ORIG 16-BIT INS]
     629 0000001c 9003              STR       A1, [SP, #12]         ; [DPU_3_PIPE] |478|  ; [ORIG 16-BIT INS]
     630 0000001e 980E              LDR       A1, [SP, #56]         ; [DPU_3_PIPE] |478|  ; [ORIG 16-BIT INS]
     631 00000020 9004              STR       A1, [SP, #16]         ; [DPU_3_PIPE] |478|  ; [ORIG 16-BIT INS]
     632 00000022 980F              LDR       A1, [SP, #60]         ; [DPU_3_PIPE] |478|  ; [ORIG 16-BIT INS]
     633 00000024 9005              STR       A1, [SP, #20]         ; [DPU_3_PIPE] |478|  ; [ORIG 16-BIT INS]
     634 00000026 9B09              LDR       A4, [SP, #36]         ; [DPU_3_PIPE] |478|  ; [ORIG 16-BIT INS]
     635 00000028 9A08              LDR       A3, [SP, #32]         ; [DPU_3_PIPE] |478|  ; [ORIG 16-BIT INS]
     636 0000002a 9907              LDR       A2, [SP, #28]         ; [DPU_3_PIPE] |478|  ; [ORIG 16-BIT INS]
     637 0000002c 9806              LDR       A1, [SP, #24]         ; [DPU_3_PIPE] |478|  ; [ORIG 16-BIT INS]
     638                    $C$DW$87        .dwtag  DW_TAG_TI_branch
     639                            .dwattr $C$DW$87, DW_AT_low_pc(0x00)
     640                            .dwattr $C$DW$87, DW_AT_name("I2CMCommand")
     641                            .dwattr $C$DW$87, DW_AT_TI_call
     642                    
     643 0000002e FFFEF7FF!         BL        I2CMCommand           ; [DPU_3_PIPE] |478|  ; [KEEP 32-BIT INS]
     644                            ; CALL OCCURS {I2CMCommand }     ; [] |478| 
     645                            .dwpsn  file "C:/TI_CodeComposer/TivaWare/sensorlib/i2cm_drv.h",line 481,column 1,is_stmt,isa 
     646 00000032 B00B              ADD       SP, SP, #44           ; [DPU_3_PIPE]  ; [ORIG 16-BIT INS]
     647                            .dwcfi  cfa_offset, 4
     648                    $C$DW$88        .dwtag  DW_TAG_TI_branch
     649                            .dwattr $C$DW$88, DW_AT_low_pc(0x00)
     650                            .dwattr $C$DW$88, DW_AT_TI_return
     651                    
     652 00000034 BD00              POP       {PC}                  ; [DPU_3_PIPE]  ; [ORIG 16-BIT INS]
     653                            .dwcfi  cfa_offset, 0
     654                            ; BRANCH OCCURS                  ; [] 
     655                            .dwattr $C$DW$74, DW_AT_TI_end_file("C:/TI_CodeComposer/TivaWare/sensorlib/i2cm_drv.h")
     656                            .dwattr $C$DW$74, DW_AT_TI_end_line(0x1e1)
     657                            .dwattr $C$DW$74, DW_AT_TI_end_column(0x01)
     658                            .dwendentry
     659                            .dwendtag $C$DW$74
     660                    
TI ARM Assembler PC v15.12.1 Thu Oct 27 13:57:51 2016

Tools Copyright (c) 1996-2015 Texas Instruments Incorporated
Task_gyro.asm                                                        PAGE   13

     661 00000000                   .sect   ".text:I2CMWriteBatched"
     662                            .clink
     663                            .thumbfunc I2CMWriteBatched
     664 00000000                   .thumb
     665                            .global I2CMWriteBatched
     666                    
     667                    $C$DW$89        .dwtag  DW_TAG_subprogram
     668                            .dwattr $C$DW$89, DW_AT_name("I2CMWriteBatched")
     669                            .dwattr $C$DW$89, DW_AT_low_pc(I2CMWriteBatched)
     670                            .dwattr $C$DW$89, DW_AT_high_pc(0x00)
     671                            .dwattr $C$DW$89, DW_AT_TI_symbol_name("I2CMWriteBatched")
     672                            .dwattr $C$DW$89, DW_AT_external
     673                            .dwattr $C$DW$89, DW_AT_type(*$C$DW$T$25)
     674                            .dwattr $C$DW$89, DW_AT_TI_begin_file("C:/TI_CodeComposer/TivaWare/sensorlib/i2cm_drv.h")
     675                            .dwattr $C$DW$89, DW_AT_TI_begin_line(0x1e9)
     676                            .dwattr $C$DW$89, DW_AT_TI_begin_column(0x01)
     677                            .dwattr $C$DW$89, DW_AT_decl_file("C:/TI_CodeComposer/TivaWare/sensorlib/i2cm_drv.h")
     678                            .dwattr $C$DW$89, DW_AT_decl_line(0x1e9)
     679                            .dwattr $C$DW$89, DW_AT_decl_column(0x01)
     680                            .dwattr $C$DW$89, DW_AT_TI_max_frame_size(0x30)
     681                            .dwpsn  file "C:/TI_CodeComposer/TivaWare/sensorlib/i2cm_drv.h",line 493,column 1,is_stmt,addr
     682                    
     683                            .dwfde $C$DW$CIE, I2CMWriteBatched
     684                    $C$DW$90        .dwtag  DW_TAG_formal_parameter
     685                            .dwattr $C$DW$90, DW_AT_name("psInst")
     686                            .dwattr $C$DW$90, DW_AT_TI_symbol_name("psInst")
     687                            .dwattr $C$DW$90, DW_AT_type(*$C$DW$T$34)
     688                            .dwattr $C$DW$90, DW_AT_location[DW_OP_reg0]
     689                    
     690                    $C$DW$91        .dwtag  DW_TAG_formal_parameter
     691                            .dwattr $C$DW$91, DW_AT_name("ui8Addr")
     692                            .dwattr $C$DW$91, DW_AT_TI_symbol_name("ui8Addr")
     693                            .dwattr $C$DW$91, DW_AT_type(*$C$DW$T$25)
     694                            .dwattr $C$DW$91, DW_AT_location[DW_OP_reg1]
     695                    
     696                    $C$DW$92        .dwtag  DW_TAG_formal_parameter
     697                            .dwattr $C$DW$92, DW_AT_name("pui8Data")
     698                            .dwattr $C$DW$92, DW_AT_TI_symbol_name("pui8Data")
     699                            .dwattr $C$DW$92, DW_AT_type(*$C$DW$T$21)
     700                            .dwattr $C$DW$92, DW_AT_location[DW_OP_reg2]
     701                    
     702                    $C$DW$93        .dwtag  DW_TAG_formal_parameter
     703                            .dwattr $C$DW$93, DW_AT_name("ui16Count")
     704                            .dwattr $C$DW$93, DW_AT_TI_symbol_name("ui16Count")
     705                            .dwattr $C$DW$93, DW_AT_type(*$C$DW$T$144)
     706                            .dwattr $C$DW$93, DW_AT_location[DW_OP_reg3]
     707                    
     708                    $C$DW$94        .dwtag  DW_TAG_formal_parameter
     709                            .dwattr $C$DW$94, DW_AT_name("ui16BatchSize")
     710                            .dwattr $C$DW$94, DW_AT_TI_symbol_name("ui16BatchSize")
     711                            .dwattr $C$DW$94, DW_AT_type(*$C$DW$T$144)
     712                            .dwattr $C$DW$94, DW_AT_location[DW_OP_breg13 48]
     713                    
     714                    $C$DW$95        .dwtag  DW_TAG_formal_parameter
     715                            .dwattr $C$DW$95, DW_AT_name("pfnCallback")
TI ARM Assembler PC v15.12.1 Thu Oct 27 13:57:51 2016

Tools Copyright (c) 1996-2015 Texas Instruments Incorporated
Task_gyro.asm                                                        PAGE   14

     716                            .dwattr $C$DW$95, DW_AT_TI_symbol_name("pfnCallback")
     717                            .dwattr $C$DW$95, DW_AT_type(*$C$DW$T$28)
     718                            .dwattr $C$DW$95, DW_AT_location[DW_OP_breg13 52]
     719                    
     720                    $C$DW$96        .dwtag  DW_TAG_formal_parameter
     721                            .dwattr $C$DW$96, DW_AT_name("pvCallbackData")
     722                            .dwattr $C$DW$96, DW_AT_TI_symbol_name("pvCallbackData")
     723                            .dwattr $C$DW$96, DW_AT_type(*$C$DW$T$3)
     724                            .dwattr $C$DW$96, DW_AT_location[DW_OP_breg13 56]
     725                    
     726                    
     727                    ;*****************************************************************************
     728                    ;* FUNCTION NAME: I2CMWriteBatched                                           *
     729                    ;*                                                                           *
     730                    ;*   Regs Modified     : A1,A2,A3,A4,V9,SP,LR,SR,D0,D0_hi,D1,D1_hi,D2,D2_hi, *
     731                    ;*                           D3,D3_hi,D4,D4_hi,D5,D5_hi,D6,D6_hi,D7,D7_hi,   *
     732                    ;*                           FPEXC,FPSCR                                     *
     733                    ;*   Regs Used         : A1,A2,A3,A4,V9,SP,LR,SR,D0,D0_hi,D1,D1_hi,D2,D2_hi, *
     734                    ;*                           D3,D3_hi,D4,D4_hi,D5,D5_hi,D6,D6_hi,D7,D7_hi,   *
     735                    ;*                           FPEXC,FPSCR                                     *
     736                    ;*   Local Frame Size  : 24 Args + 16 Auto + 4 Save = 44 byte                *
     737                    ;*****************************************************************************
     738 00000000           I2CMWriteBatched:
     739                    ;* --------------------------------------------------------------------------*
     740                            .dwcfi  cfa_offset, 0
     741 00000000 B500              PUSH      {LR}                  ; [DPU_3_PIPE]  ; [ORIG 16-BIT INS]
     742                            .dwcfi  cfa_offset, 4
     743                            .dwcfi  save_reg_to_mem, 14, -4
     744 00000002 0D2CF1AD          SUB       SP, SP, #44           ; [DPU_3_PIPE]  ; [KEEP 32-BIT INS]
     745                            .dwcfi  cfa_offset, 48
     746                    $C$DW$97        .dwtag  DW_TAG_variable
     747                            .dwattr $C$DW$97, DW_AT_name("psInst")
     748                            .dwattr $C$DW$97, DW_AT_TI_symbol_name("psInst")
     749                            .dwattr $C$DW$97, DW_AT_type(*$C$DW$T$34)
     750                            .dwattr $C$DW$97, DW_AT_location[DW_OP_breg13 24]
     751                    
     752                    $C$DW$98        .dwtag  DW_TAG_variable
     753                            .dwattr $C$DW$98, DW_AT_name("ui8Addr")
     754                            .dwattr $C$DW$98, DW_AT_TI_symbol_name("ui8Addr")
     755                            .dwattr $C$DW$98, DW_AT_type(*$C$DW$T$25)
     756                            .dwattr $C$DW$98, DW_AT_location[DW_OP_breg13 28]
     757                    
     758                    $C$DW$99        .dwtag  DW_TAG_variable
     759                            .dwattr $C$DW$99, DW_AT_name("pui8Data")
     760                            .dwattr $C$DW$99, DW_AT_TI_symbol_name("pui8Data")
     761                            .dwattr $C$DW$99, DW_AT_type(*$C$DW$T$21)
     762                            .dwattr $C$DW$99, DW_AT_location[DW_OP_breg13 32]
     763                    
     764                    $C$DW$100       .dwtag  DW_TAG_variable
     765                            .dwattr $C$DW$100, DW_AT_name("ui16Count")
     766                            .dwattr $C$DW$100, DW_AT_TI_symbol_name("ui16Count")
     767                            .dwattr $C$DW$100, DW_AT_type(*$C$DW$T$144)
     768                            .dwattr $C$DW$100, DW_AT_location[DW_OP_breg13 36]
     769                    
     770 00000006 9309              STR       A4, [SP, #36]         ; [DPU_3_PIPE] |493|  ; [ORIG 16-BIT INS]
TI ARM Assembler PC v15.12.1 Thu Oct 27 13:57:51 2016

Tools Copyright (c) 1996-2015 Texas Instruments Incorporated
Task_gyro.asm                                                        PAGE   15

     771 00000008 9208              STR       A3, [SP, #32]         ; [DPU_3_PIPE] |493|  ; [ORIG 16-BIT INS]
     772 0000000a 9107              STR       A2, [SP, #28]         ; [DPU_3_PIPE] |493|  ; [ORIG 16-BIT INS]
     773 0000000c 9006              STR       A1, [SP, #24]         ; [DPU_3_PIPE] |493|  ; [ORIG 16-BIT INS]
     774                            .dwpsn  file "C:/TI_CodeComposer/TivaWare/sensorlib/i2cm_drv.h",line 494,column 5,is_stmt,isa 
     775 0000000e 980C              LDR       A1, [SP, #48]         ; [DPU_3_PIPE] |494|  ; [ORIG 16-BIT INS]
     776 00000010 9000              STR       A1, [SP, #0]          ; [DPU_3_PIPE] |494|  ; [ORIG 16-BIT INS]
     777 00000012 2000              MOVS      A1, #0                ; [DPU_3_PIPE] |494|  ; [ORIG 16-BIT INS]
     778 00000014 9001              STR       A1, [SP, #4]          ; [DPU_3_PIPE] |494|  ; [ORIG 16-BIT INS]
     779 00000016 2000              MOVS      A1, #0                ; [DPU_3_PIPE] |494|  ; [ORIG 16-BIT INS]
     780 00000018 9002              STR       A1, [SP, #8]          ; [DPU_3_PIPE] |494|  ; [ORIG 16-BIT INS]
     781 0000001a 2000              MOVS      A1, #0                ; [DPU_3_PIPE] |494|  ; [ORIG 16-BIT INS]
     782 0000001c 9003              STR       A1, [SP, #12]         ; [DPU_3_PIPE] |494|  ; [ORIG 16-BIT INS]
     783 0000001e 980D              LDR       A1, [SP, #52]         ; [DPU_3_PIPE] |494|  ; [ORIG 16-BIT INS]
     784 00000020 9004              STR       A1, [SP, #16]         ; [DPU_3_PIPE] |494|  ; [ORIG 16-BIT INS]
     785 00000022 980E              LDR       A1, [SP, #56]         ; [DPU_3_PIPE] |494|  ; [ORIG 16-BIT INS]
     786 00000024 9005              STR       A1, [SP, #20]         ; [DPU_3_PIPE] |494|  ; [ORIG 16-BIT INS]
     787 00000026 9B09              LDR       A4, [SP, #36]         ; [DPU_3_PIPE] |494|  ; [ORIG 16-BIT INS]
     788 00000028 9A08              LDR       A3, [SP, #32]         ; [DPU_3_PIPE] |494|  ; [ORIG 16-BIT INS]
     789 0000002a 9907              LDR       A2, [SP, #28]         ; [DPU_3_PIPE] |494|  ; [ORIG 16-BIT INS]
     790 0000002c 9806              LDR       A1, [SP, #24]         ; [DPU_3_PIPE] |494|  ; [ORIG 16-BIT INS]
     791                    $C$DW$101       .dwtag  DW_TAG_TI_branch
     792                            .dwattr $C$DW$101, DW_AT_low_pc(0x00)
     793                            .dwattr $C$DW$101, DW_AT_name("I2CMCommand")
     794                            .dwattr $C$DW$101, DW_AT_TI_call
     795                    
     796 0000002e FFFEF7FF!         BL        I2CMCommand           ; [DPU_3_PIPE] |494|  ; [KEEP 32-BIT INS]
     797                            ; CALL OCCURS {I2CMCommand }     ; [] |494| 
     798                            .dwpsn  file "C:/TI_CodeComposer/TivaWare/sensorlib/i2cm_drv.h",line 496,column 1,is_stmt,isa 
     799 00000032 B00B              ADD       SP, SP, #44           ; [DPU_3_PIPE]  ; [ORIG 16-BIT INS]
     800                            .dwcfi  cfa_offset, 4
     801                    $C$DW$102       .dwtag  DW_TAG_TI_branch
     802                            .dwattr $C$DW$102, DW_AT_low_pc(0x00)
     803                            .dwattr $C$DW$102, DW_AT_TI_return
     804                    
     805 00000034 BD00              POP       {PC}                  ; [DPU_3_PIPE]  ; [ORIG 16-BIT INS]
     806                            .dwcfi  cfa_offset, 0
     807                            ; BRANCH OCCURS                  ; [] 
     808                            .dwattr $C$DW$89, DW_AT_TI_end_file("C:/TI_CodeComposer/TivaWare/sensorlib/i2cm_drv.h")
     809                            .dwattr $C$DW$89, DW_AT_TI_end_line(0x1f0)
     810                            .dwattr $C$DW$89, DW_AT_TI_end_column(0x01)
     811                            .dwendentry
     812                            .dwendtag $C$DW$89
     813                    
     814 00000000                   .sect   ".text:I2CMReadBatched"
     815                            .clink
     816                            .thumbfunc I2CMReadBatched
     817 00000000                   .thumb
     818                            .global I2CMReadBatched
     819                    
     820                    $C$DW$103       .dwtag  DW_TAG_subprogram
     821                            .dwattr $C$DW$103, DW_AT_name("I2CMReadBatched")
     822                            .dwattr $C$DW$103, DW_AT_low_pc(I2CMReadBatched)
     823                            .dwattr $C$DW$103, DW_AT_high_pc(0x00)
     824                            .dwattr $C$DW$103, DW_AT_TI_symbol_name("I2CMReadBatched")
     825                            .dwattr $C$DW$103, DW_AT_external
TI ARM Assembler PC v15.12.1 Thu Oct 27 13:57:51 2016

Tools Copyright (c) 1996-2015 Texas Instruments Incorporated
Task_gyro.asm                                                        PAGE   16

     826                            .dwattr $C$DW$103, DW_AT_type(*$C$DW$T$25)
     827                            .dwattr $C$DW$103, DW_AT_TI_begin_file("C:/TI_CodeComposer/TivaWare/sensorlib/i2cm_drv.h")
     828                            .dwattr $C$DW$103, DW_AT_TI_begin_line(0x1f8)
     829                            .dwattr $C$DW$103, DW_AT_TI_begin_column(0x01)
     830                            .dwattr $C$DW$103, DW_AT_decl_file("C:/TI_CodeComposer/TivaWare/sensorlib/i2cm_drv.h")
     831                            .dwattr $C$DW$103, DW_AT_decl_line(0x1f8)
     832                            .dwattr $C$DW$103, DW_AT_decl_column(0x01)
     833                            .dwattr $C$DW$103, DW_AT_TI_max_frame_size(0x30)
     834                            .dwpsn  file "C:/TI_CodeComposer/TivaWare/sensorlib/i2cm_drv.h",line 509,column 1,is_stmt,addr
     835                    
     836                            .dwfde $C$DW$CIE, I2CMReadBatched
     837                    $C$DW$104       .dwtag  DW_TAG_formal_parameter
     838                            .dwattr $C$DW$104, DW_AT_name("psInst")
     839                            .dwattr $C$DW$104, DW_AT_TI_symbol_name("psInst")
     840                            .dwattr $C$DW$104, DW_AT_type(*$C$DW$T$34)
     841                            .dwattr $C$DW$104, DW_AT_location[DW_OP_reg0]
     842                    
     843                    $C$DW$105       .dwtag  DW_TAG_formal_parameter
     844                            .dwattr $C$DW$105, DW_AT_name("ui8Addr")
     845                            .dwattr $C$DW$105, DW_AT_TI_symbol_name("ui8Addr")
     846                            .dwattr $C$DW$105, DW_AT_type(*$C$DW$T$25)
     847                            .dwattr $C$DW$105, DW_AT_location[DW_OP_reg1]
     848                    
     849                    $C$DW$106       .dwtag  DW_TAG_formal_parameter
     850                            .dwattr $C$DW$106, DW_AT_name("pui8WriteData")
     851                            .dwattr $C$DW$106, DW_AT_TI_symbol_name("pui8WriteData")
     852                            .dwattr $C$DW$106, DW_AT_type(*$C$DW$T$21)
     853                            .dwattr $C$DW$106, DW_AT_location[DW_OP_reg2]
     854                    
     855                    $C$DW$107       .dwtag  DW_TAG_formal_parameter
     856                            .dwattr $C$DW$107, DW_AT_name("ui16WriteCount")
     857                            .dwattr $C$DW$107, DW_AT_TI_symbol_name("ui16WriteCount")
     858                            .dwattr $C$DW$107, DW_AT_type(*$C$DW$T$144)
     859                            .dwattr $C$DW$107, DW_AT_location[DW_OP_reg3]
     860                    
     861                    $C$DW$108       .dwtag  DW_TAG_formal_parameter
     862                            .dwattr $C$DW$108, DW_AT_name("ui16WriteBatchSize")
     863                            .dwattr $C$DW$108, DW_AT_TI_symbol_name("ui16WriteBatchSize")
     864                            .dwattr $C$DW$108, DW_AT_type(*$C$DW$T$144)
     865                            .dwattr $C$DW$108, DW_AT_location[DW_OP_breg13 48]
     866                    
     867                    $C$DW$109       .dwtag  DW_TAG_formal_parameter
     868                            .dwattr $C$DW$109, DW_AT_name("pui8ReadData")
     869                            .dwattr $C$DW$109, DW_AT_TI_symbol_name("pui8ReadData")
     870                            .dwattr $C$DW$109, DW_AT_type(*$C$DW$T$23)
     871                            .dwattr $C$DW$109, DW_AT_location[DW_OP_breg13 52]
     872                    
     873                    $C$DW$110       .dwtag  DW_TAG_formal_parameter
     874                            .dwattr $C$DW$110, DW_AT_name("ui16ReadCount")
     875                            .dwattr $C$DW$110, DW_AT_TI_symbol_name("ui16ReadCount")
     876                            .dwattr $C$DW$110, DW_AT_type(*$C$DW$T$144)
     877                            .dwattr $C$DW$110, DW_AT_location[DW_OP_breg13 56]
     878                    
     879                    $C$DW$111       .dwtag  DW_TAG_formal_parameter
     880                            .dwattr $C$DW$111, DW_AT_name("ui16ReadBatchSize")
TI ARM Assembler PC v15.12.1 Thu Oct 27 13:57:51 2016

Tools Copyright (c) 1996-2015 Texas Instruments Incorporated
Task_gyro.asm                                                        PAGE   17

     881                            .dwattr $C$DW$111, DW_AT_TI_symbol_name("ui16ReadBatchSize")
     882                            .dwattr $C$DW$111, DW_AT_type(*$C$DW$T$144)
     883                            .dwattr $C$DW$111, DW_AT_location[DW_OP_breg13 60]
     884                    
     885                    $C$DW$112       .dwtag  DW_TAG_formal_parameter
     886                            .dwattr $C$DW$112, DW_AT_name("pfnCallback")
     887                            .dwattr $C$DW$112, DW_AT_TI_symbol_name("pfnCallback")
     888                            .dwattr $C$DW$112, DW_AT_type(*$C$DW$T$28)
     889                            .dwattr $C$DW$112, DW_AT_location[DW_OP_breg13 64]
     890                    
     891                    $C$DW$113       .dwtag  DW_TAG_formal_parameter
     892                            .dwattr $C$DW$113, DW_AT_name("pvCallbackData")
     893                            .dwattr $C$DW$113, DW_AT_TI_symbol_name("pvCallbackData")
     894                            .dwattr $C$DW$113, DW_AT_type(*$C$DW$T$3)
     895                            .dwattr $C$DW$113, DW_AT_location[DW_OP_breg13 68]
     896                    
     897                    
     898                    ;*****************************************************************************
     899                    ;* FUNCTION NAME: I2CMReadBatched                                            *
     900                    ;*                                                                           *
     901                    ;*   Regs Modified     : A1,A2,A3,A4,V9,SP,LR,SR,D0,D0_hi,D1,D1_hi,D2,D2_hi, *
     902                    ;*                           D3,D3_hi,D4,D4_hi,D5,D5_hi,D6,D6_hi,D7,D7_hi,   *
     903                    ;*                           FPEXC,FPSCR                                     *
     904                    ;*   Regs Used         : A1,A2,A3,A4,V9,SP,LR,SR,D0,D0_hi,D1,D1_hi,D2,D2_hi, *
     905                    ;*                           D3,D3_hi,D4,D4_hi,D5,D5_hi,D6,D6_hi,D7,D7_hi,   *
     906                    ;*                           FPEXC,FPSCR                                     *
     907                    ;*   Local Frame Size  : 24 Args + 16 Auto + 4 Save = 44 byte                *
     908                    ;*****************************************************************************
     909 00000000           I2CMReadBatched:
     910                    ;* --------------------------------------------------------------------------*
     911                            .dwcfi  cfa_offset, 0
     912 00000000 B500              PUSH      {LR}                  ; [DPU_3_PIPE]  ; [ORIG 16-BIT INS]
     913                            .dwcfi  cfa_offset, 4
     914                            .dwcfi  save_reg_to_mem, 14, -4
     915 00000002 0D2CF1AD          SUB       SP, SP, #44           ; [DPU_3_PIPE]  ; [KEEP 32-BIT INS]
     916                            .dwcfi  cfa_offset, 48
     917                    $C$DW$114       .dwtag  DW_TAG_variable
     918                            .dwattr $C$DW$114, DW_AT_name("psInst")
     919                            .dwattr $C$DW$114, DW_AT_TI_symbol_name("psInst")
     920                            .dwattr $C$DW$114, DW_AT_type(*$C$DW$T$34)
     921                            .dwattr $C$DW$114, DW_AT_location[DW_OP_breg13 24]
     922                    
     923                    $C$DW$115       .dwtag  DW_TAG_variable
     924                            .dwattr $C$DW$115, DW_AT_name("ui8Addr")
     925                            .dwattr $C$DW$115, DW_AT_TI_symbol_name("ui8Addr")
     926                            .dwattr $C$DW$115, DW_AT_type(*$C$DW$T$25)
     927                            .dwattr $C$DW$115, DW_AT_location[DW_OP_breg13 28]
     928                    
     929                    $C$DW$116       .dwtag  DW_TAG_variable
     930                            .dwattr $C$DW$116, DW_AT_name("pui8WriteData")
     931                            .dwattr $C$DW$116, DW_AT_TI_symbol_name("pui8WriteData")
     932                            .dwattr $C$DW$116, DW_AT_type(*$C$DW$T$21)
     933                            .dwattr $C$DW$116, DW_AT_location[DW_OP_breg13 32]
     934                    
     935                    $C$DW$117       .dwtag  DW_TAG_variable
TI ARM Assembler PC v15.12.1 Thu Oct 27 13:57:51 2016

Tools Copyright (c) 1996-2015 Texas Instruments Incorporated
Task_gyro.asm                                                        PAGE   18

     936                            .dwattr $C$DW$117, DW_AT_name("ui16WriteCount")
     937                            .dwattr $C$DW$117, DW_AT_TI_symbol_name("ui16WriteCount")
     938                            .dwattr $C$DW$117, DW_AT_type(*$C$DW$T$144)
     939                            .dwattr $C$DW$117, DW_AT_location[DW_OP_breg13 36]
     940                    
     941 00000006 9309              STR       A4, [SP, #36]         ; [DPU_3_PIPE] |509|  ; [ORIG 16-BIT INS]
     942 00000008 9208              STR       A3, [SP, #32]         ; [DPU_3_PIPE] |509|  ; [ORIG 16-BIT INS]
     943 0000000a 9107              STR       A2, [SP, #28]         ; [DPU_3_PIPE] |509|  ; [ORIG 16-BIT INS]
     944 0000000c 9006              STR       A1, [SP, #24]         ; [DPU_3_PIPE] |509|  ; [ORIG 16-BIT INS]
     945                            .dwpsn  file "C:/TI_CodeComposer/TivaWare/sensorlib/i2cm_drv.h",line 510,column 5,is_stmt,isa 
     946 0000000e 980C              LDR       A1, [SP, #48]         ; [DPU_3_PIPE] |510|  ; [ORIG 16-BIT INS]
     947 00000010 9000              STR       A1, [SP, #0]          ; [DPU_3_PIPE] |510|  ; [ORIG 16-BIT INS]
     948 00000012 980D              LDR       A1, [SP, #52]         ; [DPU_3_PIPE] |510|  ; [ORIG 16-BIT INS]
     949 00000014 9001              STR       A1, [SP, #4]          ; [DPU_3_PIPE] |510|  ; [ORIG 16-BIT INS]
     950 00000016 980E              LDR       A1, [SP, #56]         ; [DPU_3_PIPE] |510|  ; [ORIG 16-BIT INS]
     951 00000018 9002              STR       A1, [SP, #8]          ; [DPU_3_PIPE] |510|  ; [ORIG 16-BIT INS]
     952 0000001a 980F              LDR       A1, [SP, #60]         ; [DPU_3_PIPE] |510|  ; [ORIG 16-BIT INS]
     953 0000001c 9003              STR       A1, [SP, #12]         ; [DPU_3_PIPE] |510|  ; [ORIG 16-BIT INS]
     954 0000001e 9810              LDR       A1, [SP, #64]         ; [DPU_3_PIPE] |510|  ; [ORIG 16-BIT INS]
     955 00000020 9004              STR       A1, [SP, #16]         ; [DPU_3_PIPE] |510|  ; [ORIG 16-BIT INS]
     956 00000022 9811              LDR       A1, [SP, #68]         ; [DPU_3_PIPE] |510|  ; [ORIG 16-BIT INS]
     957 00000024 9005              STR       A1, [SP, #20]         ; [DPU_3_PIPE] |510|  ; [ORIG 16-BIT INS]
     958 00000026 9B09              LDR       A4, [SP, #36]         ; [DPU_3_PIPE] |510|  ; [ORIG 16-BIT INS]
     959 00000028 9A08              LDR       A3, [SP, #32]         ; [DPU_3_PIPE] |510|  ; [ORIG 16-BIT INS]
     960 0000002a 9907              LDR       A2, [SP, #28]         ; [DPU_3_PIPE] |510|  ; [ORIG 16-BIT INS]
     961 0000002c 9806              LDR       A1, [SP, #24]         ; [DPU_3_PIPE] |510|  ; [ORIG 16-BIT INS]
     962                    $C$DW$118       .dwtag  DW_TAG_TI_branch
     963                            .dwattr $C$DW$118, DW_AT_low_pc(0x00)
     964                            .dwattr $C$DW$118, DW_AT_name("I2CMCommand")
     965                            .dwattr $C$DW$118, DW_AT_TI_call
     966                    
     967 0000002e FFFEF7FF!         BL        I2CMCommand           ; [DPU_3_PIPE] |510|  ; [KEEP 32-BIT INS]
     968                            ; CALL OCCURS {I2CMCommand }     ; [] |510| 
     969                            .dwpsn  file "C:/TI_CodeComposer/TivaWare/sensorlib/i2cm_drv.h",line 513,column 1,is_stmt,isa 
     970 00000032 B00B              ADD       SP, SP, #44           ; [DPU_3_PIPE]  ; [ORIG 16-BIT INS]
     971                            .dwcfi  cfa_offset, 4
     972                    $C$DW$119       .dwtag  DW_TAG_TI_branch
     973                            .dwattr $C$DW$119, DW_AT_low_pc(0x00)
     974                            .dwattr $C$DW$119, DW_AT_TI_return
     975                    
     976 00000034 BD00              POP       {PC}                  ; [DPU_3_PIPE]  ; [ORIG 16-BIT INS]
     977                            .dwcfi  cfa_offset, 0
     978                            ; BRANCH OCCURS                  ; [] 
     979                            .dwattr $C$DW$103, DW_AT_TI_end_file("C:/TI_CodeComposer/TivaWare/sensorlib/i2cm_drv.h")
     980                            .dwattr $C$DW$103, DW_AT_TI_end_line(0x201)
     981                            .dwattr $C$DW$103, DW_AT_TI_end_column(0x01)
     982                            .dwendentry
     983                            .dwendtag $C$DW$103
     984                    
     985 00000000                   .sect   ".text:I2CMReadModifyWrite16BE"
     986                            .clink
     987                            .thumbfunc I2CMReadModifyWrite16BE
     988 00000000                   .thumb
     989                            .global I2CMReadModifyWrite16BE
     990                    
TI ARM Assembler PC v15.12.1 Thu Oct 27 13:57:51 2016

Tools Copyright (c) 1996-2015 Texas Instruments Incorporated
Task_gyro.asm                                                        PAGE   19

     991                    $C$DW$120       .dwtag  DW_TAG_subprogram
     992                            .dwattr $C$DW$120, DW_AT_name("I2CMReadModifyWrite16BE")
     993                            .dwattr $C$DW$120, DW_AT_low_pc(I2CMReadModifyWrite16BE)
     994                            .dwattr $C$DW$120, DW_AT_high_pc(0x00)
     995                            .dwattr $C$DW$120, DW_AT_TI_symbol_name("I2CMReadModifyWrite16BE")
     996                            .dwattr $C$DW$120, DW_AT_external
     997                            .dwattr $C$DW$120, DW_AT_type(*$C$DW$T$25)
     998                            .dwattr $C$DW$120, DW_AT_TI_begin_file("C:/TI_CodeComposer/TivaWare/sensorlib/i2cm_drv.h")
     999                            .dwattr $C$DW$120, DW_AT_TI_begin_line(0x209)
    1000                            .dwattr $C$DW$120, DW_AT_TI_begin_column(0x01)
    1001                            .dwattr $C$DW$120, DW_AT_decl_file("C:/TI_CodeComposer/TivaWare/sensorlib/i2cm_drv.h")
    1002                            .dwattr $C$DW$120, DW_AT_decl_line(0x209)
    1003                            .dwattr $C$DW$120, DW_AT_decl_column(0x01)
    1004                            .dwattr $C$DW$120, DW_AT_TI_max_frame_size(0x28)
    1005                            .dwpsn  file "C:/TI_CodeComposer/TivaWare/sensorlib/i2cm_drv.h",line 526,column 1,is_stmt,addr
    1006                    
    1007                            .dwfde $C$DW$CIE, I2CMReadModifyWrite16BE
    1008                    $C$DW$121       .dwtag  DW_TAG_formal_parameter
    1009                            .dwattr $C$DW$121, DW_AT_name("psInst")
    1010                            .dwattr $C$DW$121, DW_AT_TI_symbol_name("psInst")
    1011                            .dwattr $C$DW$121, DW_AT_type(*$C$DW$T$92)
    1012                            .dwattr $C$DW$121, DW_AT_location[DW_OP_reg0]
    1013                    
    1014                    $C$DW$122       .dwtag  DW_TAG_formal_parameter
    1015                            .dwattr $C$DW$122, DW_AT_name("psI2CInst")
    1016                            .dwattr $C$DW$122, DW_AT_TI_symbol_name("psI2CInst")
    1017                            .dwattr $C$DW$122, DW_AT_type(*$C$DW$T$34)
    1018                            .dwattr $C$DW$122, DW_AT_location[DW_OP_reg1]
    1019                    
    1020                    $C$DW$123       .dwtag  DW_TAG_formal_parameter
    1021                            .dwattr $C$DW$123, DW_AT_name("ui8Addr")
    1022                            .dwattr $C$DW$123, DW_AT_TI_symbol_name("ui8Addr")
    1023                            .dwattr $C$DW$123, DW_AT_type(*$C$DW$T$25)
    1024                            .dwattr $C$DW$123, DW_AT_location[DW_OP_reg2]
    1025                    
    1026                    $C$DW$124       .dwtag  DW_TAG_formal_parameter
    1027                            .dwattr $C$DW$124, DW_AT_name("ui8Reg")
    1028                            .dwattr $C$DW$124, DW_AT_TI_symbol_name("ui8Reg")
    1029                            .dwattr $C$DW$124, DW_AT_type(*$C$DW$T$25)
    1030                            .dwattr $C$DW$124, DW_AT_location[DW_OP_reg3]
    1031                    
    1032                    $C$DW$125       .dwtag  DW_TAG_formal_parameter
    1033                            .dwattr $C$DW$125, DW_AT_name("ui16Mask")
    1034                            .dwattr $C$DW$125, DW_AT_TI_symbol_name("ui16Mask")
    1035                            .dwattr $C$DW$125, DW_AT_type(*$C$DW$T$144)
    1036                            .dwattr $C$DW$125, DW_AT_location[DW_OP_breg13 40]
    1037                    
    1038                    $C$DW$126       .dwtag  DW_TAG_formal_parameter
    1039                            .dwattr $C$DW$126, DW_AT_name("ui16Value")
    1040                            .dwattr $C$DW$126, DW_AT_TI_symbol_name("ui16Value")
    1041                            .dwattr $C$DW$126, DW_AT_type(*$C$DW$T$144)
    1042                            .dwattr $C$DW$126, DW_AT_location[DW_OP_breg13 44]
    1043                    
    1044                    $C$DW$127       .dwtag  DW_TAG_formal_parameter
    1045                            .dwattr $C$DW$127, DW_AT_name("pfnCallback")
TI ARM Assembler PC v15.12.1 Thu Oct 27 13:57:51 2016

Tools Copyright (c) 1996-2015 Texas Instruments Incorporated
Task_gyro.asm                                                        PAGE   20

    1046                            .dwattr $C$DW$127, DW_AT_TI_symbol_name("pfnCallback")
    1047                            .dwattr $C$DW$127, DW_AT_type(*$C$DW$T$28)
    1048                            .dwattr $C$DW$127, DW_AT_location[DW_OP_breg13 48]
    1049                    
    1050                    $C$DW$128       .dwtag  DW_TAG_formal_parameter
    1051                            .dwattr $C$DW$128, DW_AT_name("pvCallbackData")
    1052                            .dwattr $C$DW$128, DW_AT_TI_symbol_name("pvCallbackData")
    1053                            .dwattr $C$DW$128, DW_AT_type(*$C$DW$T$3)
    1054                            .dwattr $C$DW$128, DW_AT_location[DW_OP_breg13 52]
    1055                    
    1056                    
    1057                    ;*****************************************************************************
    1058                    ;* FUNCTION NAME: I2CMReadModifyWrite16BE                                    *
    1059                    ;*                                                                           *
    1060                    ;*   Regs Modified     : A1,A2,A3,A4,V9,SP,LR,SR,D0,D0_hi,D1,D1_hi,D2,D2_hi, *
    1061                    ;*                           D3,D3_hi,D4,D4_hi,D5,D5_hi,D6,D6_hi,D7,D7_hi,   *
    1062                    ;*                           FPEXC,FPSCR                                     *
    1063                    ;*   Regs Used         : A1,A2,A3,A4,V9,SP,LR,SR,D0,D0_hi,D1,D1_hi,D2,D2_hi, *
    1064                    ;*                           D3,D3_hi,D4,D4_hi,D5,D5_hi,D6,D6_hi,D7,D7_hi,   *
    1065                    ;*                           FPEXC,FPSCR                                     *
    1066                    ;*   Local Frame Size  : 16 Args + 16 Auto + 4 Save = 36 byte                *
    1067                    ;*****************************************************************************
    1068 00000000           I2CMReadModifyWrite16BE:
    1069                    ;* --------------------------------------------------------------------------*
    1070                            .dwcfi  cfa_offset, 0
    1071 00000000 B500              PUSH      {LR}                  ; [DPU_3_PIPE]  ; [ORIG 16-BIT INS]
    1072                            .dwcfi  cfa_offset, 4
    1073                            .dwcfi  save_reg_to_mem, 14, -4
    1074 00000002 0D24F1AD          SUB       SP, SP, #36           ; [DPU_3_PIPE]  ; [KEEP 32-BIT INS]
    1075                            .dwcfi  cfa_offset, 40
    1076                    $C$DW$129       .dwtag  DW_TAG_variable
    1077                            .dwattr $C$DW$129, DW_AT_name("psInst")
    1078                            .dwattr $C$DW$129, DW_AT_TI_symbol_name("psInst")
    1079                            .dwattr $C$DW$129, DW_AT_type(*$C$DW$T$92)
    1080                            .dwattr $C$DW$129, DW_AT_location[DW_OP_breg13 16]
    1081                    
    1082                    $C$DW$130       .dwtag  DW_TAG_variable
    1083                            .dwattr $C$DW$130, DW_AT_name("psI2CInst")
    1084                            .dwattr $C$DW$130, DW_AT_TI_symbol_name("psI2CInst")
    1085                            .dwattr $C$DW$130, DW_AT_type(*$C$DW$T$34)
    1086                            .dwattr $C$DW$130, DW_AT_location[DW_OP_breg13 20]
    1087                    
    1088                    $C$DW$131       .dwtag  DW_TAG_variable
    1089                            .dwattr $C$DW$131, DW_AT_name("ui8Addr")
    1090                            .dwattr $C$DW$131, DW_AT_TI_symbol_name("ui8Addr")
    1091                            .dwattr $C$DW$131, DW_AT_type(*$C$DW$T$25)
    1092                            .dwattr $C$DW$131, DW_AT_location[DW_OP_breg13 24]
    1093                    
    1094                    $C$DW$132       .dwtag  DW_TAG_variable
    1095                            .dwattr $C$DW$132, DW_AT_name("ui8Reg")
    1096                            .dwattr $C$DW$132, DW_AT_TI_symbol_name("ui8Reg")
    1097                            .dwattr $C$DW$132, DW_AT_type(*$C$DW$T$25)
    1098                            .dwattr $C$DW$132, DW_AT_location[DW_OP_breg13 28]
    1099                    
    1100 00000006 9307              STR       A4, [SP, #28]         ; [DPU_3_PIPE] |526|  ; [ORIG 16-BIT INS]
TI ARM Assembler PC v15.12.1 Thu Oct 27 13:57:51 2016

Tools Copyright (c) 1996-2015 Texas Instruments Incorporated
Task_gyro.asm                                                        PAGE   21

    1101 00000008 9206              STR       A3, [SP, #24]         ; [DPU_3_PIPE] |526|  ; [ORIG 16-BIT INS]
    1102 0000000a 9105              STR       A2, [SP, #20]         ; [DPU_3_PIPE] |526|  ; [ORIG 16-BIT INS]
    1103 0000000c 9004              STR       A1, [SP, #16]         ; [DPU_3_PIPE] |526|  ; [ORIG 16-BIT INS]
    1104                            .dwpsn  file "C:/TI_CodeComposer/TivaWare/sensorlib/i2cm_drv.h",line 527,column 5,is_stmt,isa 
    1105 0000000e 980A              LDR       A1, [SP, #40]         ; [DPU_3_PIPE] |527|  ; [ORIG 16-BIT INS]
    1106 00000010 990A              LDR       A2, [SP, #40]         ; [DPU_3_PIPE] |527|  ; [ORIG 16-BIT INS]
    1107 00000012 407FF400          AND       A1, A1, #65280        ; [DPU_3_PIPE] |527|  ; [KEEP 32-BIT INS]
    1108 00000016 01FFF001          AND       A2, A2, #255          ; [DPU_3_PIPE] |527|  ; [KEEP 32-BIT INS]
    1109 0000001a 0A00              LSRS      A1, A1, #8            ; [DPU_3_PIPE] |527|  ; [ORIG 16-BIT INS]
    1110 0000001c 2001EA40          ORR       A1, A1, A2, LSL #8    ; [DPU_3_PIPE] |527|  ; [KEEP 32-BIT INS]
    1111 00000020 990B              LDR       A2, [SP, #44]         ; [DPU_3_PIPE] |527|  ; [ORIG 16-BIT INS]
    1112 00000022 9000              STR       A1, [SP, #0]          ; [DPU_3_PIPE] |527|  ; [ORIG 16-BIT INS]
    1113 00000024 980B              LDR       A1, [SP, #44]         ; [DPU_3_PIPE] |527|  ; [ORIG 16-BIT INS]
    1114 00000026 01FFF001          AND       A2, A2, #255          ; [DPU_3_PIPE] |527|  ; [KEEP 32-BIT INS]
    1115 0000002a 407FF400          AND       A1, A1, #65280        ; [DPU_3_PIPE] |527|  ; [KEEP 32-BIT INS]
    1116 0000002e 0A00              LSRS      A1, A1, #8            ; [DPU_3_PIPE] |527|  ; [ORIG 16-BIT INS]
    1117 00000030 2001EA40          ORR       A1, A1, A2, LSL #8    ; [DPU_3_PIPE] |527|  ; [KEEP 32-BIT INS]
    1118 00000034 9001              STR       A1, [SP, #4]          ; [DPU_3_PIPE] |527|  ; [ORIG 16-BIT INS]
    1119 00000036 980C              LDR       A1, [SP, #48]         ; [DPU_3_PIPE] |527|  ; [ORIG 16-BIT INS]
    1120 00000038 9002              STR       A1, [SP, #8]          ; [DPU_3_PIPE] |527|  ; [ORIG 16-BIT INS]
    1121 0000003a 980D              LDR       A1, [SP, #52]         ; [DPU_3_PIPE] |527|  ; [ORIG 16-BIT INS]
    1122 0000003c 9003              STR       A1, [SP, #12]         ; [DPU_3_PIPE] |527|  ; [ORIG 16-BIT INS]
    1123 0000003e 9A06              LDR       A3, [SP, #24]         ; [DPU_3_PIPE] |527|  ; [ORIG 16-BIT INS]
    1124 00000040 9B07              LDR       A4, [SP, #28]         ; [DPU_3_PIPE] |527|  ; [ORIG 16-BIT INS]
    1125 00000042 9905              LDR       A2, [SP, #20]         ; [DPU_3_PIPE] |527|  ; [ORIG 16-BIT INS]
    1126 00000044 9804              LDR       A1, [SP, #16]         ; [DPU_3_PIPE] |527|  ; [ORIG 16-BIT INS]
    1127                    $C$DW$133       .dwtag  DW_TAG_TI_branch
    1128                            .dwattr $C$DW$133, DW_AT_low_pc(0x00)
    1129                            .dwattr $C$DW$133, DW_AT_name("I2CMReadModifyWrite16LE")
    1130                            .dwattr $C$DW$133, DW_AT_TI_call
    1131                    
    1132 00000046 FFFEF7FF!         BL        I2CMReadModifyWrite16LE ; [DPU_3_PIPE] |527|  ; [KEEP 32-BIT INS]
    1133                            ; CALL OCCURS {I2CMReadModifyWrite16LE }  ; [] |527| 
    1134                            .dwpsn  file "C:/TI_CodeComposer/TivaWare/sensorlib/i2cm_drv.h",line 533,column 1,is_stmt,isa 
    1135 0000004a B009              ADD       SP, SP, #36           ; [DPU_3_PIPE]  ; [ORIG 16-BIT INS]
    1136                            .dwcfi  cfa_offset, 4
    1137                    $C$DW$134       .dwtag  DW_TAG_TI_branch
    1138                            .dwattr $C$DW$134, DW_AT_low_pc(0x00)
    1139                            .dwattr $C$DW$134, DW_AT_TI_return
    1140                    
    1141 0000004c BD00              POP       {PC}                  ; [DPU_3_PIPE]  ; [ORIG 16-BIT INS]
    1142                            .dwcfi  cfa_offset, 0
    1143                            ; BRANCH OCCURS                  ; [] 
    1144                            .dwattr $C$DW$120, DW_AT_TI_end_file("C:/TI_CodeComposer/TivaWare/sensorlib/i2cm_drv.h")
    1145                            .dwattr $C$DW$120, DW_AT_TI_end_line(0x215)
    1146                            .dwattr $C$DW$120, DW_AT_TI_end_column(0x01)
    1147                            .dwendentry
    1148                            .dwendtag $C$DW$120
    1149                    
    1150 00000000                   .sect   ".text"
    1151                            .clink
    1152                            .thumbfunc GyroInit
    1153 00000000                   .thumb
    1154                            .global GyroInit
    1155                    
TI ARM Assembler PC v15.12.1 Thu Oct 27 13:57:51 2016

Tools Copyright (c) 1996-2015 Texas Instruments Incorporated
Task_gyro.asm                                                        PAGE   22

    1156                    $C$DW$135       .dwtag  DW_TAG_subprogram
    1157                            .dwattr $C$DW$135, DW_AT_name("GyroInit")
    1158                            .dwattr $C$DW$135, DW_AT_low_pc(GyroInit)
    1159                            .dwattr $C$DW$135, DW_AT_high_pc(0x00)
    1160                            .dwattr $C$DW$135, DW_AT_TI_symbol_name("GyroInit")
    1161                            .dwattr $C$DW$135, DW_AT_external
    1162                            .dwattr $C$DW$135, DW_AT_TI_begin_file("../Tasks/Task_gyro.c")
    1163                            .dwattr $C$DW$135, DW_AT_TI_begin_line(0x31)
    1164                            .dwattr $C$DW$135, DW_AT_TI_begin_column(0x0d)
    1165                            .dwattr $C$DW$135, DW_AT_decl_file("../Tasks/Task_gyro.c")
    1166                            .dwattr $C$DW$135, DW_AT_decl_line(0x31)
    1167                            .dwattr $C$DW$135, DW_AT_decl_column(0x0d)
    1168                            .dwattr $C$DW$135, DW_AT_TI_max_frame_size(0x78)
    1169                            .dwpsn  file "../Tasks/Task_gyro.c",line 50,column 1,is_stmt,address GyroInit,isa 1
    1170                    
    1171                            .dwfde $C$DW$CIE, GyroInit
    1172                    
    1173                    ;*****************************************************************************
    1174                    ;* FUNCTION NAME: GyroInit                                                   *
    1175                    ;*                                                                           *
    1176                    ;*   Regs Modified     : A1,A2,A3,A4,V9,SP,LR,SR,D0,D0_hi,D1,D1_hi,D2,D2_hi, *
    1177                    ;*                           D3,D3_hi,D4,D4_hi,D5,D5_hi,D6,D6_hi,D7,D7_hi,   *
    1178                    ;*                           FPEXC,FPSCR                                     *
    1179                    ;*   Regs Used         : A1,A2,A3,A4,V9,SP,LR,SR,D0,D0_hi,D1,D1_hi,D2,D2_hi, *
    1180                    ;*                           D3,D3_hi,D4,D4_hi,D5,D5_hi,D6,D6_hi,D7,D7_hi,   *
    1181                    ;*                           FPEXC,FPSCR                                     *
    1182                    ;*   Local Frame Size  : 8 Args + 108 Auto + 4 Save = 120 byte               *
    1183                    ;*****************************************************************************
    1184 00000000           GyroInit:
    1185                    ;* --------------------------------------------------------------------------*
    1186                            .dwcfi  cfa_offset, 0
    1187 00000000 B500              PUSH      {LR}                  ; [DPU_3_PIPE]  ; [ORIG 16-BIT INS]
    1188                            .dwcfi  cfa_offset, 4
    1189                            .dwcfi  save_reg_to_mem, 14, -4
    1190 00000002 0D74F1AD          SUB       SP, SP, #116          ; [DPU_3_PIPE]  ; [KEEP 32-BIT INS]
    1191                            .dwcfi  cfa_offset, 120
    1192                            .dwpsn  file "../Tasks/Task_gyro.c",line 51,column 2,is_stmt,isa 1
    1193 00000006 484A              LDR       A1, $C$CON1           ; [DPU_3_PIPE] |51|  ; [ORIG 16-BIT INS]
    1194 00000008 7800              LDRB      A1, [A1, #0]          ; [DPU_3_PIPE] |51|  ; [ORIG 16-BIT INS]
    1195 0000000a BB28              CBNZ      A1, ||$C$L3||         ; []  ; [ORIG 16-BIT INS]
    1196                            ; BRANCHCC OCCURS {||$C$L3||}    ; [] |51| 
    1197                    ;* --------------------------------------------------------------------------*
    1198                    
    1199                    $C$DW$136       .dwtag  DW_TAG_lexical_block
    1200                            .dwattr $C$DW$136, DW_AT_low_pc(0x00)
    1201                            .dwattr $C$DW$136, DW_AT_high_pc(0x00)
    1202                    $C$DW$137       .dwtag  DW_TAG_variable
    1203                            .dwattr $C$DW$137, DW_AT_name("sMPU9150")
    1204                            .dwattr $C$DW$137, DW_AT_TI_symbol_name("sMPU9150")
    1205                            .dwattr $C$DW$137, DW_AT_type(*$C$DW$T$93)
    1206                            .dwattr $C$DW$137, DW_AT_location[DW_OP_breg13 8]
    1207                    
    1208                            .dwpsn  file "../Tasks/Task_gyro.c",line 55,column 4,is_stmt,isa 1
    1209                    $C$DW$138       .dwtag  DW_TAG_TI_branch
    1210                            .dwattr $C$DW$138, DW_AT_low_pc(0x00)
TI ARM Assembler PC v15.12.1 Thu Oct 27 13:57:51 2016

Tools Copyright (c) 1996-2015 Texas Instruments Incorporated
Task_gyro.asm                                                        PAGE   23

    1211                            .dwattr $C$DW$138, DW_AT_name("I2C7_Initialization")
    1212                            .dwattr $C$DW$138, DW_AT_TI_call
    1213                    
    1214 0000000c FFFEF7FF!         BL        I2C7_Initialization   ; [DPU_3_PIPE] |55|  ; [KEEP 32-BIT INS]
    1215                            ; CALL OCCURS {I2C7_Initialization }  ; [] |55| 
    1216                            .dwpsn  file "../Tasks/Task_gyro.c",line 60,column 4,is_stmt,isa 1
    1217                    $C$DW$139       .dwtag  DW_TAG_TI_branch
    1218                            .dwattr $C$DW$139, DW_AT_low_pc(0x00)
    1219                            .dwattr $C$DW$139, DW_AT_name("UART_Initialization")
    1220                            .dwattr $C$DW$139, DW_AT_TI_call
    1221                    
    1222 00000010 FFFEF7FF!         BL        UART_Initialization   ; [DPU_3_PIPE] |60|  ; [KEEP 32-BIT INS]
    1223                            ; CALL OCCURS {UART_Initialization }  ; [] |60| 
    1224                            .dwpsn  file "../Tasks/Task_gyro.c",line 66,column 4,is_stmt,isa 1
    1225 00000014 4947              LDR       A2, $C$CON2           ; [DPU_3_PIPE] |66|  ; [ORIG 16-BIT INS]
    1226 00000016 2000              MOVS      A1, #0                ; [DPU_3_PIPE] |66|  ; [ORIG 16-BIT INS]
    1227 00000018 7008              STRB      A1, [A2, #0]          ; [DPU_3_PIPE] |66|  ; [ORIG 16-BIT INS]
    1228                            .dwpsn  file "../Tasks/Task_gyro.c",line 67,column 4,is_stmt,isa 1
    1229 0000001a 2100              MOVS      A2, #0                ; [DPU_3_PIPE] |67|  ; [ORIG 16-BIT INS]
    1230 0000001c 4846              LDR       A1, $C$CON3           ; [DPU_3_PIPE] |67|  ; [ORIG 16-BIT INS]
    1231 0000001e 4B47              LDR       A4, $C$CON4           ; [DPU_3_PIPE] |67|  ; [ORIG 16-BIT INS]
    1232 00000020 9100              STR       A2, [SP, #0]          ; [DPU_3_PIPE] |67|  ; [ORIG 16-BIT INS]
    1233 00000022 6801              LDR       A2, [A1, #0]          ; [DPU_3_PIPE] |67|  ; [ORIG 16-BIT INS]
    1234 00000024 2268              MOVS      A3, #104              ; [DPU_3_PIPE] |67|  ; [ORIG 16-BIT INS]
    1235 00000026 A802              ADD       A1, SP, #8            ; [DPU_3_PIPE] |67|  ; [ORIG 16-BIT INS]
    1236                    $C$DW$140       .dwtag  DW_TAG_TI_branch
    1237                            .dwattr $C$DW$140, DW_AT_low_pc(0x00)
    1238                            .dwattr $C$DW$140, DW_AT_name("MPU9150Init")
    1239                            .dwattr $C$DW$140, DW_AT_TI_call
    1240                    
    1241 00000028 FFFEF7FF!         BL        MPU9150Init           ; [DPU_3_PIPE] |67|  ; [KEEP 32-BIT INS]
    1242                            ; CALL OCCURS {MPU9150Init }     ; [] |67| 
    1243                            .dwpsn  file "../Tasks/Task_gyro.c",line 72,column 4,is_stmt,isa 1
    1244                    ;* --------------------------------------------------------------------------*
    1245                    ;*   BEGIN LOOP ||$C$L1||
    1246                    ;*
    1247                    ;*   Loop source line                : 72
    1248                    ;*   Loop closing brace source line  : 74
    1249                    ;*   Known Minimum Trip Count        : 1
    1250                    ;*   Known Maximum Trip Count        : 4294967295
    1251                    ;*   Known Max Trip Count Factor     : 1
    1252                    ;* --------------------------------------------------------------------------*
    1253 0000002c           ||$C$L1||:    
    1254                            .dwpsn  file "../Tasks/Task_gyro.c",line 72,column 10,is_stmt,isa 1
    1255 0000002c 4841              LDR       A1, $C$CON2           ; [DPU_3_PIPE] |72|  ; [ORIG 16-BIT INS]
    1256 0000002e 7800              LDRB      A1, [A1, #0]          ; [DPU_3_PIPE] |72|  ; [ORIG 16-BIT INS]
    1257 00000030 2800              CMP       A1, #0                ; [DPU_3_PIPE] |72|  ; [ORIG 16-BIT INS]
    1258 00000032 D0FB              BEQ       ||$C$L1||             ; [DPU_3_PIPE] |72|  ; [ORIG 16-BIT INS]
    1259                            ; BRANCHCC OCCURS {||$C$L1||}    ; [] |72| 
    1260                    ;* --------------------------------------------------------------------------*
    1261                            .dwpsn  file "../Tasks/Task_gyro.c",line 75,column 4,is_stmt,isa 1
    1262 00000034 493F              LDR       A2, $C$CON2           ; [DPU_3_PIPE] |75|  ; [ORIG 16-BIT INS]
    1263 00000036 2000              MOVS      A1, #0                ; [DPU_3_PIPE] |75|  ; [ORIG 16-BIT INS]
    1264 00000038 7008              STRB      A1, [A2, #0]          ; [DPU_3_PIPE] |75|  ; [ORIG 16-BIT INS]
    1265                            .dwpsn  file "../Tasks/Task_gyro.c",line 80,column 4,is_stmt,isa 1
TI ARM Assembler PC v15.12.1 Thu Oct 27 13:57:51 2016

Tools Copyright (c) 1996-2015 Texas Instruments Incorporated
Task_gyro.asm                                                        PAGE   24

    1266 0000003a 4840              LDR       A1, $C$CON4           ; [DPU_3_PIPE] |80|  ; [ORIG 16-BIT INS]
    1267 0000003c 0218F06F          MVN       A3, #24               ; [DPU_3_PIPE] |80|  ; [KEEP 32-BIT INS]
    1268 00000040 2308              MOVS      A4, #8                ; [DPU_3_PIPE] |80|  ; [ORIG 16-BIT INS]
    1269 00000042 9000              STR       A1, [SP, #0]          ; [DPU_3_PIPE] |80|  ; [ORIG 16-BIT INS]
    1270 00000044 211C              MOVS      A2, #28               ; [DPU_3_PIPE] |80|  ; [ORIG 16-BIT INS]
    1271 00000046 2000              MOVS      A1, #0                ; [DPU_3_PIPE] |80|  ; [ORIG 16-BIT INS]
    1272 00000048 9001              STR       A1, [SP, #4]          ; [DPU_3_PIPE] |80|  ; [ORIG 16-BIT INS]
    1273 0000004a A802              ADD       A1, SP, #8            ; [DPU_3_PIPE] |80|  ; [ORIG 16-BIT INS]
    1274                    $C$DW$141       .dwtag  DW_TAG_TI_branch
    1275                            .dwattr $C$DW$141, DW_AT_low_pc(0x00)
    1276                            .dwattr $C$DW$141, DW_AT_name("MPU9150ReadModifyWrite")
    1277                            .dwattr $C$DW$141, DW_AT_TI_call
    1278                    
    1279 0000004c FFFEF7FF!         BL        MPU9150ReadModifyWrite ; [DPU_3_PIPE] |80|  ; [KEEP 32-BIT INS]
    1280                            ; CALL OCCURS {MPU9150ReadModifyWrite }  ; [] |80| 
    1281                            .dwpsn  file "../Tasks/Task_gyro.c",line 85,column 4,is_stmt,isa 1
    1282                    ;* --------------------------------------------------------------------------*
    1283                    ;*   BEGIN LOOP ||$C$L2||
    1284                    ;*
    1285                    ;*   Loop source line                : 85
    1286                    ;*   Loop closing brace source line  : 87
    1287                    ;*   Known Minimum Trip Count        : 1
    1288                    ;*   Known Maximum Trip Count        : 4294967295
    1289                    ;*   Known Max Trip Count Factor     : 1
    1290                    ;* --------------------------------------------------------------------------*
    1291 00000050           ||$C$L2||:    
    1292                            .dwpsn  file "../Tasks/Task_gyro.c",line 85,column 10,is_stmt,isa 1
    1293 00000050 4838              LDR       A1, $C$CON2           ; [DPU_3_PIPE] |85|  ; [ORIG 16-BIT INS]
    1294 00000052 7800              LDRB      A1, [A1, #0]          ; [DPU_3_PIPE] |85|  ; [ORIG 16-BIT INS]
    1295 00000054 2800              CMP       A1, #0                ; [DPU_3_PIPE] |85|  ; [ORIG 16-BIT INS]
    1296 00000056 D0FB              BEQ       ||$C$L2||             ; [DPU_3_PIPE] |85|  ; [ORIG 16-BIT INS]
    1297                            ; BRANCHCC OCCURS {||$C$L2||}    ; [] |85| 
    1298                    ;* --------------------------------------------------------------------------*
    1299                            .dwendtag $C$DW$136
    1300                    
    1301                            .dwpsn  file "../Tasks/Task_gyro.c",line 89,column 1,is_stmt,isa 1
    1302                    ;* --------------------------------------------------------------------------*
    1303 00000058           ||$C$L3||:    
    1304 00000058 B01D              ADD       SP, SP, #116          ; [DPU_3_PIPE]  ; [ORIG 16-BIT INS]
    1305                            .dwcfi  cfa_offset, 4
    1306                    $C$DW$142       .dwtag  DW_TAG_TI_branch
    1307                            .dwattr $C$DW$142, DW_AT_low_pc(0x00)
    1308                            .dwattr $C$DW$142, DW_AT_TI_return
    1309                    
    1310 0000005a BD00              POP       {PC}                  ; [DPU_3_PIPE]  ; [ORIG 16-BIT INS]
    1311                            .dwcfi  cfa_offset, 0
    1312                            ; BRANCH OCCURS                  ; [] 
    1313                            .dwattr $C$DW$135, DW_AT_TI_end_file("../Tasks/Task_gyro.c")
    1314                            .dwattr $C$DW$135, DW_AT_TI_end_line(0x59)
    1315                            .dwattr $C$DW$135, DW_AT_TI_end_column(0x01)
    1316                            .dwendentry
    1317                            .dwendtag $C$DW$135
    1318                    
    1319 0000005c                   .sect   ".text"
    1320                            .clink
TI ARM Assembler PC v15.12.1 Thu Oct 27 13:57:51 2016

Tools Copyright (c) 1996-2015 Texas Instruments Incorporated
Task_gyro.asm                                                        PAGE   25

    1321                            .thumbfunc MPU9150Callback
    1322 0000005c                   .thumb
    1323                            .global MPU9150Callback
    1324                    
    1325                    $C$DW$143       .dwtag  DW_TAG_subprogram
    1326                            .dwattr $C$DW$143, DW_AT_name("MPU9150Callback")
    1327                            .dwattr $C$DW$143, DW_AT_low_pc(MPU9150Callback)
    1328                            .dwattr $C$DW$143, DW_AT_high_pc(0x00)
    1329                            .dwattr $C$DW$143, DW_AT_TI_symbol_name("MPU9150Callback")
    1330                            .dwattr $C$DW$143, DW_AT_external
    1331                            .dwattr $C$DW$143, DW_AT_TI_begin_file("../Tasks/Task_gyro.c")
    1332                            .dwattr $C$DW$143, DW_AT_TI_begin_line(0x5b)
    1333                            .dwattr $C$DW$143, DW_AT_TI_begin_column(0x06)
    1334                            .dwattr $C$DW$143, DW_AT_decl_file("../Tasks/Task_gyro.c")
    1335                            .dwattr $C$DW$143, DW_AT_decl_line(0x5b)
    1336                            .dwattr $C$DW$143, DW_AT_decl_column(0x06)
    1337                            .dwattr $C$DW$143, DW_AT_TI_max_frame_size(0x08)
    1338                            .dwpsn  file "../Tasks/Task_gyro.c",line 92,column 1,is_stmt,address MPU9150Callback,isa 1
    1339                    
    1340                            .dwfde $C$DW$CIE, MPU9150Callback
    1341                    $C$DW$144       .dwtag  DW_TAG_formal_parameter
    1342                            .dwattr $C$DW$144, DW_AT_name("pvCallbackData")
    1343                            .dwattr $C$DW$144, DW_AT_TI_symbol_name("pvCallbackData")
    1344                            .dwattr $C$DW$144, DW_AT_type(*$C$DW$T$3)
    1345                            .dwattr $C$DW$144, DW_AT_location[DW_OP_reg0]
    1346                    
    1347                    $C$DW$145       .dwtag  DW_TAG_formal_parameter
    1348                            .dwattr $C$DW$145, DW_AT_name("ui8Status")
    1349                            .dwattr $C$DW$145, DW_AT_TI_symbol_name("ui8Status")
    1350                            .dwattr $C$DW$145, DW_AT_type(*$C$DW$T$25)
    1351                            .dwattr $C$DW$145, DW_AT_location[DW_OP_reg1]
    1352                    
    1353                    
    1354                    ;*****************************************************************************
    1355                    ;* FUNCTION NAME: MPU9150Callback                                            *
    1356                    ;*                                                                           *
    1357                    ;*   Regs Modified     : A1,A2,SP,SR                                         *
    1358                    ;*   Regs Used         : A1,A2,SP,LR,SR                                      *
    1359                    ;*   Local Frame Size  : 0 Args + 8 Auto + 0 Save = 8 byte                   *
    1360                    ;*****************************************************************************
    1361 0000005c           MPU9150Callback:
    1362                    ;* --------------------------------------------------------------------------*
    1363                            .dwcfi  cfa_offset, 0
    1364 0000005c 0D08F1AD          SUB       SP, SP, #8            ; [DPU_3_PIPE]  ; [KEEP 32-BIT INS]
    1365                            .dwcfi  cfa_offset, 8
    1366                    $C$DW$146       .dwtag  DW_TAG_variable
    1367                            .dwattr $C$DW$146, DW_AT_name("pvCallbackData")
    1368                            .dwattr $C$DW$146, DW_AT_TI_symbol_name("pvCallbackData")
    1369                            .dwattr $C$DW$146, DW_AT_type(*$C$DW$T$3)
    1370                            .dwattr $C$DW$146, DW_AT_location[DW_OP_breg13 0]
    1371                    
    1372                    $C$DW$147       .dwtag  DW_TAG_variable
    1373                            .dwattr $C$DW$147, DW_AT_name("ui8Status")
    1374                            .dwattr $C$DW$147, DW_AT_TI_symbol_name("ui8Status")
    1375                            .dwattr $C$DW$147, DW_AT_type(*$C$DW$T$25)
TI ARM Assembler PC v15.12.1 Thu Oct 27 13:57:51 2016

Tools Copyright (c) 1996-2015 Texas Instruments Incorporated
Task_gyro.asm                                                        PAGE   26

    1376                            .dwattr $C$DW$147, DW_AT_location[DW_OP_breg13 4]
    1377                    
    1378 00000060 9101              STR       A2, [SP, #4]          ; [DPU_3_PIPE] |92|  ; [ORIG 16-BIT INS]
    1379 00000062 9000              STR       A1, [SP, #0]          ; [DPU_3_PIPE] |92|  ; [ORIG 16-BIT INS]
    1380                            .dwpsn  file "../Tasks/Task_gyro.c",line 96,column 2,is_stmt,isa 1
    1381                            .dwpsn  file "../Tasks/Task_gyro.c",line 106,column 2,is_stmt,isa 1
    1382 00000064 4933              LDR       A2, $C$CON2           ; [DPU_3_PIPE] |106|  ; [ORIG 16-BIT INS]
    1383 00000066 2001              MOVS      A1, #1                ; [DPU_3_PIPE] |106|  ; [ORIG 16-BIT INS]
    1384 00000068 7008              STRB      A1, [A2, #0]          ; [DPU_3_PIPE] |106|  ; [ORIG 16-BIT INS]
    1385                            .dwpsn  file "../Tasks/Task_gyro.c",line 107,column 1,is_stmt,isa 1
    1386 0000006a B002              ADD       SP, SP, #8            ; [DPU_3_PIPE]  ; [ORIG 16-BIT INS]
    1387                            .dwcfi  cfa_offset, 0
    1388                    $C$DW$148       .dwtag  DW_TAG_TI_branch
    1389                            .dwattr $C$DW$148, DW_AT_low_pc(0x00)
    1390                            .dwattr $C$DW$148, DW_AT_TI_return
    1391                    
    1392 0000006c 4770              BX        LR                    ; [DPU_3_PIPE]  ; [ORIG 16-BIT INS]
    1393                            ; BRANCH OCCURS                  ; [] 
    1394                            .dwattr $C$DW$143, DW_AT_TI_end_file("../Tasks/Task_gyro.c")
    1395                            .dwattr $C$DW$143, DW_AT_TI_end_line(0x6b)
    1396                            .dwattr $C$DW$143, DW_AT_TI_end_column(0x01)
    1397                            .dwendentry
    1398                            .dwendtag $C$DW$143
    1399                    
    1400 0000006e                   .sect   ".text"
    1401                            .clink
    1402                            .thumbfunc Task_gyro
    1403 0000006e                   .thumb
    1404                            .global Task_gyro
    1405                    
    1406                    $C$DW$149       .dwtag  DW_TAG_subprogram
    1407                            .dwattr $C$DW$149, DW_AT_name("Task_gyro")
    1408                            .dwattr $C$DW$149, DW_AT_low_pc(Task_gyro)
    1409                            .dwattr $C$DW$149, DW_AT_high_pc(0x00)
    1410                            .dwattr $C$DW$149, DW_AT_TI_symbol_name("Task_gyro")
    1411                            .dwattr $C$DW$149, DW_AT_external
    1412                            .dwattr $C$DW$149, DW_AT_TI_begin_file("../Tasks/Task_gyro.c")
    1413                            .dwattr $C$DW$149, DW_AT_TI_begin_line(0x6e)
    1414                            .dwattr $C$DW$149, DW_AT_TI_begin_column(0x06)
    1415                            .dwattr $C$DW$149, DW_AT_decl_file("../Tasks/Task_gyro.c")
    1416                            .dwattr $C$DW$149, DW_AT_decl_line(0x6e)
    1417                            .dwattr $C$DW$149, DW_AT_decl_column(0x06)
    1418                            .dwattr $C$DW$149, DW_AT_TI_max_frame_size(0x30)
    1419                            .dwpsn  file "../Tasks/Task_gyro.c",line 111,column 1,is_stmt,address Task_gyro,isa 1
    1420                    
    1421                            .dwfde $C$DW$CIE, Task_gyro
    1422                    $C$DW$150       .dwtag  DW_TAG_formal_parameter
    1423                            .dwattr $C$DW$150, DW_AT_name("pvParameters")
    1424                            .dwattr $C$DW$150, DW_AT_TI_symbol_name("pvParameters")
    1425                            .dwattr $C$DW$150, DW_AT_type(*$C$DW$T$3)
    1426                            .dwattr $C$DW$150, DW_AT_location[DW_OP_reg0]
    1427                    
    1428                    
    1429                    ;*****************************************************************************
    1430                    ;* FUNCTION NAME: Task_gyro                                                  *
TI ARM Assembler PC v15.12.1 Thu Oct 27 13:57:51 2016

Tools Copyright (c) 1996-2015 Texas Instruments Incorporated
Task_gyro.asm                                                        PAGE   27

    1431                    ;*                                                                           *
    1432                    ;*   Regs Modified     : A1,A2,A3,A4,V9,SP,LR,SR,D0,D0_hi,D1,D1_hi,D2,D2_hi, *
    1433                    ;*                           D3,D3_hi,D4,D4_hi,D5,D5_hi,D6,D6_hi,D7,D7_hi,   *
    1434                    ;*                           FPEXC,FPSCR                                     *
    1435                    ;*   Regs Used         : A1,A2,A3,A4,V9,SP,LR,SR,D0,D0_hi,D1,D1_hi,D2,D2_hi, *
    1436                    ;*                           D3,D3_hi,D4,D4_hi,D5,D5_hi,D6,D6_hi,D7,D7_hi,   *
    1437                    ;*                           FPEXC,FPSCR                                     *
    1438                    ;*   Local Frame Size  : 0 Args + 40 Auto + 4 Save = 44 byte                 *
    1439                    ;*****************************************************************************
    1440 0000006e           Task_gyro:
    1441                    ;* --------------------------------------------------------------------------*
    1442                            .dwcfi  cfa_offset, 0
    1443 0000006e B500              PUSH      {LR}                  ; [DPU_3_PIPE]  ; [ORIG 16-BIT INS]
    1444                            .dwcfi  cfa_offset, 4
    1445                            .dwcfi  save_reg_to_mem, 14, -4
    1446 00000070 0D2CF1AD          SUB       SP, SP, #44           ; [DPU_3_PIPE]  ; [KEEP 32-BIT INS]
    1447                            .dwcfi  cfa_offset, 48
    1448                    $C$DW$151       .dwtag  DW_TAG_variable
    1449                            .dwattr $C$DW$151, DW_AT_name("pvParameters")
    1450                            .dwattr $C$DW$151, DW_AT_TI_symbol_name("pvParameters")
    1451                            .dwattr $C$DW$151, DW_AT_type(*$C$DW$T$3)
    1452                            .dwattr $C$DW$151, DW_AT_location[DW_OP_breg13 0]
    1453                    
    1454                    $C$DW$152       .dwtag  DW_TAG_variable
    1455                            .dwattr $C$DW$152, DW_AT_name("GyroReport")
    1456                            .dwattr $C$DW$152, DW_AT_TI_symbol_name("GyroReport")
    1457                            .dwattr $C$DW$152, DW_AT_type(*$C$DW$T$99)
    1458                            .dwattr $C$DW$152, DW_AT_location[DW_OP_breg13 4]
    1459                    
    1460                    $C$DW$153       .dwtag  DW_TAG_variable
    1461                            .dwattr $C$DW$153, DW_AT_name("fGyro")
    1462                            .dwattr $C$DW$153, DW_AT_TI_symbol_name("fGyro")
    1463                            .dwattr $C$DW$153, DW_AT_type(*$C$DW$T$171)
    1464                            .dwattr $C$DW$153, DW_AT_location[DW_OP_breg13 28]
    1465                    
    1466 00000074 9000              STR       A1, [SP, #0]          ; [DPU_3_PIPE] |111|  ; [ORIG 16-BIT INS]
    1467                            .dwpsn  file "../Tasks/Task_gyro.c",line 120,column 2,is_stmt,isa 1
    1468 00000076 60FAF44F          MOV       A1, #2000             ; [DPU_3_PIPE] |120|  ; [KEEP 32-BIT INS]
    1469                    $C$DW$154       .dwtag  DW_TAG_TI_branch
    1470                            .dwattr $C$DW$154, DW_AT_low_pc(0x00)
    1471                            .dwattr $C$DW$154, DW_AT_name("vTaskDelay")
    1472                            .dwattr $C$DW$154, DW_AT_TI_call
    1473                    
    1474 0000007a FFFEF7FF!         BL        vTaskDelay            ; [DPU_3_PIPE] |120|  ; [KEEP 32-BIT INS]
    1475                            ; CALL OCCURS {vTaskDelay }      ; [] |120| 
    1476                            .dwpsn  file "../Tasks/Task_gyro.c",line 129,column 8,is_stmt,isa 1
    1477                    ;* --------------------------------------------------------------------------*
    1478                    ;*   BEGIN LOOP ||$C$L4||
    1479                    ;*
    1480                    ;*   Loop source line                : 129
    1481                    ;*   Loop closing brace source line  : 168
    1482                    ;*   Known Minimum Trip Count        : 1
    1483                    ;*   Known Maximum Trip Count        : 4294967295
    1484                    ;*   Known Max Trip Count Factor     : 1
    1485                    ;* --------------------------------------------------------------------------*
TI ARM Assembler PC v15.12.1 Thu Oct 27 13:57:51 2016

Tools Copyright (c) 1996-2015 Texas Instruments Incorporated
Task_gyro.asm                                                        PAGE   28

    1486 0000007e           ||$C$L4||:    
    1487                            .dwpsn  file "../Tasks/Task_gyro.c",line 131,column 3,is_stmt,isa 1
    1488 0000007e 492D              LDR       A2, $C$CON2           ; [DPU_3_PIPE] |131|  ; [ORIG 16-BIT INS]
    1489 00000080 2000              MOVS      A1, #0                ; [DPU_3_PIPE] |131|  ; [ORIG 16-BIT INS]
    1490 00000082 7008              STRB      A1, [A2, #0]          ; [DPU_3_PIPE] |131|  ; [ORIG 16-BIT INS]
    1491                            .dwpsn  file "../Tasks/Task_gyro.c",line 136,column 3,is_stmt,isa 1
    1492 00000084 482E              LDR       A1, $C$CON5           ; [DPU_3_PIPE] |136|  ; [ORIG 16-BIT INS]
    1493 00000086 492D              LDR       A2, $C$CON4           ; [DPU_3_PIPE] |136|  ; [ORIG 16-BIT INS]
    1494 00000088 2200              MOVS      A3, #0                ; [DPU_3_PIPE] |136|  ; [ORIG 16-BIT INS]
    1495                    $C$DW$155       .dwtag  DW_TAG_TI_branch
    1496                            .dwattr $C$DW$155, DW_AT_low_pc(0x00)
    1497                            .dwattr $C$DW$155, DW_AT_name("MPU9150DataRead")
    1498                            .dwattr $C$DW$155, DW_AT_TI_call
    1499                    
    1500 0000008a FFFEF7FF!         BL        MPU9150DataRead       ; [DPU_3_PIPE] |136|  ; [KEEP 32-BIT INS]
    1501                            ; CALL OCCURS {MPU9150DataRead }  ; [] |136| 
    1502                            .dwpsn  file "../Tasks/Task_gyro.c",line 137,column 3,is_stmt,isa 1
    1503                    ;* --------------------------------------------------------------------------*
    1504                    ;*   BEGIN LOOP ||$C$L5||
    1505                    ;*
    1506                    ;*   Loop source line                : 137
    1507                    ;*   Loop closing brace source line  : 139
    1508                    ;*   Known Minimum Trip Count        : 1
    1509                    ;*   Known Maximum Trip Count        : 4294967295
    1510                    ;*   Known Max Trip Count Factor     : 1
    1511                    ;* --------------------------------------------------------------------------*
    1512 0000008e           ||$C$L5||:    
    1513                            .dwpsn  file "../Tasks/Task_gyro.c",line 137,column 9,is_stmt,isa 1
    1514 0000008e 4829              LDR       A1, $C$CON2           ; [DPU_3_PIPE] |137|  ; [ORIG 16-BIT INS]
    1515 00000090 7800              LDRB      A1, [A1, #0]          ; [DPU_3_PIPE] |137|  ; [ORIG 16-BIT INS]
    1516 00000092 2800              CMP       A1, #0                ; [DPU_3_PIPE] |137|  ; [ORIG 16-BIT INS]
    1517 00000094 D0FB              BEQ       ||$C$L5||             ; [DPU_3_PIPE] |137|  ; [ORIG 16-BIT INS]
    1518                            ; BRANCHCC OCCURS {||$C$L5||}    ; [] |137| 
    1519                    ;* --------------------------------------------------------------------------*
    1520                            .dwpsn  file "../Tasks/Task_gyro.c",line 144,column 3,is_stmt,isa 1
    1521 00000096 482A              LDR       A1, $C$CON5           ; [DPU_3_PIPE] |144|  ; [ORIG 16-BIT INS]
    1522 00000098 A907              ADD       A2, SP, #28           ; [DPU_3_PIPE] |144|  ; [ORIG 16-BIT INS]
    1523 0000009a AA08              ADD       A3, SP, #32           ; [DPU_3_PIPE] |144|  ; [ORIG 16-BIT INS]
    1524 0000009c AB09              ADD       A4, SP, #36           ; [DPU_3_PIPE] |144|  ; [ORIG 16-BIT INS]
    1525                    $C$DW$156       .dwtag  DW_TAG_TI_branch
    1526                            .dwattr $C$DW$156, DW_AT_low_pc(0x00)
    1527                            .dwattr $C$DW$156, DW_AT_name("MPU9150DataGyroGetFloat")
    1528                            .dwattr $C$DW$156, DW_AT_TI_call
    1529                    
    1530 0000009e FFFEF7FF!         BL        MPU9150DataGyroGetFloat ; [DPU_3_PIPE] |144|  ; [KEEP 32-BIT INS]
    1531                            ; CALL OCCURS {MPU9150DataGyroGetFloat }  ; [] |144| 
    1532                            .dwpsn  file "../Tasks/Task_gyro.c",line 149,column 3,is_stmt,isa 1
    1533 000000a2 A907              ADD       A2, SP, #28           ; [DPU_3_PIPE] |149|  ; [ORIG 16-BIT INS]
    1534 000000a4 0A00ED91          VLDR.32   S0, [A2, #0]          ; [DPU_LIN_PIPE] |149|  ; [KEEP 32-BIT INS]
    1535 000000a8 4820              LDR       A1, $C$FL1            ; [DPU_3_PIPE] |149|  ; [ORIG 16-BIT INS]
    1536 000000aa 0A90EE00          VMOV      S1, A1                ; [DPU_LIN_PIPE] |149|  ; [KEEP 32-BIT INS]
    1537 000000ae 0A80EE20          VMUL.F32  S0, S1, S0            ; [DPU_LIN_PIPE] |149|  ; [KEEP 32-BIT INS]
    1538 000000b2 0A00ED81          VSTR.32   S0, [A2, #0]          ; [DPU_LIN_PIPE] |149|  ; [KEEP 32-BIT INS]
    1539                            .dwpsn  file "../Tasks/Task_gyro.c",line 150,column 3,is_stmt,isa 1
    1540 000000b6 0A08ED9D          VLDR.32   S0, [SP, #32]         ; [DPU_LIN_PIPE] |150|  ; [KEEP 32-BIT INS]
TI ARM Assembler PC v15.12.1 Thu Oct 27 13:57:51 2016

Tools Copyright (c) 1996-2015 Texas Instruments Incorporated
Task_gyro.asm                                                        PAGE   29

    1541 000000ba 481C              LDR       A1, $C$FL1            ; [DPU_3_PIPE] |150|  ; [ORIG 16-BIT INS]
    1542 000000bc 0A90EE00          VMOV      S1, A1                ; [DPU_LIN_PIPE] |150|  ; [KEEP 32-BIT INS]
    1543 000000c0 0A80EE20          VMUL.F32  S0, S1, S0            ; [DPU_LIN_PIPE] |150|  ; [KEEP 32-BIT INS]
    1544 000000c4 0A08ED8D          VSTR.32   S0, [SP, #32]         ; [DPU_LIN_PIPE] |150|  ; [KEEP 32-BIT INS]
    1545                            .dwpsn  file "../Tasks/Task_gyro.c",line 151,column 3,is_stmt,isa 1
    1546 000000c8 0A09ED9D          VLDR.32   S0, [SP, #36]         ; [DPU_LIN_PIPE] |151|  ; [KEEP 32-BIT INS]
    1547 000000cc 4817              LDR       A1, $C$FL1            ; [DPU_3_PIPE] |151|  ; [ORIG 16-BIT INS]
    1548 000000ce 0A90EE00          VMOV      S1, A1                ; [DPU_LIN_PIPE] |151|  ; [KEEP 32-BIT INS]
    1549 000000d2 0A80EE20          VMUL.F32  S0, S1, S0            ; [DPU_LIN_PIPE] |151|  ; [KEEP 32-BIT INS]
    1550 000000d6 0A09ED8D          VSTR.32   S0, [SP, #36]         ; [DPU_LIN_PIPE] |151|  ; [KEEP 32-BIT INS]
    1551                            .dwpsn  file "../Tasks/Task_gyro.c",line 157,column 3,is_stmt,isa 1
    1552 000000da 481A              LDR       A1, $C$CON6           ; [DPU_3_PIPE] |157|  ; [ORIG 16-BIT INS]
    1553 000000dc 6800              LDR       A1, [A1, #0]          ; [DPU_3_PIPE] |157|  ; [ORIG 16-BIT INS]
    1554 000000de 9001              STR       A1, [SP, #4]          ; [DPU_3_PIPE] |157|  ; [ORIG 16-BIT INS]
    1555                            .dwpsn  file "../Tasks/Task_gyro.c",line 158,column 3,is_stmt,isa 1
    1556 000000e0 2001              MOVS      A1, #1                ; [DPU_3_PIPE] |158|  ; [ORIG 16-BIT INS]
    1557 000000e2 9002              STR       A1, [SP, #8]          ; [DPU_3_PIPE] |158|  ; [ORIG 16-BIT INS]
    1558                            .dwpsn  file "../Tasks/Task_gyro.c",line 159,column 3,is_stmt,isa 1
    1559 000000e4 0A07ED9D          VLDR.32   S0, [SP, #28]         ; [DPU_LIN_PIPE] |159|  ; [KEEP 32-BIT INS]
    1560 000000e8 0AC0EEBC          VCVT.U32.F32 S0, S0             ; [DPU_LIN_PIPE] |159|  ; [KEEP 32-BIT INS]
    1561 000000ec 0A10EE10          VMOV      A1, S0                ; [DPU_LIN_PIPE] |159|  ; [KEEP 32-BIT INS]
    1562 000000f0 9003              STR       A1, [SP, #12]         ; [DPU_3_PIPE] |159|  ; [ORIG 16-BIT INS]
    1563                            .dwpsn  file "../Tasks/Task_gyro.c",line 160,column 3,is_stmt,isa 1
    1564 000000f2 0A08ED9D          VLDR.32   S0, [SP, #32]         ; [DPU_LIN_PIPE] |160|  ; [KEEP 32-BIT INS]
    1565 000000f6 0AC0EEBC          VCVT.U32.F32 S0, S0             ; [DPU_LIN_PIPE] |160|  ; [KEEP 32-BIT INS]
    1566 000000fa 0A10EE10          VMOV      A1, S0                ; [DPU_LIN_PIPE] |160|  ; [KEEP 32-BIT INS]
    1567 000000fe 9004              STR       A1, [SP, #16]         ; [DPU_3_PIPE] |160|  ; [ORIG 16-BIT INS]
    1568                            .dwpsn  file "../Tasks/Task_gyro.c",line 161,column 3,is_stmt,isa 1
    1569 00000100 0A09ED9D          VLDR.32   S0, [SP, #36]         ; [DPU_LIN_PIPE] |161|  ; [KEEP 32-BIT INS]
    1570 00000104 0AC0EEBC          VCVT.U32.F32 S0, S0             ; [DPU_LIN_PIPE] |161|  ; [KEEP 32-BIT INS]
    1571 00000108 0A10EE10          VMOV      A1, S0                ; [DPU_LIN_PIPE] |161|  ; [KEEP 32-BIT INS]
    1572 0000010c 9005              STR       A1, [SP, #20]         ; [DPU_3_PIPE] |161|  ; [ORIG 16-BIT INS]
    1573                            .dwpsn  file "../Tasks/Task_gyro.c",line 162,column 3,is_stmt,isa 1
    1574 0000010e 2000              MOVS      A1, #0                ; [DPU_3_PIPE] |162|  ; [ORIG 16-BIT INS]
    1575 00000110 9006              STR       A1, [SP, #24]         ; [DPU_3_PIPE] |162|  ; [ORIG 16-BIT INS]
    1576                            .dwpsn  file "../Tasks/Task_gyro.c",line 164,column 3,is_stmt,isa 1
    1577 00000112 480D              LDR       A1, $C$CON7           ; [DPU_3_PIPE] |164|  ; [ORIG 16-BIT INS]
    1578 00000114 6800              LDR       A1, [A1, #0]          ; [DPU_3_PIPE] |164|  ; [ORIG 16-BIT INS]
    1579 00000116 2200              MOVS      A3, #0                ; [DPU_3_PIPE] |164|  ; [ORIG 16-BIT INS]
    1580 00000118 2300              MOVS      A4, #0                ; [DPU_3_PIPE] |164|  ; [ORIG 16-BIT INS]
    1581 0000011a A901              ADD       A2, SP, #4            ; [DPU_3_PIPE] |164|  ; [ORIG 16-BIT INS]
    1582                    $C$DW$157       .dwtag  DW_TAG_TI_branch
    1583                            .dwattr $C$DW$157, DW_AT_low_pc(0x00)
    1584                            .dwattr $C$DW$157, DW_AT_name("xQueueGenericSend")
    1585                            .dwattr $C$DW$157, DW_AT_TI_call
    1586                    
    1587 0000011c FFFEF7FF!         BL        xQueueGenericSend     ; [DPU_3_PIPE] |164|  ; [KEEP 32-BIT INS]
    1588                            ; CALL OCCURS {xQueueGenericSend }  ; [] |164| 
    1589                            .dwpsn  file "../Tasks/Task_gyro.c",line 166,column 3,is_stmt,isa 1
    1590 00000120 60FAF44F          MOV       A1, #2000             ; [DPU_3_PIPE] |166|  ; [KEEP 32-BIT INS]
    1591                    $C$DW$158       .dwtag  DW_TAG_TI_branch
    1592                            .dwattr $C$DW$158, DW_AT_low_pc(0x00)
    1593                            .dwattr $C$DW$158, DW_AT_name("vTaskDelay")
    1594                            .dwattr $C$DW$158, DW_AT_TI_call
    1595                    
TI ARM Assembler PC v15.12.1 Thu Oct 27 13:57:51 2016

Tools Copyright (c) 1996-2015 Texas Instruments Incorporated
Task_gyro.asm                                                        PAGE   30

    1596 00000124 FFFEF7FF!         BL        vTaskDelay            ; [DPU_3_PIPE] |166|  ; [KEEP 32-BIT INS]
    1597                            ; CALL OCCURS {vTaskDelay }      ; [] |166| 
    1598                            .dwpsn  file "../Tasks/Task_gyro.c",line 129,column 8,is_stmt,isa 1
    1599 00000128 E7A9              B         ||$C$L4||             ; [DPU_3_PIPE] |129|  ; [ORIG 16-BIT INS]
    1600                            ; BRANCH OCCURS {||$C$L4||}      ; [] |129| 
    1601                    ;* --------------------------------------------------------------------------*
    1602                            .dwattr $C$DW$149, DW_AT_TI_end_file("../Tasks/Task_gyro.c")
    1603                            .dwattr $C$DW$149, DW_AT_TI_end_line(0xa9)
    1604                            .dwattr $C$DW$149, DW_AT_TI_end_column(0x01)
    1605                            .dwendentry
    1606                            .dwendtag $C$DW$149
    1607                    
    1608                    ;******************************************************************************
    1609                    ;* FLOATING-POINT CONSTANTS                                                   *
    1610                    ;******************************************************************************
    1611 0000012a                   .sect   ".text"
    1612                            .align  4
    1613 0000012c 42C80000  ||$C$FL1||:     .word   042c80000h      ; 100
    1614                    ;******************************************************************************
    1615                    ;* CONSTANT TABLE                                                             *
    1616                    ;******************************************************************************
    1617 00000130                   .sect   ".text"
    1618                            .align  4
    1619 0000012e 000042C8! ||$C$CON1||:    .bits   isMPU9150Initialized,32
         00000132 00000000 
    1620                            .align  4
    1621 00000132 00000000! ||$C$CON2||:    .bits   task_done,32
         00000136 00000000 
    1622                            .align  4
    1623 00000136 00000000! ||$C$CON3||:    .bits   I2C7_Instance_Ref,32
         0000013a 00000000 
    1624                            .align  4
    1625 0000013a 00000000! ||$C$CON4||:    .bits   MPU9150Callback,32
         0000013e 00000000 
    1626                            .align  4
    1627 0000013e 00000000! ||$C$CON5||:    .bits   sMPU9150,32
         00000142 00000000 
    1628                            .align  4
    1629 00000142 00000000! ||$C$CON6||:    .bits   xPortSysTickCount,32
         00000146 00000000 
    1630                            .align  4
    1631 00000146 00000000! ||$C$CON7||:    .bits   ReportData_Queue,32
         0000014a 00000000 
    1632                    ;*****************************************************************************
    1633                    ;* UNDEFINED EXTERNAL REFERENCES                                             *
    1634                    ;*****************************************************************************
    1635                            .global I2CMCommand
    1636                            .global I2CMReadModifyWrite16LE
    1637                            .global I2C7_Initialization
    1638                            .global MPU9150Init
    1639                            .global MPU9150ReadModifyWrite
    1640                            .global MPU9150DataRead
    1641                            .global MPU9150DataGyroGetFloat
    1642                            .global UART_Initialization
    1643                            .global vTaskDelay
TI ARM Assembler PC v15.12.1 Thu Oct 27 13:57:51 2016

Tools Copyright (c) 1996-2015 Texas Instruments Incorporated
Task_gyro.asm                                                        PAGE   31

    1644                            .global xQueueGenericSend
    1645                            .global I2C7_Instance_Ref
    1646                            .global isMPU9150Initialized
    1647                            .global xPortSysTickCount
    1648                            .global ReportData_Queue
    1649                    ;*****************************************************************************
    1650                    ;* SECTION GROUPS                                                            *
    1651                    ;*****************************************************************************
    1652                            .group    "I2CMRead", 1
    1653                            .gmember  ".text:I2CMRead"
    1654                            .endgroup
    1655                            .group    "I2CMReadBatched", 1
    1656                            .gmember  ".text:I2CMReadBatched"
    1657                            .endgroup
    1658                            .group    "I2CMReadModifyWrite16BE", 1
    1659                            .gmember  ".text:I2CMReadModifyWrite16BE"
    1660                            .endgroup
    1661                            .group    "I2CMWrite", 1
    1662                            .gmember  ".text:I2CMWrite"
    1663                            .endgroup
    1664                            .group    "I2CMWriteBatched", 1
    1665                            .gmember  ".text:I2CMWriteBatched"
    1666                            .endgroup
    1667                    
    1668                    
    1669                    ;******************************************************************************
    1670                    ;* BUILD ATTRIBUTES                                                           *
    1671                    ;******************************************************************************
    1672                            .battr "aeabi", Tag_File, 1, Tag_ABI_PCS_wchar_t(2)
    1673                            .battr "aeabi", Tag_File, 1, Tag_ABI_FP_rounding(0)
    1674                            .battr "aeabi", Tag_File, 1, Tag_ABI_FP_denormal(0)
    1675                            .battr "aeabi", Tag_File, 1, Tag_ABI_FP_exceptions(0)
    1676                            .battr "aeabi", Tag_File, 1, Tag_ABI_FP_number_model(1)
    1677                            .battr "aeabi", Tag_File, 1, Tag_ABI_enum_size(1)
    1678                            .battr "aeabi", Tag_File, 1, Tag_ABI_optimization_goals(5)
    1679                            .battr "aeabi", Tag_File, 1, Tag_ABI_FP_optimization_goals(0)
    1680                            .battr "TI", Tag_File, 1, Tag_Bitfield_layout(2)
    1681                            .battr "TI", Tag_File, 1, Tag_FP_interface(1)
    1682                    
    1683                    ;******************************************************************************
    1684                    ;* TYPE INFORMATION                                                           *
    1685                    ;******************************************************************************
    1686                    
    1687                    $C$DW$T$81      .dwtag  DW_TAG_enumeration_type
    1688                            .dwattr $C$DW$T$81, DW_AT_byte_size(0x01)
    1689                    $C$DW$159       .dwtag  DW_TAG_enumerator
    1690                            .dwattr $C$DW$159, DW_AT_name("eRunning")
    1691                            .dwattr $C$DW$159, DW_AT_const_value(0x00)
    1692                            .dwattr $C$DW$159, DW_AT_decl_file("C:/TI_ARM_Tiva_Projects/Source/include/task.h")
    1693                            .dwattr $C$DW$159, DW_AT_decl_line(0x72)
    1694                            .dwattr $C$DW$159, DW_AT_decl_column(0x02)
    1695                    
    1696                    $C$DW$160       .dwtag  DW_TAG_enumerator
    1697                            .dwattr $C$DW$160, DW_AT_name("eReady")
    1698                            .dwattr $C$DW$160, DW_AT_const_value(0x01)
TI ARM Assembler PC v15.12.1 Thu Oct 27 13:57:51 2016

Tools Copyright (c) 1996-2015 Texas Instruments Incorporated
Task_gyro.asm                                                        PAGE   32

    1699                            .dwattr $C$DW$160, DW_AT_decl_file("C:/TI_ARM_Tiva_Projects/Source/include/task.h")
    1700                            .dwattr $C$DW$160, DW_AT_decl_line(0x73)
    1701                            .dwattr $C$DW$160, DW_AT_decl_column(0x02)
    1702                    
    1703                    $C$DW$161       .dwtag  DW_TAG_enumerator
    1704                            .dwattr $C$DW$161, DW_AT_name("eBlocked")
    1705                            .dwattr $C$DW$161, DW_AT_const_value(0x02)
    1706                            .dwattr $C$DW$161, DW_AT_decl_file("C:/TI_ARM_Tiva_Projects/Source/include/task.h")
    1707                            .dwattr $C$DW$161, DW_AT_decl_line(0x74)
    1708                            .dwattr $C$DW$161, DW_AT_decl_column(0x02)
    1709                    
    1710                    $C$DW$162       .dwtag  DW_TAG_enumerator
    1711                            .dwattr $C$DW$162, DW_AT_name("eSuspended")
    1712                            .dwattr $C$DW$162, DW_AT_const_value(0x03)
    1713                            .dwattr $C$DW$162, DW_AT_decl_file("C:/TI_ARM_Tiva_Projects/Source/include/task.h")
    1714                            .dwattr $C$DW$162, DW_AT_decl_line(0x75)
    1715                            .dwattr $C$DW$162, DW_AT_decl_column(0x02)
    1716                    
    1717                    $C$DW$163       .dwtag  DW_TAG_enumerator
    1718                            .dwattr $C$DW$163, DW_AT_name("eDeleted")
    1719                            .dwattr $C$DW$163, DW_AT_const_value(0x04)
    1720                            .dwattr $C$DW$163, DW_AT_decl_file("C:/TI_ARM_Tiva_Projects/Source/include/task.h")
    1721                            .dwattr $C$DW$163, DW_AT_decl_line(0x76)
    1722                            .dwattr $C$DW$163, DW_AT_decl_column(0x02)
    1723                    
    1724                            .dwattr $C$DW$T$81, DW_AT_decl_file("C:/TI_ARM_Tiva_Projects/Source/include/task.h")
    1725                            .dwattr $C$DW$T$81, DW_AT_decl_line(0x71)
    1726                            .dwattr $C$DW$T$81, DW_AT_decl_column(0x01)
    1727                            .dwendtag $C$DW$T$81
    1728                    
    1729                    $C$DW$T$82      .dwtag  DW_TAG_typedef
    1730                            .dwattr $C$DW$T$82, DW_AT_name("eTaskState")
    1731                            .dwattr $C$DW$T$82, DW_AT_type(*$C$DW$T$81)
    1732                            .dwattr $C$DW$T$82, DW_AT_language(DW_LANG_C)
    1733                            .dwattr $C$DW$T$82, DW_AT_decl_file("C:/TI_ARM_Tiva_Projects/Source/include/task.h")
    1734                            .dwattr $C$DW$T$82, DW_AT_decl_line(0x77)
    1735                            .dwattr $C$DW$T$82, DW_AT_decl_column(0x03)
    1736                    
    1737                    
    1738                    $C$DW$T$87      .dwtag  DW_TAG_enumeration_type
    1739                            .dwattr $C$DW$T$87, DW_AT_byte_size(0x01)
    1740                    $C$DW$164       .dwtag  DW_TAG_enumerator
    1741                            .dwattr $C$DW$164, DW_AT_name("eNoAction")
    1742                            .dwattr $C$DW$164, DW_AT_const_value(0x00)
    1743                            .dwattr $C$DW$164, DW_AT_decl_file("C:/TI_ARM_Tiva_Projects/Source/include/task.h")
    1744                            .dwattr $C$DW$164, DW_AT_decl_line(0x7c)
    1745                            .dwattr $C$DW$164, DW_AT_decl_column(0x02)
    1746                    
    1747                    $C$DW$165       .dwtag  DW_TAG_enumerator
    1748                            .dwattr $C$DW$165, DW_AT_name("eSetBits")
    1749                            .dwattr $C$DW$165, DW_AT_const_value(0x01)
    1750                            .dwattr $C$DW$165, DW_AT_decl_file("C:/TI_ARM_Tiva_Projects/Source/include/task.h")
    1751                            .dwattr $C$DW$165, DW_AT_decl_line(0x7d)
    1752                            .dwattr $C$DW$165, DW_AT_decl_column(0x02)
    1753                    
TI ARM Assembler PC v15.12.1 Thu Oct 27 13:57:51 2016

Tools Copyright (c) 1996-2015 Texas Instruments Incorporated
Task_gyro.asm                                                        PAGE   33

    1754                    $C$DW$166       .dwtag  DW_TAG_enumerator
    1755                            .dwattr $C$DW$166, DW_AT_name("eIncrement")
    1756                            .dwattr $C$DW$166, DW_AT_const_value(0x02)
    1757                            .dwattr $C$DW$166, DW_AT_decl_file("C:/TI_ARM_Tiva_Projects/Source/include/task.h")
    1758                            .dwattr $C$DW$166, DW_AT_decl_line(0x7e)
    1759                            .dwattr $C$DW$166, DW_AT_decl_column(0x02)
    1760                    
    1761                    $C$DW$167       .dwtag  DW_TAG_enumerator
    1762                            .dwattr $C$DW$167, DW_AT_name("eSetValueWithOverwrite")
    1763                            .dwattr $C$DW$167, DW_AT_const_value(0x03)
    1764                            .dwattr $C$DW$167, DW_AT_decl_file("C:/TI_ARM_Tiva_Projects/Source/include/task.h")
    1765                            .dwattr $C$DW$167, DW_AT_decl_line(0x7f)
    1766                            .dwattr $C$DW$167, DW_AT_decl_column(0x02)
    1767                    
    1768                    $C$DW$168       .dwtag  DW_TAG_enumerator
    1769                            .dwattr $C$DW$168, DW_AT_name("eSetValueWithoutOverwrite")
    1770                            .dwattr $C$DW$168, DW_AT_const_value(0x04)
    1771                            .dwattr $C$DW$168, DW_AT_decl_file("C:/TI_ARM_Tiva_Projects/Source/include/task.h")
    1772                            .dwattr $C$DW$168, DW_AT_decl_line(0x80)
    1773                            .dwattr $C$DW$168, DW_AT_decl_column(0x02)
    1774                    
    1775                            .dwattr $C$DW$T$87, DW_AT_decl_file("C:/TI_ARM_Tiva_Projects/Source/include/task.h")
    1776                            .dwattr $C$DW$T$87, DW_AT_decl_line(0x7b)
    1777                            .dwattr $C$DW$T$87, DW_AT_decl_column(0x01)
    1778                            .dwendtag $C$DW$T$87
    1779                    
    1780                    $C$DW$T$88      .dwtag  DW_TAG_typedef
    1781                            .dwattr $C$DW$T$88, DW_AT_name("eNotifyAction")
    1782                            .dwattr $C$DW$T$88, DW_AT_type(*$C$DW$T$87)
    1783                            .dwattr $C$DW$T$88, DW_AT_language(DW_LANG_C)
    1784                            .dwattr $C$DW$T$88, DW_AT_decl_file("C:/TI_ARM_Tiva_Projects/Source/include/task.h")
    1785                            .dwattr $C$DW$T$88, DW_AT_decl_line(0x81)
    1786                            .dwattr $C$DW$T$88, DW_AT_decl_column(0x03)
    1787                    
    1788                    
    1789                    $C$DW$T$89      .dwtag  DW_TAG_enumeration_type
    1790                            .dwattr $C$DW$T$89, DW_AT_byte_size(0x01)
    1791                    $C$DW$169       .dwtag  DW_TAG_enumerator
    1792                            .dwattr $C$DW$169, DW_AT_name("eAbortSleep")
    1793                            .dwattr $C$DW$169, DW_AT_const_value(0x00)
    1794                            .dwattr $C$DW$169, DW_AT_decl_file("C:/TI_ARM_Tiva_Projects/Source/include/task.h")
    1795                            .dwattr $C$DW$169, DW_AT_decl_line(0xb5)
    1796                            .dwattr $C$DW$169, DW_AT_decl_column(0x02)
    1797                    
    1798                    $C$DW$170       .dwtag  DW_TAG_enumerator
    1799                            .dwattr $C$DW$170, DW_AT_name("eStandardSleep")
    1800                            .dwattr $C$DW$170, DW_AT_const_value(0x01)
    1801                            .dwattr $C$DW$170, DW_AT_decl_file("C:/TI_ARM_Tiva_Projects/Source/include/task.h")
    1802                            .dwattr $C$DW$170, DW_AT_decl_line(0xb6)
    1803                            .dwattr $C$DW$170, DW_AT_decl_column(0x02)
    1804                    
    1805                    $C$DW$171       .dwtag  DW_TAG_enumerator
    1806                            .dwattr $C$DW$171, DW_AT_name("eNoTasksWaitingTimeout")
    1807                            .dwattr $C$DW$171, DW_AT_const_value(0x02)
    1808                            .dwattr $C$DW$171, DW_AT_decl_file("C:/TI_ARM_Tiva_Projects/Source/include/task.h")
TI ARM Assembler PC v15.12.1 Thu Oct 27 13:57:51 2016

Tools Copyright (c) 1996-2015 Texas Instruments Incorporated
Task_gyro.asm                                                        PAGE   34

    1809                            .dwattr $C$DW$171, DW_AT_decl_line(0xb7)
    1810                            .dwattr $C$DW$171, DW_AT_decl_column(0x02)
    1811                    
    1812                            .dwattr $C$DW$T$89, DW_AT_decl_file("C:/TI_ARM_Tiva_Projects/Source/include/task.h")
    1813                            .dwattr $C$DW$T$89, DW_AT_decl_line(0xb4)
    1814                            .dwattr $C$DW$T$89, DW_AT_decl_column(0x01)
    1815                            .dwendtag $C$DW$T$89
    1816                    
    1817                    $C$DW$T$90      .dwtag  DW_TAG_typedef
    1818                            .dwattr $C$DW$T$90, DW_AT_name("eSleepModeStatus")
    1819                            .dwattr $C$DW$T$90, DW_AT_type(*$C$DW$T$89)
    1820                            .dwattr $C$DW$T$90, DW_AT_language(DW_LANG_C)
    1821                            .dwattr $C$DW$T$90, DW_AT_decl_file("C:/TI_ARM_Tiva_Projects/Source/include/task.h")
    1822                            .dwattr $C$DW$T$90, DW_AT_decl_line(0xb8)
    1823                            .dwattr $C$DW$T$90, DW_AT_decl_column(0x03)
    1824                    
    1825                    
    1826                    $C$DW$T$29      .dwtag  DW_TAG_structure_type
    1827                            .dwattr $C$DW$T$29, DW_AT_byte_size(0x1c)
    1828                    $C$DW$172       .dwtag  DW_TAG_member
    1829                            .dwattr $C$DW$172, DW_AT_type(*$C$DW$T$19)
    1830                            .dwattr $C$DW$172, DW_AT_name("ui8Addr")
    1831                            .dwattr $C$DW$172, DW_AT_TI_symbol_name("ui8Addr")
    1832                            .dwattr $C$DW$172, DW_AT_data_member_location[DW_OP_plus_uconst 0x0]
    1833                            .dwattr $C$DW$172, DW_AT_accessibility(DW_ACCESS_public)
    1834                            .dwattr $C$DW$172, DW_AT_decl_file("C:/TI_CodeComposer/TivaWare/sensorlib/i2cm_drv.h")
    1835                            .dwattr $C$DW$172, DW_AT_decl_line(0x4c)
    1836                            .dwattr $C$DW$172, DW_AT_decl_column(0x0d)
    1837                    
    1838                    $C$DW$173       .dwtag  DW_TAG_member
    1839                            .dwattr $C$DW$173, DW_AT_type(*$C$DW$T$21)
    1840                            .dwattr $C$DW$173, DW_AT_name("pui8WriteData")
    1841                            .dwattr $C$DW$173, DW_AT_TI_symbol_name("pui8WriteData")
    1842                            .dwattr $C$DW$173, DW_AT_data_member_location[DW_OP_plus_uconst 0x4]
    1843                            .dwattr $C$DW$173, DW_AT_accessibility(DW_ACCESS_public)
    1844                            .dwattr $C$DW$173, DW_AT_decl_file("C:/TI_CodeComposer/TivaWare/sensorlib/i2cm_drv.h")
    1845                            .dwattr $C$DW$173, DW_AT_decl_line(0x51)
    1846                            .dwattr $C$DW$173, DW_AT_decl_column(0x14)
    1847                    
    1848                    $C$DW$174       .dwtag  DW_TAG_member
    1849                            .dwattr $C$DW$174, DW_AT_type(*$C$DW$T$22)
    1850                            .dwattr $C$DW$174, DW_AT_name("ui16WriteCount")
    1851                            .dwattr $C$DW$174, DW_AT_TI_symbol_name("ui16WriteCount")
    1852                            .dwattr $C$DW$174, DW_AT_data_member_location[DW_OP_plus_uconst 0x8]
    1853                            .dwattr $C$DW$174, DW_AT_accessibility(DW_ACCESS_public)
    1854                            .dwattr $C$DW$174, DW_AT_decl_file("C:/TI_CodeComposer/TivaWare/sensorlib/i2cm_drv.h")
    1855                            .dwattr $C$DW$174, DW_AT_decl_line(0x56)
    1856                            .dwattr $C$DW$174, DW_AT_decl_column(0x0e)
    1857                    
    1858                    $C$DW$175       .dwtag  DW_TAG_member
    1859                            .dwattr $C$DW$175, DW_AT_type(*$C$DW$T$22)
    1860                            .dwattr $C$DW$175, DW_AT_name("ui16WriteBatchSize")
    1861                            .dwattr $C$DW$175, DW_AT_TI_symbol_name("ui16WriteBatchSize")
    1862                            .dwattr $C$DW$175, DW_AT_data_member_location[DW_OP_plus_uconst 0xa]
    1863                            .dwattr $C$DW$175, DW_AT_accessibility(DW_ACCESS_public)
TI ARM Assembler PC v15.12.1 Thu Oct 27 13:57:51 2016

Tools Copyright (c) 1996-2015 Texas Instruments Incorporated
Task_gyro.asm                                                        PAGE   35

    1864                            .dwattr $C$DW$175, DW_AT_decl_file("C:/TI_CodeComposer/TivaWare/sensorlib/i2cm_drv.h")
    1865                            .dwattr $C$DW$175, DW_AT_decl_line(0x5b)
    1866                            .dwattr $C$DW$175, DW_AT_decl_column(0x0e)
    1867                    
    1868                    $C$DW$176       .dwtag  DW_TAG_member
    1869                            .dwattr $C$DW$176, DW_AT_type(*$C$DW$T$23)
    1870                            .dwattr $C$DW$176, DW_AT_name("pui8ReadData")
    1871                            .dwattr $C$DW$176, DW_AT_TI_symbol_name("pui8ReadData")
    1872                            .dwattr $C$DW$176, DW_AT_data_member_location[DW_OP_plus_uconst 0xc]
    1873                            .dwattr $C$DW$176, DW_AT_accessibility(DW_ACCESS_public)
    1874                            .dwattr $C$DW$176, DW_AT_decl_file("C:/TI_CodeComposer/TivaWare/sensorlib/i2cm_drv.h")
    1875                            .dwattr $C$DW$176, DW_AT_decl_line(0x60)
    1876                            .dwattr $C$DW$176, DW_AT_decl_column(0x0e)
    1877                    
    1878                    $C$DW$177       .dwtag  DW_TAG_member
    1879                            .dwattr $C$DW$177, DW_AT_type(*$C$DW$T$22)
    1880                            .dwattr $C$DW$177, DW_AT_name("ui16ReadCount")
    1881                            .dwattr $C$DW$177, DW_AT_TI_symbol_name("ui16ReadCount")
    1882                            .dwattr $C$DW$177, DW_AT_data_member_location[DW_OP_plus_uconst 0x10]
    1883                            .dwattr $C$DW$177, DW_AT_accessibility(DW_ACCESS_public)
    1884                            .dwattr $C$DW$177, DW_AT_decl_file("C:/TI_CodeComposer/TivaWare/sensorlib/i2cm_drv.h")
    1885                            .dwattr $C$DW$177, DW_AT_decl_line(0x65)
    1886                            .dwattr $C$DW$177, DW_AT_decl_column(0x0e)
    1887                    
    1888                    $C$DW$178       .dwtag  DW_TAG_member
    1889                            .dwattr $C$DW$178, DW_AT_type(*$C$DW$T$22)
    1890                            .dwattr $C$DW$178, DW_AT_name("ui16ReadBatchSize")
    1891                            .dwattr $C$DW$178, DW_AT_TI_symbol_name("ui16ReadBatchSize")
    1892                            .dwattr $C$DW$178, DW_AT_data_member_location[DW_OP_plus_uconst 0x12]
    1893                            .dwattr $C$DW$178, DW_AT_accessibility(DW_ACCESS_public)
    1894                            .dwattr $C$DW$178, DW_AT_decl_file("C:/TI_CodeComposer/TivaWare/sensorlib/i2cm_drv.h")
    1895                            .dwattr $C$DW$178, DW_AT_decl_line(0x6a)
    1896                            .dwattr $C$DW$178, DW_AT_decl_column(0x0e)
    1897                    
    1898                    $C$DW$179       .dwtag  DW_TAG_member
    1899                            .dwattr $C$DW$179, DW_AT_type(*$C$DW$T$28)
    1900                            .dwattr $C$DW$179, DW_AT_name("pfnCallback")
    1901                            .dwattr $C$DW$179, DW_AT_TI_symbol_name("pfnCallback")
    1902                            .dwattr $C$DW$179, DW_AT_data_member_location[DW_OP_plus_uconst 0x14]
    1903                            .dwattr $C$DW$179, DW_AT_accessibility(DW_ACCESS_public)
    1904                            .dwattr $C$DW$179, DW_AT_decl_file("C:/TI_CodeComposer/TivaWare/sensorlib/i2cm_drv.h")
    1905                            .dwattr $C$DW$179, DW_AT_decl_line(0x6f)
    1906                            .dwattr $C$DW$179, DW_AT_decl_column(0x16)
    1907                    
    1908                    $C$DW$180       .dwtag  DW_TAG_member
    1909                            .dwattr $C$DW$180, DW_AT_type(*$C$DW$T$3)
    1910                            .dwattr $C$DW$180, DW_AT_name("pvCallbackData")
    1911                            .dwattr $C$DW$180, DW_AT_TI_symbol_name("pvCallbackData")
    1912                            .dwattr $C$DW$180, DW_AT_data_member_location[DW_OP_plus_uconst 0x18]
    1913                            .dwattr $C$DW$180, DW_AT_accessibility(DW_ACCESS_public)
    1914                            .dwattr $C$DW$180, DW_AT_decl_file("C:/TI_CodeComposer/TivaWare/sensorlib/i2cm_drv.h")
    1915                            .dwattr $C$DW$180, DW_AT_decl_line(0x74)
    1916                            .dwattr $C$DW$180, DW_AT_decl_column(0x0b)
    1917                    
    1918                            .dwattr $C$DW$T$29, DW_AT_decl_file("C:/TI_CodeComposer/TivaWare/sensorlib/i2cm_drv.h")
TI ARM Assembler PC v15.12.1 Thu Oct 27 13:57:51 2016

Tools Copyright (c) 1996-2015 Texas Instruments Incorporated
Task_gyro.asm                                                        PAGE   36

    1919                            .dwattr $C$DW$T$29, DW_AT_decl_line(0x48)
    1920                            .dwattr $C$DW$T$29, DW_AT_decl_column(0x01)
    1921                            .dwendtag $C$DW$T$29
    1922                    
    1923                    $C$DW$T$30      .dwtag  DW_TAG_typedef
    1924                            .dwattr $C$DW$T$30, DW_AT_name("tI2CMCommand")
    1925                            .dwattr $C$DW$T$30, DW_AT_type(*$C$DW$T$29)
    1926                            .dwattr $C$DW$T$30, DW_AT_language(DW_LANG_C)
    1927                            .dwattr $C$DW$T$30, DW_AT_decl_file("C:/TI_CodeComposer/TivaWare/sensorlib/i2cm_drv.h")
    1928                            .dwattr $C$DW$T$30, DW_AT_decl_line(0x76)
    1929                            .dwattr $C$DW$T$30, DW_AT_decl_column(0x01)
    1930                    
    1931                    
    1932                    $C$DW$T$31      .dwtag  DW_TAG_array_type
    1933                            .dwattr $C$DW$T$31, DW_AT_type(*$C$DW$T$30)
    1934                            .dwattr $C$DW$T$31, DW_AT_language(DW_LANG_C)
    1935                            .dwattr $C$DW$T$31, DW_AT_byte_size(0x118)
    1936                    $C$DW$181       .dwtag  DW_TAG_subrange_type
    1937                            .dwattr $C$DW$181, DW_AT_upper_bound(0x09)
    1938                    
    1939                            .dwendtag $C$DW$T$31
    1940                    
    1941                    
    1942                    $C$DW$T$32      .dwtag  DW_TAG_structure_type
    1943                            .dwattr $C$DW$T$32, DW_AT_byte_size(0x124)
    1944                    $C$DW$182       .dwtag  DW_TAG_member
    1945                            .dwattr $C$DW$182, DW_AT_type(*$C$DW$T$24)
    1946                            .dwattr $C$DW$182, DW_AT_name("ui32Base")
    1947                            .dwattr $C$DW$182, DW_AT_TI_symbol_name("ui32Base")
    1948                            .dwattr $C$DW$182, DW_AT_data_member_location[DW_OP_plus_uconst 0x0]
    1949                            .dwattr $C$DW$182, DW_AT_accessibility(DW_ACCESS_public)
    1950                            .dwattr $C$DW$182, DW_AT_decl_file("C:/TI_CodeComposer/TivaWare/sensorlib/i2cm_drv.h")
    1951                            .dwattr $C$DW$182, DW_AT_decl_line(0x82)
    1952                            .dwattr $C$DW$182, DW_AT_decl_column(0x0e)
    1953                    
    1954                    $C$DW$183       .dwtag  DW_TAG_member
    1955                            .dwattr $C$DW$183, DW_AT_type(*$C$DW$T$19)
    1956                            .dwattr $C$DW$183, DW_AT_name("ui8Int")
    1957                            .dwattr $C$DW$183, DW_AT_TI_symbol_name("ui8Int")
    1958                            .dwattr $C$DW$183, DW_AT_data_member_location[DW_OP_plus_uconst 0x4]
    1959                            .dwattr $C$DW$183, DW_AT_accessibility(DW_ACCESS_public)
    1960                            .dwattr $C$DW$183, DW_AT_decl_file("C:/TI_CodeComposer/TivaWare/sensorlib/i2cm_drv.h")
    1961                            .dwattr $C$DW$183, DW_AT_decl_line(0x87)
    1962                            .dwattr $C$DW$183, DW_AT_decl_column(0x0d)
    1963                    
    1964                    $C$DW$184       .dwtag  DW_TAG_member
    1965                            .dwattr $C$DW$184, DW_AT_type(*$C$DW$T$19)
    1966                            .dwattr $C$DW$184, DW_AT_name("ui8TxDMA")
    1967                            .dwattr $C$DW$184, DW_AT_TI_symbol_name("ui8TxDMA")
    1968                            .dwattr $C$DW$184, DW_AT_data_member_location[DW_OP_plus_uconst 0x5]
    1969                            .dwattr $C$DW$184, DW_AT_accessibility(DW_ACCESS_public)
    1970                            .dwattr $C$DW$184, DW_AT_decl_file("C:/TI_CodeComposer/TivaWare/sensorlib/i2cm_drv.h")
    1971                            .dwattr $C$DW$184, DW_AT_decl_line(0x8c)
    1972                            .dwattr $C$DW$184, DW_AT_decl_column(0x0d)
    1973                    
TI ARM Assembler PC v15.12.1 Thu Oct 27 13:57:51 2016

Tools Copyright (c) 1996-2015 Texas Instruments Incorporated
Task_gyro.asm                                                        PAGE   37

    1974                    $C$DW$185       .dwtag  DW_TAG_member
    1975                            .dwattr $C$DW$185, DW_AT_type(*$C$DW$T$19)
    1976                            .dwattr $C$DW$185, DW_AT_name("ui8RxDMA")
    1977                            .dwattr $C$DW$185, DW_AT_TI_symbol_name("ui8RxDMA")
    1978                            .dwattr $C$DW$185, DW_AT_data_member_location[DW_OP_plus_uconst 0x6]
    1979                            .dwattr $C$DW$185, DW_AT_accessibility(DW_ACCESS_public)
    1980                            .dwattr $C$DW$185, DW_AT_decl_file("C:/TI_CodeComposer/TivaWare/sensorlib/i2cm_drv.h")
    1981                            .dwattr $C$DW$185, DW_AT_decl_line(0x91)
    1982                            .dwattr $C$DW$185, DW_AT_decl_column(0x0d)
    1983                    
    1984                    $C$DW$186       .dwtag  DW_TAG_member
    1985                            .dwattr $C$DW$186, DW_AT_type(*$C$DW$T$19)
    1986                            .dwattr $C$DW$186, DW_AT_name("ui8State")
    1987                            .dwattr $C$DW$186, DW_AT_TI_symbol_name("ui8State")
    1988                            .dwattr $C$DW$186, DW_AT_data_member_location[DW_OP_plus_uconst 0x7]
    1989                            .dwattr $C$DW$186, DW_AT_accessibility(DW_ACCESS_public)
    1990                            .dwattr $C$DW$186, DW_AT_decl_file("C:/TI_CodeComposer/TivaWare/sensorlib/i2cm_drv.h")
    1991                            .dwattr $C$DW$186, DW_AT_decl_line(0x96)
    1992                            .dwattr $C$DW$186, DW_AT_decl_column(0x0d)
    1993                    
    1994                    $C$DW$187       .dwtag  DW_TAG_member
    1995                            .dwattr $C$DW$187, DW_AT_type(*$C$DW$T$19)
    1996                            .dwattr $C$DW$187, DW_AT_name("ui8ReadPtr")
    1997                            .dwattr $C$DW$187, DW_AT_TI_symbol_name("ui8ReadPtr")
    1998                            .dwattr $C$DW$187, DW_AT_data_member_location[DW_OP_plus_uconst 0x8]
    1999                            .dwattr $C$DW$187, DW_AT_accessibility(DW_ACCESS_public)
    2000                            .dwattr $C$DW$187, DW_AT_decl_file("C:/TI_CodeComposer/TivaWare/sensorlib/i2cm_drv.h")
    2001                            .dwattr $C$DW$187, DW_AT_decl_line(0x9c)
    2002                            .dwattr $C$DW$187, DW_AT_decl_column(0x0d)
    2003                    
    2004                    $C$DW$188       .dwtag  DW_TAG_member
    2005                            .dwattr $C$DW$188, DW_AT_type(*$C$DW$T$19)
    2006                            .dwattr $C$DW$188, DW_AT_name("ui8WritePtr")
    2007                            .dwattr $C$DW$188, DW_AT_TI_symbol_name("ui8WritePtr")
    2008                            .dwattr $C$DW$188, DW_AT_data_member_location[DW_OP_plus_uconst 0x9]
    2009                            .dwattr $C$DW$188, DW_AT_accessibility(DW_ACCESS_public)
    2010                            .dwattr $C$DW$188, DW_AT_decl_file("C:/TI_CodeComposer/TivaWare/sensorlib/i2cm_drv.h")
    2011                            .dwattr $C$DW$188, DW_AT_decl_line(0xa2)
    2012                            .dwattr $C$DW$188, DW_AT_decl_column(0x0d)
    2013                    
    2014                    $C$DW$189       .dwtag  DW_TAG_member
    2015                            .dwattr $C$DW$189, DW_AT_type(*$C$DW$T$22)
    2016                            .dwattr $C$DW$189, DW_AT_name("ui16Index")
    2017                            .dwattr $C$DW$189, DW_AT_TI_symbol_name("ui16Index")
    2018                            .dwattr $C$DW$189, DW_AT_data_member_location[DW_OP_plus_uconst 0xa]
    2019                            .dwattr $C$DW$189, DW_AT_accessibility(DW_ACCESS_public)
    2020                            .dwattr $C$DW$189, DW_AT_decl_file("C:/TI_CodeComposer/TivaWare/sensorlib/i2cm_drv.h")
    2021                            .dwattr $C$DW$189, DW_AT_decl_line(0xa7)
    2022                            .dwattr $C$DW$189, DW_AT_decl_column(0x0e)
    2023                    
    2024                    $C$DW$190       .dwtag  DW_TAG_member
    2025                            .dwattr $C$DW$190, DW_AT_type(*$C$DW$T$31)
    2026                            .dwattr $C$DW$190, DW_AT_name("pCommands")
    2027                            .dwattr $C$DW$190, DW_AT_TI_symbol_name("pCommands")
    2028                            .dwattr $C$DW$190, DW_AT_data_member_location[DW_OP_plus_uconst 0xc]
TI ARM Assembler PC v15.12.1 Thu Oct 27 13:57:51 2016

Tools Copyright (c) 1996-2015 Texas Instruments Incorporated
Task_gyro.asm                                                        PAGE   38

    2029                            .dwattr $C$DW$190, DW_AT_accessibility(DW_ACCESS_public)
    2030                            .dwattr $C$DW$190, DW_AT_decl_file("C:/TI_CodeComposer/TivaWare/sensorlib/i2cm_drv.h")
    2031                            .dwattr $C$DW$190, DW_AT_decl_line(0xac)
    2032                            .dwattr $C$DW$190, DW_AT_decl_column(0x12)
    2033                    
    2034                            .dwattr $C$DW$T$32, DW_AT_decl_file("C:/TI_CodeComposer/TivaWare/sensorlib/i2cm_drv.h")
    2035                            .dwattr $C$DW$T$32, DW_AT_decl_line(0x7e)
    2036                            .dwattr $C$DW$T$32, DW_AT_decl_column(0x01)
    2037                            .dwendtag $C$DW$T$32
    2038                    
    2039                    $C$DW$T$33      .dwtag  DW_TAG_typedef
    2040                            .dwattr $C$DW$T$33, DW_AT_name("tI2CMInstance")
    2041                            .dwattr $C$DW$T$33, DW_AT_type(*$C$DW$T$32)
    2042                            .dwattr $C$DW$T$33, DW_AT_language(DW_LANG_C)
    2043                            .dwattr $C$DW$T$33, DW_AT_decl_file("C:/TI_CodeComposer/TivaWare/sensorlib/i2cm_drv.h")
    2044                            .dwattr $C$DW$T$33, DW_AT_decl_line(0xae)
    2045                            .dwattr $C$DW$T$33, DW_AT_decl_column(0x01)
    2046                    
    2047                    $C$DW$T$34      .dwtag  DW_TAG_pointer_type
    2048                            .dwattr $C$DW$T$34, DW_AT_type(*$C$DW$T$33)
    2049                            .dwattr $C$DW$T$34, DW_AT_address_class(0x20)
    2050                    
    2051                    
    2052                    $C$DW$T$36      .dwtag  DW_TAG_structure_type
    2053                            .dwattr $C$DW$T$36, DW_AT_byte_size(0x18)
    2054                    $C$DW$191       .dwtag  DW_TAG_member
    2055                            .dwattr $C$DW$191, DW_AT_type(*$C$DW$T$34)
    2056                            .dwattr $C$DW$191, DW_AT_name("psI2CInst")
    2057                            .dwattr $C$DW$191, DW_AT_TI_symbol_name("psI2CInst")
    2058                            .dwattr $C$DW$191, DW_AT_data_member_location[DW_OP_plus_uconst 0x0]
    2059                            .dwattr $C$DW$191, DW_AT_accessibility(DW_ACCESS_public)
    2060                            .dwattr $C$DW$191, DW_AT_decl_file("C:/TI_CodeComposer/TivaWare/sensorlib/i2cm_drv.h")
    2061                            .dwattr $C$DW$191, DW_AT_decl_line(0xf0)
    2062                            .dwattr $C$DW$191, DW_AT_decl_column(0x14)
    2063                    
    2064                    $C$DW$192       .dwtag  DW_TAG_member
    2065                            .dwattr $C$DW$192, DW_AT_type(*$C$DW$T$35)
    2066                            .dwattr $C$DW$192, DW_AT_name("pui8Buffer")
    2067                            .dwattr $C$DW$192, DW_AT_TI_symbol_name("pui8Buffer")
    2068                            .dwattr $C$DW$192, DW_AT_data_member_location[DW_OP_plus_uconst 0x4]
    2069                            .dwattr $C$DW$192, DW_AT_accessibility(DW_ACCESS_public)
    2070                            .dwattr $C$DW$192, DW_AT_decl_file("C:/TI_CodeComposer/TivaWare/sensorlib/i2cm_drv.h")
    2071                            .dwattr $C$DW$192, DW_AT_decl_line(0xf5)
    2072                            .dwattr $C$DW$192, DW_AT_decl_column(0x0d)
    2073                    
    2074                    $C$DW$193       .dwtag  DW_TAG_member
    2075                            .dwattr $C$DW$193, DW_AT_type(*$C$DW$T$19)
    2076                            .dwattr $C$DW$193, DW_AT_name("ui8State")
    2077                            .dwattr $C$DW$193, DW_AT_TI_symbol_name("ui8State")
    2078                            .dwattr $C$DW$193, DW_AT_data_member_location[DW_OP_plus_uconst 0x8]
    2079                            .dwattr $C$DW$193, DW_AT_accessibility(DW_ACCESS_public)
    2080                            .dwattr $C$DW$193, DW_AT_decl_file("C:/TI_CodeComposer/TivaWare/sensorlib/i2cm_drv.h")
    2081                            .dwattr $C$DW$193, DW_AT_decl_line(0xfa)
    2082                            .dwattr $C$DW$193, DW_AT_decl_column(0x0d)
    2083                    
TI ARM Assembler PC v15.12.1 Thu Oct 27 13:57:51 2016

Tools Copyright (c) 1996-2015 Texas Instruments Incorporated
Task_gyro.asm                                                        PAGE   39

    2084                    $C$DW$194       .dwtag  DW_TAG_member
    2085                            .dwattr $C$DW$194, DW_AT_type(*$C$DW$T$19)
    2086                            .dwattr $C$DW$194, DW_AT_name("ui8Addr")
    2087                            .dwattr $C$DW$194, DW_AT_TI_symbol_name("ui8Addr")
    2088                            .dwattr $C$DW$194, DW_AT_data_member_location[DW_OP_plus_uconst 0x9]
    2089                            .dwattr $C$DW$194, DW_AT_accessibility(DW_ACCESS_public)
    2090                            .dwattr $C$DW$194, DW_AT_decl_file("C:/TI_CodeComposer/TivaWare/sensorlib/i2cm_drv.h")
    2091                            .dwattr $C$DW$194, DW_AT_decl_line(0xff)
    2092                            .dwattr $C$DW$194, DW_AT_decl_column(0x0d)
    2093                    
    2094                    $C$DW$195       .dwtag  DW_TAG_member
    2095                            .dwattr $C$DW$195, DW_AT_type(*$C$DW$T$22)
    2096                            .dwattr $C$DW$195, DW_AT_name("ui16Mask")
    2097                            .dwattr $C$DW$195, DW_AT_TI_symbol_name("ui16Mask")
    2098                            .dwattr $C$DW$195, DW_AT_data_member_location[DW_OP_plus_uconst 0xa]
    2099                            .dwattr $C$DW$195, DW_AT_accessibility(DW_ACCESS_public)
    2100                            .dwattr $C$DW$195, DW_AT_decl_file("C:/TI_CodeComposer/TivaWare/sensorlib/i2cm_drv.h")
    2101                            .dwattr $C$DW$195, DW_AT_decl_line(0x104)
    2102                            .dwattr $C$DW$195, DW_AT_decl_column(0x0e)
    2103                    
    2104                    $C$DW$196       .dwtag  DW_TAG_member
    2105                            .dwattr $C$DW$196, DW_AT_type(*$C$DW$T$22)
    2106                            .dwattr $C$DW$196, DW_AT_name("ui16Value")
    2107                            .dwattr $C$DW$196, DW_AT_TI_symbol_name("ui16Value")
    2108                            .dwattr $C$DW$196, DW_AT_data_member_location[DW_OP_plus_uconst 0xc]
    2109                            .dwattr $C$DW$196, DW_AT_accessibility(DW_ACCESS_public)
    2110                            .dwattr $C$DW$196, DW_AT_decl_file("C:/TI_CodeComposer/TivaWare/sensorlib/i2cm_drv.h")
    2111                            .dwattr $C$DW$196, DW_AT_decl_line(0x109)
    2112                            .dwattr $C$DW$196, DW_AT_decl_column(0x0e)
    2113                    
    2114                    $C$DW$197       .dwtag  DW_TAG_member
    2115                            .dwattr $C$DW$197, DW_AT_type(*$C$DW$T$28)
    2116                            .dwattr $C$DW$197, DW_AT_name("pfnCallback")
    2117                            .dwattr $C$DW$197, DW_AT_TI_symbol_name("pfnCallback")
    2118                            .dwattr $C$DW$197, DW_AT_data_member_location[DW_OP_plus_uconst 0x10]
    2119                            .dwattr $C$DW$197, DW_AT_accessibility(DW_ACCESS_public)
    2120                            .dwattr $C$DW$197, DW_AT_decl_file("C:/TI_CodeComposer/TivaWare/sensorlib/i2cm_drv.h")
    2121                            .dwattr $C$DW$197, DW_AT_decl_line(0x10f)
    2122                            .dwattr $C$DW$197, DW_AT_decl_column(0x16)
    2123                    
    2124                    $C$DW$198       .dwtag  DW_TAG_member
    2125                            .dwattr $C$DW$198, DW_AT_type(*$C$DW$T$3)
    2126                            .dwattr $C$DW$198, DW_AT_name("pvCallbackData")
    2127                            .dwattr $C$DW$198, DW_AT_TI_symbol_name("pvCallbackData")
    2128                            .dwattr $C$DW$198, DW_AT_data_member_location[DW_OP_plus_uconst 0x14]
    2129                            .dwattr $C$DW$198, DW_AT_accessibility(DW_ACCESS_public)
    2130                            .dwattr $C$DW$198, DW_AT_decl_file("C:/TI_CodeComposer/TivaWare/sensorlib/i2cm_drv.h")
    2131                            .dwattr $C$DW$198, DW_AT_decl_line(0x114)
    2132                            .dwattr $C$DW$198, DW_AT_decl_column(0x0b)
    2133                    
    2134                            .dwattr $C$DW$T$36, DW_AT_decl_file("C:/TI_CodeComposer/TivaWare/sensorlib/i2cm_drv.h")
    2135                            .dwattr $C$DW$T$36, DW_AT_decl_line(0xeb)
    2136                            .dwattr $C$DW$T$36, DW_AT_decl_column(0x01)
    2137                            .dwendtag $C$DW$T$36
    2138                    
TI ARM Assembler PC v15.12.1 Thu Oct 27 13:57:51 2016

Tools Copyright (c) 1996-2015 Texas Instruments Incorporated
Task_gyro.asm                                                        PAGE   40

    2139                    $C$DW$T$91      .dwtag  DW_TAG_typedef
    2140                            .dwattr $C$DW$T$91, DW_AT_name("tI2CMReadModifyWrite16")
    2141                            .dwattr $C$DW$T$91, DW_AT_type(*$C$DW$T$36)
    2142                            .dwattr $C$DW$T$91, DW_AT_language(DW_LANG_C)
    2143                            .dwattr $C$DW$T$91, DW_AT_decl_file("C:/TI_CodeComposer/TivaWare/sensorlib/i2cm_drv.h")
    2144                            .dwattr $C$DW$T$91, DW_AT_decl_line(0x116)
    2145                            .dwattr $C$DW$T$91, DW_AT_decl_column(0x01)
    2146                    
    2147                    $C$DW$T$92      .dwtag  DW_TAG_pointer_type
    2148                            .dwattr $C$DW$T$92, DW_AT_type(*$C$DW$T$91)
    2149                            .dwattr $C$DW$T$92, DW_AT_address_class(0x20)
    2150                    
    2151                    
    2152                    $C$DW$T$38      .dwtag  DW_TAG_structure_type
    2153                            .dwattr $C$DW$T$38, DW_AT_byte_size(0x14)
    2154                    $C$DW$199       .dwtag  DW_TAG_member
    2155                            .dwattr $C$DW$199, DW_AT_type(*$C$DW$T$34)
    2156                            .dwattr $C$DW$199, DW_AT_name("psI2CInst")
    2157                            .dwattr $C$DW$199, DW_AT_TI_symbol_name("psI2CInst")
    2158                            .dwattr $C$DW$199, DW_AT_data_member_location[DW_OP_plus_uconst 0x0]
    2159                            .dwattr $C$DW$199, DW_AT_accessibility(DW_ACCESS_public)
    2160                            .dwattr $C$DW$199, DW_AT_decl_file("C:/TI_CodeComposer/TivaWare/sensorlib/i2cm_drv.h")
    2161                            .dwattr $C$DW$199, DW_AT_decl_line(0x123)
    2162                            .dwattr $C$DW$199, DW_AT_decl_column(0x14)
    2163                    
    2164                    $C$DW$200       .dwtag  DW_TAG_member
    2165                            .dwattr $C$DW$200, DW_AT_type(*$C$DW$T$37)
    2166                            .dwattr $C$DW$200, DW_AT_name("pui8Buffer")
    2167                            .dwattr $C$DW$200, DW_AT_TI_symbol_name("pui8Buffer")
    2168                            .dwattr $C$DW$200, DW_AT_data_member_location[DW_OP_plus_uconst 0x4]
    2169                            .dwattr $C$DW$200, DW_AT_accessibility(DW_ACCESS_public)
    2170                            .dwattr $C$DW$200, DW_AT_decl_file("C:/TI_CodeComposer/TivaWare/sensorlib/i2cm_drv.h")
    2171                            .dwattr $C$DW$200, DW_AT_decl_line(0x128)
    2172                            .dwattr $C$DW$200, DW_AT_decl_column(0x0d)
    2173                    
    2174                    $C$DW$201       .dwtag  DW_TAG_member
    2175                            .dwattr $C$DW$201, DW_AT_type(*$C$DW$T$22)
    2176                            .dwattr $C$DW$201, DW_AT_name("ui16Count")
    2177                            .dwattr $C$DW$201, DW_AT_TI_symbol_name("ui16Count")
    2178                            .dwattr $C$DW$201, DW_AT_data_member_location[DW_OP_plus_uconst 0x6]
    2179                            .dwattr $C$DW$201, DW_AT_accessibility(DW_ACCESS_public)
    2180                            .dwattr $C$DW$201, DW_AT_decl_file("C:/TI_CodeComposer/TivaWare/sensorlib/i2cm_drv.h")
    2181                            .dwattr $C$DW$201, DW_AT_decl_line(0x12d)
    2182                            .dwattr $C$DW$201, DW_AT_decl_column(0x0e)
    2183                    
    2184                    $C$DW$202       .dwtag  DW_TAG_member
    2185                            .dwattr $C$DW$202, DW_AT_type(*$C$DW$T$21)
    2186                            .dwattr $C$DW$202, DW_AT_name("pui8Data")
    2187                            .dwattr $C$DW$202, DW_AT_TI_symbol_name("pui8Data")
    2188                            .dwattr $C$DW$202, DW_AT_data_member_location[DW_OP_plus_uconst 0x8]
    2189                            .dwattr $C$DW$202, DW_AT_accessibility(DW_ACCESS_public)
    2190                            .dwattr $C$DW$202, DW_AT_decl_file("C:/TI_CodeComposer/TivaWare/sensorlib/i2cm_drv.h")
    2191                            .dwattr $C$DW$202, DW_AT_decl_line(0x132)
    2192                            .dwattr $C$DW$202, DW_AT_decl_column(0x14)
    2193                    
TI ARM Assembler PC v15.12.1 Thu Oct 27 13:57:51 2016

Tools Copyright (c) 1996-2015 Texas Instruments Incorporated
Task_gyro.asm                                                        PAGE   41

    2194                    $C$DW$203       .dwtag  DW_TAG_member
    2195                            .dwattr $C$DW$203, DW_AT_type(*$C$DW$T$28)
    2196                            .dwattr $C$DW$203, DW_AT_name("pfnCallback")
    2197                            .dwattr $C$DW$203, DW_AT_TI_symbol_name("pfnCallback")
    2198                            .dwattr $C$DW$203, DW_AT_data_member_location[DW_OP_plus_uconst 0xc]
    2199                            .dwattr $C$DW$203, DW_AT_accessibility(DW_ACCESS_public)
    2200                            .dwattr $C$DW$203, DW_AT_decl_file("C:/TI_CodeComposer/TivaWare/sensorlib/i2cm_drv.h")
    2201                            .dwattr $C$DW$203, DW_AT_decl_line(0x137)
    2202                            .dwattr $C$DW$203, DW_AT_decl_column(0x16)
    2203                    
    2204                    $C$DW$204       .dwtag  DW_TAG_member
    2205                            .dwattr $C$DW$204, DW_AT_type(*$C$DW$T$3)
    2206                            .dwattr $C$DW$204, DW_AT_name("pvCallbackData")
    2207                            .dwattr $C$DW$204, DW_AT_TI_symbol_name("pvCallbackData")
    2208                            .dwattr $C$DW$204, DW_AT_data_member_location[DW_OP_plus_uconst 0x10]
    2209                            .dwattr $C$DW$204, DW_AT_accessibility(DW_ACCESS_public)
    2210                            .dwattr $C$DW$204, DW_AT_decl_file("C:/TI_CodeComposer/TivaWare/sensorlib/i2cm_drv.h")
    2211                            .dwattr $C$DW$204, DW_AT_decl_line(0x13c)
    2212                            .dwattr $C$DW$204, DW_AT_decl_column(0x0b)
    2213                    
    2214                            .dwattr $C$DW$T$38, DW_AT_decl_file("C:/TI_CodeComposer/TivaWare/sensorlib/i2cm_drv.h")
    2215                            .dwattr $C$DW$T$38, DW_AT_decl_line(0x11e)
    2216                            .dwattr $C$DW$T$38, DW_AT_decl_column(0x01)
    2217                            .dwendtag $C$DW$T$38
    2218                    
    2219                    $C$DW$T$49      .dwtag  DW_TAG_typedef
    2220                            .dwattr $C$DW$T$49, DW_AT_name("tI2CMWrite8")
    2221                            .dwattr $C$DW$T$49, DW_AT_type(*$C$DW$T$38)
    2222                            .dwattr $C$DW$T$49, DW_AT_language(DW_LANG_C)
    2223                            .dwattr $C$DW$T$49, DW_AT_decl_file("C:/TI_CodeComposer/TivaWare/sensorlib/i2cm_drv.h")
    2224                            .dwattr $C$DW$T$49, DW_AT_decl_line(0x13e)
    2225                            .dwattr $C$DW$T$49, DW_AT_decl_column(0x01)
    2226                    
    2227                    
    2228                    $C$DW$T$39      .dwtag  DW_TAG_structure_type
    2229                            .dwattr $C$DW$T$39, DW_AT_byte_size(0x14)
    2230                    $C$DW$205       .dwtag  DW_TAG_member
    2231                            .dwattr $C$DW$205, DW_AT_type(*$C$DW$T$34)
    2232                            .dwattr $C$DW$205, DW_AT_name("psI2CInst")
    2233                            .dwattr $C$DW$205, DW_AT_TI_symbol_name("psI2CInst")
    2234                            .dwattr $C$DW$205, DW_AT_data_member_location[DW_OP_plus_uconst 0x0]
    2235                            .dwattr $C$DW$205, DW_AT_accessibility(DW_ACCESS_public)
    2236                            .dwattr $C$DW$205, DW_AT_decl_file("C:/TI_CodeComposer/TivaWare/sensorlib/i2cm_drv.h")
    2237                            .dwattr $C$DW$205, DW_AT_decl_line(0xbc)
    2238                            .dwattr $C$DW$205, DW_AT_decl_column(0x14)
    2239                    
    2240                    $C$DW$206       .dwtag  DW_TAG_member
    2241                            .dwattr $C$DW$206, DW_AT_type(*$C$DW$T$35)
    2242                            .dwattr $C$DW$206, DW_AT_name("pui8Buffer")
    2243                            .dwattr $C$DW$206, DW_AT_TI_symbol_name("pui8Buffer")
    2244                            .dwattr $C$DW$206, DW_AT_data_member_location[DW_OP_plus_uconst 0x4]
    2245                            .dwattr $C$DW$206, DW_AT_accessibility(DW_ACCESS_public)
    2246                            .dwattr $C$DW$206, DW_AT_decl_file("C:/TI_CodeComposer/TivaWare/sensorlib/i2cm_drv.h")
    2247                            .dwattr $C$DW$206, DW_AT_decl_line(0xc1)
    2248                            .dwattr $C$DW$206, DW_AT_decl_column(0x0d)
TI ARM Assembler PC v15.12.1 Thu Oct 27 13:57:51 2016

Tools Copyright (c) 1996-2015 Texas Instruments Incorporated
Task_gyro.asm                                                        PAGE   42

    2249                    
    2250                    $C$DW$207       .dwtag  DW_TAG_member
    2251                            .dwattr $C$DW$207, DW_AT_type(*$C$DW$T$19)
    2252                            .dwattr $C$DW$207, DW_AT_name("ui8State")
    2253                            .dwattr $C$DW$207, DW_AT_TI_symbol_name("ui8State")
    2254                            .dwattr $C$DW$207, DW_AT_data_member_location[DW_OP_plus_uconst 0x8]
    2255                            .dwattr $C$DW$207, DW_AT_accessibility(DW_ACCESS_public)
    2256                            .dwattr $C$DW$207, DW_AT_decl_file("C:/TI_CodeComposer/TivaWare/sensorlib/i2cm_drv.h")
    2257                            .dwattr $C$DW$207, DW_AT_decl_line(0xc6)
    2258                            .dwattr $C$DW$207, DW_AT_decl_column(0x0d)
    2259                    
    2260                    $C$DW$208       .dwtag  DW_TAG_member
    2261                            .dwattr $C$DW$208, DW_AT_type(*$C$DW$T$19)
    2262                            .dwattr $C$DW$208, DW_AT_name("ui8Addr")
    2263                            .dwattr $C$DW$208, DW_AT_TI_symbol_name("ui8Addr")
    2264                            .dwattr $C$DW$208, DW_AT_data_member_location[DW_OP_plus_uconst 0x9]
    2265                            .dwattr $C$DW$208, DW_AT_accessibility(DW_ACCESS_public)
    2266                            .dwattr $C$DW$208, DW_AT_decl_file("C:/TI_CodeComposer/TivaWare/sensorlib/i2cm_drv.h")
    2267                            .dwattr $C$DW$208, DW_AT_decl_line(0xcb)
    2268                            .dwattr $C$DW$208, DW_AT_decl_column(0x0d)
    2269                    
    2270                    $C$DW$209       .dwtag  DW_TAG_member
    2271                            .dwattr $C$DW$209, DW_AT_type(*$C$DW$T$19)
    2272                            .dwattr $C$DW$209, DW_AT_name("ui8Mask")
    2273                            .dwattr $C$DW$209, DW_AT_TI_symbol_name("ui8Mask")
    2274                            .dwattr $C$DW$209, DW_AT_data_member_location[DW_OP_plus_uconst 0xa]
    2275                            .dwattr $C$DW$209, DW_AT_accessibility(DW_ACCESS_public)
    2276                            .dwattr $C$DW$209, DW_AT_decl_file("C:/TI_CodeComposer/TivaWare/sensorlib/i2cm_drv.h")
    2277                            .dwattr $C$DW$209, DW_AT_decl_line(0xd0)
    2278                            .dwattr $C$DW$209, DW_AT_decl_column(0x0d)
    2279                    
    2280                    $C$DW$210       .dwtag  DW_TAG_member
    2281                            .dwattr $C$DW$210, DW_AT_type(*$C$DW$T$19)
    2282                            .dwattr $C$DW$210, DW_AT_name("ui8Value")
    2283                            .dwattr $C$DW$210, DW_AT_TI_symbol_name("ui8Value")
    2284                            .dwattr $C$DW$210, DW_AT_data_member_location[DW_OP_plus_uconst 0xb]
    2285                            .dwattr $C$DW$210, DW_AT_accessibility(DW_ACCESS_public)
    2286                            .dwattr $C$DW$210, DW_AT_decl_file("C:/TI_CodeComposer/TivaWare/sensorlib/i2cm_drv.h")
    2287                            .dwattr $C$DW$210, DW_AT_decl_line(0xd5)
    2288                            .dwattr $C$DW$210, DW_AT_decl_column(0x0d)
    2289                    
    2290                    $C$DW$211       .dwtag  DW_TAG_member
    2291                            .dwattr $C$DW$211, DW_AT_type(*$C$DW$T$28)
    2292                            .dwattr $C$DW$211, DW_AT_name("pfnCallback")
    2293                            .dwattr $C$DW$211, DW_AT_TI_symbol_name("pfnCallback")
    2294                            .dwattr $C$DW$211, DW_AT_data_member_location[DW_OP_plus_uconst 0xc]
    2295                            .dwattr $C$DW$211, DW_AT_accessibility(DW_ACCESS_public)
    2296                            .dwattr $C$DW$211, DW_AT_decl_file("C:/TI_CodeComposer/TivaWare/sensorlib/i2cm_drv.h")
    2297                            .dwattr $C$DW$211, DW_AT_decl_line(0xdb)
    2298                            .dwattr $C$DW$211, DW_AT_decl_column(0x16)
    2299                    
    2300                    $C$DW$212       .dwtag  DW_TAG_member
    2301                            .dwattr $C$DW$212, DW_AT_type(*$C$DW$T$3)
    2302                            .dwattr $C$DW$212, DW_AT_name("pvCallbackData")
    2303                            .dwattr $C$DW$212, DW_AT_TI_symbol_name("pvCallbackData")
TI ARM Assembler PC v15.12.1 Thu Oct 27 13:57:51 2016

Tools Copyright (c) 1996-2015 Texas Instruments Incorporated
Task_gyro.asm                                                        PAGE   43

    2304                            .dwattr $C$DW$212, DW_AT_data_member_location[DW_OP_plus_uconst 0x10]
    2305                            .dwattr $C$DW$212, DW_AT_accessibility(DW_ACCESS_public)
    2306                            .dwattr $C$DW$212, DW_AT_decl_file("C:/TI_CodeComposer/TivaWare/sensorlib/i2cm_drv.h")
    2307                            .dwattr $C$DW$212, DW_AT_decl_line(0xe0)
    2308                            .dwattr $C$DW$212, DW_AT_decl_column(0x0b)
    2309                    
    2310                            .dwattr $C$DW$T$39, DW_AT_decl_file("C:/TI_CodeComposer/TivaWare/sensorlib/i2cm_drv.h")
    2311                            .dwattr $C$DW$T$39, DW_AT_decl_line(0xb7)
    2312                            .dwattr $C$DW$T$39, DW_AT_decl_column(0x01)
    2313                            .dwendtag $C$DW$T$39
    2314                    
    2315                    $C$DW$T$50      .dwtag  DW_TAG_typedef
    2316                            .dwattr $C$DW$T$50, DW_AT_name("tI2CMReadModifyWrite8")
    2317                            .dwattr $C$DW$T$50, DW_AT_type(*$C$DW$T$39)
    2318                            .dwattr $C$DW$T$50, DW_AT_language(DW_LANG_C)
    2319                            .dwattr $C$DW$T$50, DW_AT_decl_file("C:/TI_CodeComposer/TivaWare/sensorlib/i2cm_drv.h")
    2320                            .dwattr $C$DW$T$50, DW_AT_decl_line(0xe2)
    2321                            .dwattr $C$DW$T$50, DW_AT_decl_column(0x01)
    2322                    
    2323                    
    2324                    $C$DW$T$41      .dwtag  DW_TAG_structure_type
    2325                            .dwattr $C$DW$T$41, DW_AT_byte_size(0x2c)
    2326                    $C$DW$213       .dwtag  DW_TAG_member
    2327                            .dwattr $C$DW$213, DW_AT_type(*$C$DW$T$34)
    2328                            .dwattr $C$DW$213, DW_AT_name("psI2CInst")
    2329                            .dwattr $C$DW$213, DW_AT_TI_symbol_name("psI2CInst")
    2330                            .dwattr $C$DW$213, DW_AT_data_member_location[DW_OP_plus_uconst 0x0]
    2331                            .dwattr $C$DW$213, DW_AT_accessibility(DW_ACCESS_public)
    2332                            .dwattr $C$DW$213, DW_AT_decl_file("C:/TI_CodeComposer/TivaWare/sensorlib/ak8975.h")
    2333                            .dwattr $C$DW$213, DW_AT_decl_line(0x32)
    2334                            .dwattr $C$DW$213, DW_AT_decl_column(0x14)
    2335                    
    2336                    $C$DW$214       .dwtag  DW_TAG_member
    2337                            .dwattr $C$DW$214, DW_AT_type(*$C$DW$T$19)
    2338                            .dwattr $C$DW$214, DW_AT_name("ui8Addr")
    2339                            .dwattr $C$DW$214, DW_AT_TI_symbol_name("ui8Addr")
    2340                            .dwattr $C$DW$214, DW_AT_data_member_location[DW_OP_plus_uconst 0x4]
    2341                            .dwattr $C$DW$214, DW_AT_accessibility(DW_ACCESS_public)
    2342                            .dwattr $C$DW$214, DW_AT_decl_file("C:/TI_CodeComposer/TivaWare/sensorlib/ak8975.h")
    2343                            .dwattr $C$DW$214, DW_AT_decl_line(0x37)
    2344                            .dwattr $C$DW$214, DW_AT_decl_column(0x0d)
    2345                    
    2346                    $C$DW$215       .dwtag  DW_TAG_member
    2347                            .dwattr $C$DW$215, DW_AT_type(*$C$DW$T$19)
    2348                            .dwattr $C$DW$215, DW_AT_name("ui8State")
    2349                            .dwattr $C$DW$215, DW_AT_TI_symbol_name("ui8State")
    2350                            .dwattr $C$DW$215, DW_AT_data_member_location[DW_OP_plus_uconst 0x5]
    2351                            .dwattr $C$DW$215, DW_AT_accessibility(DW_ACCESS_public)
    2352                            .dwattr $C$DW$215, DW_AT_decl_file("C:/TI_CodeComposer/TivaWare/sensorlib/ak8975.h")
    2353                            .dwattr $C$DW$215, DW_AT_decl_line(0x3c)
    2354                            .dwattr $C$DW$215, DW_AT_decl_column(0x0d)
    2355                    
    2356                    $C$DW$216       .dwtag  DW_TAG_member
    2357                            .dwattr $C$DW$216, DW_AT_type(*$C$DW$T$40)
    2358                            .dwattr $C$DW$216, DW_AT_name("pui8Data")
TI ARM Assembler PC v15.12.1 Thu Oct 27 13:57:51 2016

Tools Copyright (c) 1996-2015 Texas Instruments Incorporated
Task_gyro.asm                                                        PAGE   44

    2359                            .dwattr $C$DW$216, DW_AT_TI_symbol_name("pui8Data")
    2360                            .dwattr $C$DW$216, DW_AT_data_member_location[DW_OP_plus_uconst 0x6]
    2361                            .dwattr $C$DW$216, DW_AT_accessibility(DW_ACCESS_public)
    2362                            .dwattr $C$DW$216, DW_AT_decl_file("C:/TI_CodeComposer/TivaWare/sensorlib/ak8975.h")
    2363                            .dwattr $C$DW$216, DW_AT_decl_line(0x41)
    2364                            .dwattr $C$DW$216, DW_AT_decl_column(0x0d)
    2365                    
    2366                    $C$DW$217       .dwtag  DW_TAG_member
    2367                            .dwattr $C$DW$217, DW_AT_type(*$C$DW$T$28)
    2368                            .dwattr $C$DW$217, DW_AT_name("pfnCallback")
    2369                            .dwattr $C$DW$217, DW_AT_TI_symbol_name("pfnCallback")
    2370                            .dwattr $C$DW$217, DW_AT_data_member_location[DW_OP_plus_uconst 0x10]
    2371                            .dwattr $C$DW$217, DW_AT_accessibility(DW_ACCESS_public)
    2372                            .dwattr $C$DW$217, DW_AT_decl_file("C:/TI_CodeComposer/TivaWare/sensorlib/ak8975.h")
    2373                            .dwattr $C$DW$217, DW_AT_decl_line(0x47)
    2374                            .dwattr $C$DW$217, DW_AT_decl_column(0x16)
    2375                    
    2376                    $C$DW$218       .dwtag  DW_TAG_member
    2377                            .dwattr $C$DW$218, DW_AT_type(*$C$DW$T$3)
    2378                            .dwattr $C$DW$218, DW_AT_name("pvCallbackData")
    2379                            .dwattr $C$DW$218, DW_AT_TI_symbol_name("pvCallbackData")
    2380                            .dwattr $C$DW$218, DW_AT_data_member_location[DW_OP_plus_uconst 0x14]
    2381                            .dwattr $C$DW$218, DW_AT_accessibility(DW_ACCESS_public)
    2382                            .dwattr $C$DW$218, DW_AT_decl_file("C:/TI_CodeComposer/TivaWare/sensorlib/ak8975.h")
    2383                            .dwattr $C$DW$218, DW_AT_decl_line(0x4c)
    2384                            .dwattr $C$DW$218, DW_AT_decl_column(0x0b)
    2385                    
    2386                    $C$DW$219       .dwtag  DW_TAG_member
    2387                            .dwattr $C$DW$219, DW_AT_type(*$C$DW$T$51)
    2388                            .dwattr $C$DW$219, DW_AT_name("uCommand")
    2389                            .dwattr $C$DW$219, DW_AT_TI_symbol_name("uCommand")
    2390                            .dwattr $C$DW$219, DW_AT_data_member_location[DW_OP_plus_uconst 0x18]
    2391                            .dwattr $C$DW$219, DW_AT_accessibility(DW_ACCESS_public)
    2392                            .dwattr $C$DW$219, DW_AT_decl_file("C:/TI_CodeComposer/TivaWare/sensorlib/ak8975.h")
    2393                            .dwattr $C$DW$219, DW_AT_decl_line(0x64)
    2394                            .dwattr $C$DW$219, DW_AT_decl_column(0x05)
    2395                    
    2396                            .dwattr $C$DW$T$41, DW_AT_decl_file("C:/TI_CodeComposer/TivaWare/sensorlib/ak8975.h")
    2397                            .dwattr $C$DW$T$41, DW_AT_decl_line(0x2d)
    2398                            .dwattr $C$DW$T$41, DW_AT_decl_column(0x01)
    2399                            .dwendtag $C$DW$T$41
    2400                    
    2401                    $C$DW$T$42      .dwtag  DW_TAG_typedef
    2402                            .dwattr $C$DW$T$42, DW_AT_name("tAK8975")
    2403                            .dwattr $C$DW$T$42, DW_AT_type(*$C$DW$T$41)
    2404                            .dwattr $C$DW$T$42, DW_AT_language(DW_LANG_C)
    2405                            .dwattr $C$DW$T$42, DW_AT_decl_file("C:/TI_CodeComposer/TivaWare/sensorlib/ak8975.h")
    2406                            .dwattr $C$DW$T$42, DW_AT_decl_line(0x66)
    2407                            .dwattr $C$DW$T$42, DW_AT_decl_column(0x01)
    2408                    
    2409                    
    2410                    $C$DW$T$44      .dwtag  DW_TAG_structure_type
    2411                            .dwattr $C$DW$T$44, DW_AT_byte_size(0x6c)
    2412                    $C$DW$220       .dwtag  DW_TAG_member
    2413                            .dwattr $C$DW$220, DW_AT_type(*$C$DW$T$34)
TI ARM Assembler PC v15.12.1 Thu Oct 27 13:57:51 2016

Tools Copyright (c) 1996-2015 Texas Instruments Incorporated
Task_gyro.asm                                                        PAGE   45

    2414                            .dwattr $C$DW$220, DW_AT_name("psI2CInst")
    2415                            .dwattr $C$DW$220, DW_AT_TI_symbol_name("psI2CInst")
    2416                            .dwattr $C$DW$220, DW_AT_data_member_location[DW_OP_plus_uconst 0x0]
    2417                            .dwattr $C$DW$220, DW_AT_accessibility(DW_ACCESS_public)
    2418                            .dwattr $C$DW$220, DW_AT_decl_file("C:/TI_CodeComposer/TivaWare/sensorlib/mpu9150.h")
    2419                            .dwattr $C$DW$220, DW_AT_decl_line(0x33)
    2420                            .dwattr $C$DW$220, DW_AT_decl_column(0x14)
    2421                    
    2422                    $C$DW$221       .dwtag  DW_TAG_member
    2423                            .dwattr $C$DW$221, DW_AT_type(*$C$DW$T$42)
    2424                            .dwattr $C$DW$221, DW_AT_name("sAK8975Inst")
    2425                            .dwattr $C$DW$221, DW_AT_TI_symbol_name("sAK8975Inst")
    2426                            .dwattr $C$DW$221, DW_AT_data_member_location[DW_OP_plus_uconst 0x4]
    2427                            .dwattr $C$DW$221, DW_AT_accessibility(DW_ACCESS_public)
    2428                            .dwattr $C$DW$221, DW_AT_decl_file("C:/TI_CodeComposer/TivaWare/sensorlib/mpu9150.h")
    2429                            .dwattr $C$DW$221, DW_AT_decl_line(0x38)
    2430                            .dwattr $C$DW$221, DW_AT_decl_column(0x0d)
    2431                    
    2432                    $C$DW$222       .dwtag  DW_TAG_member
    2433                            .dwattr $C$DW$222, DW_AT_type(*$C$DW$T$19)
    2434                            .dwattr $C$DW$222, DW_AT_name("ui8Addr")
    2435                            .dwattr $C$DW$222, DW_AT_TI_symbol_name("ui8Addr")
    2436                            .dwattr $C$DW$222, DW_AT_data_member_location[DW_OP_plus_uconst 0x30]
    2437                            .dwattr $C$DW$222, DW_AT_accessibility(DW_ACCESS_public)
    2438                            .dwattr $C$DW$222, DW_AT_decl_file("C:/TI_CodeComposer/TivaWare/sensorlib/mpu9150.h")
    2439                            .dwattr $C$DW$222, DW_AT_decl_line(0x3d)
    2440                            .dwattr $C$DW$222, DW_AT_decl_column(0x0d)
    2441                    
    2442                    $C$DW$223       .dwtag  DW_TAG_member
    2443                            .dwattr $C$DW$223, DW_AT_type(*$C$DW$T$19)
    2444                            .dwattr $C$DW$223, DW_AT_name("ui8State")
    2445                            .dwattr $C$DW$223, DW_AT_TI_symbol_name("ui8State")
    2446                            .dwattr $C$DW$223, DW_AT_data_member_location[DW_OP_plus_uconst 0x31]
    2447                            .dwattr $C$DW$223, DW_AT_accessibility(DW_ACCESS_public)
    2448                            .dwattr $C$DW$223, DW_AT_decl_file("C:/TI_CodeComposer/TivaWare/sensorlib/mpu9150.h")
    2449                            .dwattr $C$DW$223, DW_AT_decl_line(0x42)
    2450                            .dwattr $C$DW$223, DW_AT_decl_column(0x0d)
    2451                    
    2452                    $C$DW$224       .dwtag  DW_TAG_member
    2453                            .dwattr $C$DW$224, DW_AT_type(*$C$DW$T$19)
    2454                            .dwattr $C$DW$224, DW_AT_name("ui8AccelAfsSel")
    2455                            .dwattr $C$DW$224, DW_AT_TI_symbol_name("ui8AccelAfsSel")
    2456                            .dwattr $C$DW$224, DW_AT_data_member_location[DW_OP_plus_uconst 0x32]
    2457                            .dwattr $C$DW$224, DW_AT_accessibility(DW_ACCESS_public)
    2458                            .dwattr $C$DW$224, DW_AT_decl_file("C:/TI_CodeComposer/TivaWare/sensorlib/mpu9150.h")
    2459                            .dwattr $C$DW$224, DW_AT_decl_line(0x47)
    2460                            .dwattr $C$DW$224, DW_AT_decl_column(0x0d)
    2461                    
    2462                    $C$DW$225       .dwtag  DW_TAG_member
    2463                            .dwattr $C$DW$225, DW_AT_type(*$C$DW$T$19)
    2464                            .dwattr $C$DW$225, DW_AT_name("ui8NewAccelAfsSel")
    2465                            .dwattr $C$DW$225, DW_AT_TI_symbol_name("ui8NewAccelAfsSel")
    2466                            .dwattr $C$DW$225, DW_AT_data_member_location[DW_OP_plus_uconst 0x33]
    2467                            .dwattr $C$DW$225, DW_AT_accessibility(DW_ACCESS_public)
    2468                            .dwattr $C$DW$225, DW_AT_decl_file("C:/TI_CodeComposer/TivaWare/sensorlib/mpu9150.h")
TI ARM Assembler PC v15.12.1 Thu Oct 27 13:57:51 2016

Tools Copyright (c) 1996-2015 Texas Instruments Incorporated
Task_gyro.asm                                                        PAGE   46

    2469                            .dwattr $C$DW$225, DW_AT_decl_line(0x4d)
    2470                            .dwattr $C$DW$225, DW_AT_decl_column(0x0d)
    2471                    
    2472                    $C$DW$226       .dwtag  DW_TAG_member
    2473                            .dwattr $C$DW$226, DW_AT_type(*$C$DW$T$19)
    2474                            .dwattr $C$DW$226, DW_AT_name("ui8GyroFsSel")
    2475                            .dwattr $C$DW$226, DW_AT_TI_symbol_name("ui8GyroFsSel")
    2476                            .dwattr $C$DW$226, DW_AT_data_member_location[DW_OP_plus_uconst 0x34]
    2477                            .dwattr $C$DW$226, DW_AT_accessibility(DW_ACCESS_public)
    2478                            .dwattr $C$DW$226, DW_AT_decl_file("C:/TI_CodeComposer/TivaWare/sensorlib/mpu9150.h")
    2479                            .dwattr $C$DW$226, DW_AT_decl_line(0x52)
    2480                            .dwattr $C$DW$226, DW_AT_decl_column(0x0d)
    2481                    
    2482                    $C$DW$227       .dwtag  DW_TAG_member
    2483                            .dwattr $C$DW$227, DW_AT_type(*$C$DW$T$19)
    2484                            .dwattr $C$DW$227, DW_AT_name("ui8NewGyroFsSel")
    2485                            .dwattr $C$DW$227, DW_AT_TI_symbol_name("ui8NewGyroFsSel")
    2486                            .dwattr $C$DW$227, DW_AT_data_member_location[DW_OP_plus_uconst 0x35]
    2487                            .dwattr $C$DW$227, DW_AT_accessibility(DW_ACCESS_public)
    2488                            .dwattr $C$DW$227, DW_AT_decl_file("C:/TI_CodeComposer/TivaWare/sensorlib/mpu9150.h")
    2489                            .dwattr $C$DW$227, DW_AT_decl_line(0x58)
    2490                            .dwattr $C$DW$227, DW_AT_decl_column(0x0d)
    2491                    
    2492                    $C$DW$228       .dwtag  DW_TAG_member
    2493                            .dwattr $C$DW$228, DW_AT_type(*$C$DW$T$43)
    2494                            .dwattr $C$DW$228, DW_AT_name("pui8Data")
    2495                            .dwattr $C$DW$228, DW_AT_TI_symbol_name("pui8Data")
    2496                            .dwattr $C$DW$228, DW_AT_data_member_location[DW_OP_plus_uconst 0x36]
    2497                            .dwattr $C$DW$228, DW_AT_accessibility(DW_ACCESS_public)
    2498                            .dwattr $C$DW$228, DW_AT_decl_file("C:/TI_CodeComposer/TivaWare/sensorlib/mpu9150.h")
    2499                            .dwattr $C$DW$228, DW_AT_decl_line(0x5d)
    2500                            .dwattr $C$DW$228, DW_AT_decl_column(0x0d)
    2501                    
    2502                    $C$DW$229       .dwtag  DW_TAG_member
    2503                            .dwattr $C$DW$229, DW_AT_type(*$C$DW$T$28)
    2504                            .dwattr $C$DW$229, DW_AT_name("pfnCallback")
    2505                            .dwattr $C$DW$229, DW_AT_TI_symbol_name("pfnCallback")
    2506                            .dwattr $C$DW$229, DW_AT_data_member_location[DW_OP_plus_uconst 0x50]
    2507                            .dwattr $C$DW$229, DW_AT_accessibility(DW_ACCESS_public)
    2508                            .dwattr $C$DW$229, DW_AT_decl_file("C:/TI_CodeComposer/TivaWare/sensorlib/mpu9150.h")
    2509                            .dwattr $C$DW$229, DW_AT_decl_line(0x63)
    2510                            .dwattr $C$DW$229, DW_AT_decl_column(0x16)
    2511                    
    2512                    $C$DW$230       .dwtag  DW_TAG_member
    2513                            .dwattr $C$DW$230, DW_AT_type(*$C$DW$T$3)
    2514                            .dwattr $C$DW$230, DW_AT_name("pvCallbackData")
    2515                            .dwattr $C$DW$230, DW_AT_TI_symbol_name("pvCallbackData")
    2516                            .dwattr $C$DW$230, DW_AT_data_member_location[DW_OP_plus_uconst 0x54]
    2517                            .dwattr $C$DW$230, DW_AT_accessibility(DW_ACCESS_public)
    2518                            .dwattr $C$DW$230, DW_AT_decl_file("C:/TI_CodeComposer/TivaWare/sensorlib/mpu9150.h")
    2519                            .dwattr $C$DW$230, DW_AT_decl_line(0x68)
    2520                            .dwattr $C$DW$230, DW_AT_decl_column(0x0b)
    2521                    
    2522                    $C$DW$231       .dwtag  DW_TAG_member
    2523                            .dwattr $C$DW$231, DW_AT_type(*$C$DW$T$53)
TI ARM Assembler PC v15.12.1 Thu Oct 27 13:57:51 2016

Tools Copyright (c) 1996-2015 Texas Instruments Incorporated
Task_gyro.asm                                                        PAGE   47

    2524                            .dwattr $C$DW$231, DW_AT_name("uCommand")
    2525                            .dwattr $C$DW$231, DW_AT_TI_symbol_name("uCommand")
    2526                            .dwattr $C$DW$231, DW_AT_data_member_location[DW_OP_plus_uconst 0x58]
    2527                            .dwattr $C$DW$231, DW_AT_accessibility(DW_ACCESS_public)
    2528                            .dwattr $C$DW$231, DW_AT_decl_file("C:/TI_CodeComposer/TivaWare/sensorlib/mpu9150.h")
    2529                            .dwattr $C$DW$231, DW_AT_decl_line(0x80)
    2530                            .dwattr $C$DW$231, DW_AT_decl_column(0x05)
    2531                    
    2532                            .dwattr $C$DW$T$44, DW_AT_decl_file("C:/TI_CodeComposer/TivaWare/sensorlib/mpu9150.h")
    2533                            .dwattr $C$DW$T$44, DW_AT_decl_line(0x2e)
    2534                            .dwattr $C$DW$T$44, DW_AT_decl_column(0x01)
    2535                            .dwendtag $C$DW$T$44
    2536                    
    2537                    $C$DW$T$93      .dwtag  DW_TAG_typedef
    2538                            .dwattr $C$DW$T$93, DW_AT_name("tMPU9150")
    2539                            .dwattr $C$DW$T$93, DW_AT_type(*$C$DW$T$44)
    2540                            .dwattr $C$DW$T$93, DW_AT_language(DW_LANG_C)
    2541                            .dwattr $C$DW$T$93, DW_AT_decl_file("C:/TI_CodeComposer/TivaWare/sensorlib/mpu9150.h")
    2542                            .dwattr $C$DW$T$93, DW_AT_decl_line(0x82)
    2543                            .dwattr $C$DW$T$93, DW_AT_decl_column(0x01)
    2544                    
    2545                    $C$DW$T$94      .dwtag  DW_TAG_pointer_type
    2546                            .dwattr $C$DW$T$94, DW_AT_type(*$C$DW$T$93)
    2547                            .dwattr $C$DW$T$94, DW_AT_address_class(0x20)
    2548                    
    2549                    
    2550                    $C$DW$T$46      .dwtag  DW_TAG_structure_type
    2551                            .dwattr $C$DW$T$46, DW_AT_byte_size(0x18)
    2552                    $C$DW$232       .dwtag  DW_TAG_member
    2553                            .dwattr $C$DW$232, DW_AT_type(*$C$DW$T$10)
    2554                            .dwattr $C$DW$232, DW_AT_name("fd")
    2555                            .dwattr $C$DW$232, DW_AT_TI_symbol_name("fd")
    2556                            .dwattr $C$DW$232, DW_AT_data_member_location[DW_OP_plus_uconst 0x0]
    2557                            .dwattr $C$DW$232, DW_AT_accessibility(DW_ACCESS_public)
    2558                            .dwattr $C$DW$232, DW_AT_decl_file("C:/TI_CodeComposer/ccsv6/tools/compiler/ti-cgt-arm_15.12.1
    2559                            .dwattr $C$DW$232, DW_AT_decl_line(0x5c)
    2560                            .dwattr $C$DW$232, DW_AT_decl_column(0x0b)
    2561                    
    2562                    $C$DW$233       .dwtag  DW_TAG_member
    2563                            .dwattr $C$DW$233, DW_AT_type(*$C$DW$T$45)
    2564                            .dwattr $C$DW$233, DW_AT_name("buf")
    2565                            .dwattr $C$DW$233, DW_AT_TI_symbol_name("buf")
    2566                            .dwattr $C$DW$233, DW_AT_data_member_location[DW_OP_plus_uconst 0x4]
    2567                            .dwattr $C$DW$233, DW_AT_accessibility(DW_ACCESS_public)
    2568                            .dwattr $C$DW$233, DW_AT_decl_file("C:/TI_CodeComposer/ccsv6/tools/compiler/ti-cgt-arm_15.12.1
    2569                            .dwattr $C$DW$233, DW_AT_decl_line(0x5d)
    2570                            .dwattr $C$DW$233, DW_AT_decl_column(0x16)
    2571                    
    2572                    $C$DW$234       .dwtag  DW_TAG_member
    2573                            .dwattr $C$DW$234, DW_AT_type(*$C$DW$T$45)
    2574                            .dwattr $C$DW$234, DW_AT_name("pos")
    2575                            .dwattr $C$DW$234, DW_AT_TI_symbol_name("pos")
    2576                            .dwattr $C$DW$234, DW_AT_data_member_location[DW_OP_plus_uconst 0x8]
    2577                            .dwattr $C$DW$234, DW_AT_accessibility(DW_ACCESS_public)
    2578                            .dwattr $C$DW$234, DW_AT_decl_file("C:/TI_CodeComposer/ccsv6/tools/compiler/ti-cgt-arm_15.12.1
TI ARM Assembler PC v15.12.1 Thu Oct 27 13:57:51 2016

Tools Copyright (c) 1996-2015 Texas Instruments Incorporated
Task_gyro.asm                                                        PAGE   48

    2579                            .dwattr $C$DW$234, DW_AT_decl_line(0x5e)
    2580                            .dwattr $C$DW$234, DW_AT_decl_column(0x16)
    2581                    
    2582                    $C$DW$235       .dwtag  DW_TAG_member
    2583                            .dwattr $C$DW$235, DW_AT_type(*$C$DW$T$45)
    2584                            .dwattr $C$DW$235, DW_AT_name("bufend")
    2585                            .dwattr $C$DW$235, DW_AT_TI_symbol_name("bufend")
    2586                            .dwattr $C$DW$235, DW_AT_data_member_location[DW_OP_plus_uconst 0xc]
    2587                            .dwattr $C$DW$235, DW_AT_accessibility(DW_ACCESS_public)
    2588                            .dwattr $C$DW$235, DW_AT_decl_file("C:/TI_CodeComposer/ccsv6/tools/compiler/ti-cgt-arm_15.12.1
    2589                            .dwattr $C$DW$235, DW_AT_decl_line(0x5f)
    2590                            .dwattr $C$DW$235, DW_AT_decl_column(0x16)
    2591                    
    2592                    $C$DW$236       .dwtag  DW_TAG_member
    2593                            .dwattr $C$DW$236, DW_AT_type(*$C$DW$T$45)
    2594                            .dwattr $C$DW$236, DW_AT_name("buff_stop")
    2595                            .dwattr $C$DW$236, DW_AT_TI_symbol_name("buff_stop")
    2596                            .dwattr $C$DW$236, DW_AT_data_member_location[DW_OP_plus_uconst 0x10]
    2597                            .dwattr $C$DW$236, DW_AT_accessibility(DW_ACCESS_public)
    2598                            .dwattr $C$DW$236, DW_AT_decl_file("C:/TI_CodeComposer/ccsv6/tools/compiler/ti-cgt-arm_15.12.1
    2599                            .dwattr $C$DW$236, DW_AT_decl_line(0x60)
    2600                            .dwattr $C$DW$236, DW_AT_decl_column(0x16)
    2601                    
    2602                    $C$DW$237       .dwtag  DW_TAG_member
    2603                            .dwattr $C$DW$237, DW_AT_type(*$C$DW$T$11)
    2604                            .dwattr $C$DW$237, DW_AT_name("flags")
    2605                            .dwattr $C$DW$237, DW_AT_TI_symbol_name("flags")
    2606                            .dwattr $C$DW$237, DW_AT_data_member_location[DW_OP_plus_uconst 0x14]
    2607                            .dwattr $C$DW$237, DW_AT_accessibility(DW_ACCESS_public)
    2608                            .dwattr $C$DW$237, DW_AT_decl_file("C:/TI_CodeComposer/ccsv6/tools/compiler/ti-cgt-arm_15.12.1
    2609                            .dwattr $C$DW$237, DW_AT_decl_line(0x61)
    2610                            .dwattr $C$DW$237, DW_AT_decl_column(0x16)
    2611                    
    2612                            .dwattr $C$DW$T$46, DW_AT_decl_file("C:/TI_CodeComposer/ccsv6/tools/compiler/ti-cgt-arm_15.12.
    2613                            .dwattr $C$DW$T$46, DW_AT_decl_line(0x5b)
    2614                            .dwattr $C$DW$T$46, DW_AT_decl_column(0x10)
    2615                            .dwendtag $C$DW$T$46
    2616                    
    2617                    $C$DW$T$95      .dwtag  DW_TAG_typedef
    2618                            .dwattr $C$DW$T$95, DW_AT_name("FILE")
    2619                            .dwattr $C$DW$T$95, DW_AT_type(*$C$DW$T$46)
    2620                            .dwattr $C$DW$T$95, DW_AT_language(DW_LANG_C)
    2621                            .dwattr $C$DW$T$95, DW_AT_decl_file("C:/TI_CodeComposer/ccsv6/tools/compiler/ti-cgt-arm_15.12.
    2622                            .dwattr $C$DW$T$95, DW_AT_decl_line(0x62)
    2623                            .dwattr $C$DW$T$95, DW_AT_decl_column(0x03)
    2624                    
    2625                    
    2626                    $C$DW$T$47      .dwtag  DW_TAG_structure_type
    2627                            .dwattr $C$DW$T$47, DW_AT_byte_size(0x14)
    2628                    $C$DW$238       .dwtag  DW_TAG_member
    2629                            .dwattr $C$DW$238, DW_AT_type(*$C$DW$T$34)
    2630                            .dwattr $C$DW$238, DW_AT_name("psI2CInst")
    2631                            .dwattr $C$DW$238, DW_AT_TI_symbol_name("psI2CInst")
    2632                            .dwattr $C$DW$238, DW_AT_data_member_location[DW_OP_plus_uconst 0x0]
    2633                            .dwattr $C$DW$238, DW_AT_accessibility(DW_ACCESS_public)
TI ARM Assembler PC v15.12.1 Thu Oct 27 13:57:51 2016

Tools Copyright (c) 1996-2015 Texas Instruments Incorporated
Task_gyro.asm                                                        PAGE   49

    2634                            .dwattr $C$DW$238, DW_AT_decl_file("C:/TI_CodeComposer/TivaWare/sensorlib/i2cm_drv.h")
    2635                            .dwattr $C$DW$238, DW_AT_decl_line(0x14c)
    2636                            .dwattr $C$DW$238, DW_AT_decl_column(0x14)
    2637                    
    2638                    $C$DW$239       .dwtag  DW_TAG_member
    2639                            .dwattr $C$DW$239, DW_AT_type(*$C$DW$T$23)
    2640                            .dwattr $C$DW$239, DW_AT_name("pui8Data")
    2641                            .dwattr $C$DW$239, DW_AT_TI_symbol_name("pui8Data")
    2642                            .dwattr $C$DW$239, DW_AT_data_member_location[DW_OP_plus_uconst 0x4]
    2643                            .dwattr $C$DW$239, DW_AT_accessibility(DW_ACCESS_public)
    2644                            .dwattr $C$DW$239, DW_AT_decl_file("C:/TI_CodeComposer/TivaWare/sensorlib/i2cm_drv.h")
    2645                            .dwattr $C$DW$239, DW_AT_decl_line(0x151)
    2646                            .dwattr $C$DW$239, DW_AT_decl_column(0x0e)
    2647                    
    2648                    $C$DW$240       .dwtag  DW_TAG_member
    2649                            .dwattr $C$DW$240, DW_AT_type(*$C$DW$T$22)
    2650                            .dwattr $C$DW$240, DW_AT_name("ui16Count")
    2651                            .dwattr $C$DW$240, DW_AT_TI_symbol_name("ui16Count")
    2652                            .dwattr $C$DW$240, DW_AT_data_member_location[DW_OP_plus_uconst 0x8]
    2653                            .dwattr $C$DW$240, DW_AT_accessibility(DW_ACCESS_public)
    2654                            .dwattr $C$DW$240, DW_AT_decl_file("C:/TI_CodeComposer/TivaWare/sensorlib/i2cm_drv.h")
    2655                            .dwattr $C$DW$240, DW_AT_decl_line(0x156)
    2656                            .dwattr $C$DW$240, DW_AT_decl_column(0x0e)
    2657                    
    2658                    $C$DW$241       .dwtag  DW_TAG_member
    2659                            .dwattr $C$DW$241, DW_AT_type(*$C$DW$T$28)
    2660                            .dwattr $C$DW$241, DW_AT_name("pfnCallback")
    2661                            .dwattr $C$DW$241, DW_AT_TI_symbol_name("pfnCallback")
    2662                            .dwattr $C$DW$241, DW_AT_data_member_location[DW_OP_plus_uconst 0xc]
    2663                            .dwattr $C$DW$241, DW_AT_accessibility(DW_ACCESS_public)
    2664                            .dwattr $C$DW$241, DW_AT_decl_file("C:/TI_CodeComposer/TivaWare/sensorlib/i2cm_drv.h")
    2665                            .dwattr $C$DW$241, DW_AT_decl_line(0x15b)
    2666                            .dwattr $C$DW$241, DW_AT_decl_column(0x16)
    2667                    
    2668                    $C$DW$242       .dwtag  DW_TAG_member
    2669                            .dwattr $C$DW$242, DW_AT_type(*$C$DW$T$3)
    2670                            .dwattr $C$DW$242, DW_AT_name("pvCallbackData")
    2671                            .dwattr $C$DW$242, DW_AT_TI_symbol_name("pvCallbackData")
    2672                            .dwattr $C$DW$242, DW_AT_data_member_location[DW_OP_plus_uconst 0x10]
    2673                            .dwattr $C$DW$242, DW_AT_accessibility(DW_ACCESS_public)
    2674                            .dwattr $C$DW$242, DW_AT_decl_file("C:/TI_CodeComposer/TivaWare/sensorlib/i2cm_drv.h")
    2675                            .dwattr $C$DW$242, DW_AT_decl_line(0x160)
    2676                            .dwattr $C$DW$242, DW_AT_decl_column(0x0b)
    2677                    
    2678                            .dwattr $C$DW$T$47, DW_AT_decl_file("C:/TI_CodeComposer/TivaWare/sensorlib/i2cm_drv.h")
    2679                            .dwattr $C$DW$T$47, DW_AT_decl_line(0x147)
    2680                            .dwattr $C$DW$T$47, DW_AT_decl_column(0x01)
    2681                            .dwendtag $C$DW$T$47
    2682                    
    2683                    $C$DW$T$96      .dwtag  DW_TAG_typedef
    2684                            .dwattr $C$DW$T$96, DW_AT_name("tI2CMRead16BE")
    2685                            .dwattr $C$DW$T$96, DW_AT_type(*$C$DW$T$47)
    2686                            .dwattr $C$DW$T$96, DW_AT_language(DW_LANG_C)
    2687                            .dwattr $C$DW$T$96, DW_AT_decl_file("C:/TI_CodeComposer/TivaWare/sensorlib/i2cm_drv.h")
    2688                            .dwattr $C$DW$T$96, DW_AT_decl_line(0x162)
TI ARM Assembler PC v15.12.1 Thu Oct 27 13:57:51 2016

Tools Copyright (c) 1996-2015 Texas Instruments Incorporated
Task_gyro.asm                                                        PAGE   50

    2689                            .dwattr $C$DW$T$96, DW_AT_decl_column(0x01)
    2690                    
    2691                    
    2692                    $C$DW$T$48      .dwtag  DW_TAG_structure_type
    2693                            .dwattr $C$DW$T$48, DW_AT_byte_size(0x14)
    2694                    $C$DW$243       .dwtag  DW_TAG_member
    2695                            .dwattr $C$DW$243, DW_AT_type(*$C$DW$T$34)
    2696                            .dwattr $C$DW$243, DW_AT_name("psI2CInst")
    2697                            .dwattr $C$DW$243, DW_AT_TI_symbol_name("psI2CInst")
    2698                            .dwattr $C$DW$243, DW_AT_data_member_location[DW_OP_plus_uconst 0x0]
    2699                            .dwattr $C$DW$243, DW_AT_accessibility(DW_ACCESS_public)
    2700                            .dwattr $C$DW$243, DW_AT_decl_file("C:/TI_CodeComposer/TivaWare/sensorlib/i2cm_drv.h")
    2701                            .dwattr $C$DW$243, DW_AT_decl_line(0x170)
    2702                            .dwattr $C$DW$243, DW_AT_decl_column(0x14)
    2703                    
    2704                    $C$DW$244       .dwtag  DW_TAG_member
    2705                            .dwattr $C$DW$244, DW_AT_type(*$C$DW$T$37)
    2706                            .dwattr $C$DW$244, DW_AT_name("pui8Buffer")
    2707                            .dwattr $C$DW$244, DW_AT_TI_symbol_name("pui8Buffer")
    2708                            .dwattr $C$DW$244, DW_AT_data_member_location[DW_OP_plus_uconst 0x4]
    2709                            .dwattr $C$DW$244, DW_AT_accessibility(DW_ACCESS_public)
    2710                            .dwattr $C$DW$244, DW_AT_decl_file("C:/TI_CodeComposer/TivaWare/sensorlib/i2cm_drv.h")
    2711                            .dwattr $C$DW$244, DW_AT_decl_line(0x175)
    2712                            .dwattr $C$DW$244, DW_AT_decl_column(0x0d)
    2713                    
    2714                    $C$DW$245       .dwtag  DW_TAG_member
    2715                            .dwattr $C$DW$245, DW_AT_type(*$C$DW$T$22)
    2716                            .dwattr $C$DW$245, DW_AT_name("ui16Count")
    2717                            .dwattr $C$DW$245, DW_AT_TI_symbol_name("ui16Count")
    2718                            .dwattr $C$DW$245, DW_AT_data_member_location[DW_OP_plus_uconst 0x6]
    2719                            .dwattr $C$DW$245, DW_AT_accessibility(DW_ACCESS_public)
    2720                            .dwattr $C$DW$245, DW_AT_decl_file("C:/TI_CodeComposer/TivaWare/sensorlib/i2cm_drv.h")
    2721                            .dwattr $C$DW$245, DW_AT_decl_line(0x17a)
    2722                            .dwattr $C$DW$245, DW_AT_decl_column(0x0e)
    2723                    
    2724                    $C$DW$246       .dwtag  DW_TAG_member
    2725                            .dwattr $C$DW$246, DW_AT_type(*$C$DW$T$21)
    2726                            .dwattr $C$DW$246, DW_AT_name("pui8Data")
    2727                            .dwattr $C$DW$246, DW_AT_TI_symbol_name("pui8Data")
    2728                            .dwattr $C$DW$246, DW_AT_data_member_location[DW_OP_plus_uconst 0x8]
    2729                            .dwattr $C$DW$246, DW_AT_accessibility(DW_ACCESS_public)
    2730                            .dwattr $C$DW$246, DW_AT_decl_file("C:/TI_CodeComposer/TivaWare/sensorlib/i2cm_drv.h")
    2731                            .dwattr $C$DW$246, DW_AT_decl_line(0x17f)
    2732                            .dwattr $C$DW$246, DW_AT_decl_column(0x14)
    2733                    
    2734                    $C$DW$247       .dwtag  DW_TAG_member
    2735                            .dwattr $C$DW$247, DW_AT_type(*$C$DW$T$28)
    2736                            .dwattr $C$DW$247, DW_AT_name("pfnCallback")
    2737                            .dwattr $C$DW$247, DW_AT_TI_symbol_name("pfnCallback")
    2738                            .dwattr $C$DW$247, DW_AT_data_member_location[DW_OP_plus_uconst 0xc]
    2739                            .dwattr $C$DW$247, DW_AT_accessibility(DW_ACCESS_public)
    2740                            .dwattr $C$DW$247, DW_AT_decl_file("C:/TI_CodeComposer/TivaWare/sensorlib/i2cm_drv.h")
    2741                            .dwattr $C$DW$247, DW_AT_decl_line(0x184)
    2742                            .dwattr $C$DW$247, DW_AT_decl_column(0x16)
    2743                    
TI ARM Assembler PC v15.12.1 Thu Oct 27 13:57:51 2016

Tools Copyright (c) 1996-2015 Texas Instruments Incorporated
Task_gyro.asm                                                        PAGE   51

    2744                    $C$DW$248       .dwtag  DW_TAG_member
    2745                            .dwattr $C$DW$248, DW_AT_type(*$C$DW$T$3)
    2746                            .dwattr $C$DW$248, DW_AT_name("pvCallbackData")
    2747                            .dwattr $C$DW$248, DW_AT_TI_symbol_name("pvCallbackData")
    2748                            .dwattr $C$DW$248, DW_AT_data_member_location[DW_OP_plus_uconst 0x10]
    2749                            .dwattr $C$DW$248, DW_AT_accessibility(DW_ACCESS_public)
    2750                            .dwattr $C$DW$248, DW_AT_decl_file("C:/TI_CodeComposer/TivaWare/sensorlib/i2cm_drv.h")
    2751                            .dwattr $C$DW$248, DW_AT_decl_line(0x189)
    2752                            .dwattr $C$DW$248, DW_AT_decl_column(0x0b)
    2753                    
    2754                            .dwattr $C$DW$T$48, DW_AT_decl_file("C:/TI_CodeComposer/TivaWare/sensorlib/i2cm_drv.h")
    2755                            .dwattr $C$DW$T$48, DW_AT_decl_line(0x16b)
    2756                            .dwattr $C$DW$T$48, DW_AT_decl_column(0x01)
    2757                            .dwendtag $C$DW$T$48
    2758                    
    2759                    $C$DW$T$97      .dwtag  DW_TAG_typedef
    2760                            .dwattr $C$DW$T$97, DW_AT_name("tI2CMWrite16BE")
    2761                            .dwattr $C$DW$T$97, DW_AT_type(*$C$DW$T$48)
    2762                            .dwattr $C$DW$T$97, DW_AT_language(DW_LANG_C)
    2763                            .dwattr $C$DW$T$97, DW_AT_decl_file("C:/TI_CodeComposer/TivaWare/sensorlib/i2cm_drv.h")
    2764                            .dwattr $C$DW$T$97, DW_AT_decl_line(0x18b)
    2765                            .dwattr $C$DW$T$97, DW_AT_decl_column(0x01)
    2766                    
    2767                    
    2768                    $C$DW$T$51      .dwtag  DW_TAG_union_type
    2769                            .dwattr $C$DW$T$51, DW_AT_byte_size(0x14)
    2770                    $C$DW$249       .dwtag  DW_TAG_member
    2771                            .dwattr $C$DW$249, DW_AT_type(*$C$DW$T$37)
    2772                            .dwattr $C$DW$249, DW_AT_name("pui8Buffer")
    2773                            .dwattr $C$DW$249, DW_AT_TI_symbol_name("pui8Buffer")
    2774                            .dwattr $C$DW$249, DW_AT_data_member_location[DW_OP_plus_uconst 0x0]
    2775                            .dwattr $C$DW$249, DW_AT_accessibility(DW_ACCESS_public)
    2776                            .dwattr $C$DW$249, DW_AT_decl_file("C:/TI_CodeComposer/TivaWare/sensorlib/ak8975.h")
    2777                            .dwattr $C$DW$249, DW_AT_decl_line(0x58)
    2778                            .dwattr $C$DW$249, DW_AT_decl_column(0x11)
    2779                    
    2780                    $C$DW$250       .dwtag  DW_TAG_member
    2781                            .dwattr $C$DW$250, DW_AT_type(*$C$DW$T$49)
    2782                            .dwattr $C$DW$250, DW_AT_name("sWriteState")
    2783                            .dwattr $C$DW$250, DW_AT_TI_symbol_name("sWriteState")
    2784                            .dwattr $C$DW$250, DW_AT_data_member_location[DW_OP_plus_uconst 0x0]
    2785                            .dwattr $C$DW$250, DW_AT_accessibility(DW_ACCESS_public)
    2786                            .dwattr $C$DW$250, DW_AT_decl_file("C:/TI_CodeComposer/TivaWare/sensorlib/ak8975.h")
    2787                            .dwattr $C$DW$250, DW_AT_decl_line(0x5d)
    2788                            .dwattr $C$DW$250, DW_AT_decl_column(0x15)
    2789                    
    2790                    $C$DW$251       .dwtag  DW_TAG_member
    2791                            .dwattr $C$DW$251, DW_AT_type(*$C$DW$T$50)
    2792                            .dwattr $C$DW$251, DW_AT_name("sReadModifyWriteState")
    2793                            .dwattr $C$DW$251, DW_AT_TI_symbol_name("sReadModifyWriteState")
    2794                            .dwattr $C$DW$251, DW_AT_data_member_location[DW_OP_plus_uconst 0x0]
    2795                            .dwattr $C$DW$251, DW_AT_accessibility(DW_ACCESS_public)
    2796                            .dwattr $C$DW$251, DW_AT_decl_file("C:/TI_CodeComposer/TivaWare/sensorlib/ak8975.h")
    2797                            .dwattr $C$DW$251, DW_AT_decl_line(0x62)
    2798                            .dwattr $C$DW$251, DW_AT_decl_column(0x1f)
TI ARM Assembler PC v15.12.1 Thu Oct 27 13:57:51 2016

Tools Copyright (c) 1996-2015 Texas Instruments Incorporated
Task_gyro.asm                                                        PAGE   52

    2799                    
    2800                            .dwattr $C$DW$T$51, DW_AT_decl_file("C:/TI_CodeComposer/TivaWare/sensorlib/ak8975.h")
    2801                            .dwattr $C$DW$T$51, DW_AT_decl_line(0x54)
    2802                            .dwattr $C$DW$T$51, DW_AT_decl_column(0x05)
    2803                            .dwendtag $C$DW$T$51
    2804                    
    2805                    
    2806                    $C$DW$T$53      .dwtag  DW_TAG_union_type
    2807                            .dwattr $C$DW$T$53, DW_AT_byte_size(0x14)
    2808                    $C$DW$252       .dwtag  DW_TAG_member
    2809                            .dwattr $C$DW$252, DW_AT_type(*$C$DW$T$52)
    2810                            .dwattr $C$DW$252, DW_AT_name("pui8Buffer")
    2811                            .dwattr $C$DW$252, DW_AT_TI_symbol_name("pui8Buffer")
    2812                            .dwattr $C$DW$252, DW_AT_data_member_location[DW_OP_plus_uconst 0x0]
    2813                            .dwattr $C$DW$252, DW_AT_accessibility(DW_ACCESS_public)
    2814                            .dwattr $C$DW$252, DW_AT_decl_file("C:/TI_CodeComposer/TivaWare/sensorlib/mpu9150.h")
    2815                            .dwattr $C$DW$252, DW_AT_decl_line(0x74)
    2816                            .dwattr $C$DW$252, DW_AT_decl_column(0x11)
    2817                    
    2818                    $C$DW$253       .dwtag  DW_TAG_member
    2819                            .dwattr $C$DW$253, DW_AT_type(*$C$DW$T$49)
    2820                            .dwattr $C$DW$253, DW_AT_name("sWriteState")
    2821                            .dwattr $C$DW$253, DW_AT_TI_symbol_name("sWriteState")
    2822                            .dwattr $C$DW$253, DW_AT_data_member_location[DW_OP_plus_uconst 0x0]
    2823                            .dwattr $C$DW$253, DW_AT_accessibility(DW_ACCESS_public)
    2824                            .dwattr $C$DW$253, DW_AT_decl_file("C:/TI_CodeComposer/TivaWare/sensorlib/mpu9150.h")
    2825                            .dwattr $C$DW$253, DW_AT_decl_line(0x79)
    2826                            .dwattr $C$DW$253, DW_AT_decl_column(0x15)
    2827                    
    2828                    $C$DW$254       .dwtag  DW_TAG_member
    2829                            .dwattr $C$DW$254, DW_AT_type(*$C$DW$T$50)
    2830                            .dwattr $C$DW$254, DW_AT_name("sReadModifyWriteState")
    2831                            .dwattr $C$DW$254, DW_AT_TI_symbol_name("sReadModifyWriteState")
    2832                            .dwattr $C$DW$254, DW_AT_data_member_location[DW_OP_plus_uconst 0x0]
    2833                            .dwattr $C$DW$254, DW_AT_accessibility(DW_ACCESS_public)
    2834                            .dwattr $C$DW$254, DW_AT_decl_file("C:/TI_CodeComposer/TivaWare/sensorlib/mpu9150.h")
    2835                            .dwattr $C$DW$254, DW_AT_decl_line(0x7e)
    2836                            .dwattr $C$DW$254, DW_AT_decl_column(0x1f)
    2837                    
    2838                            .dwattr $C$DW$T$53, DW_AT_decl_file("C:/TI_CodeComposer/TivaWare/sensorlib/mpu9150.h")
    2839                            .dwattr $C$DW$T$53, DW_AT_decl_line(0x70)
    2840                            .dwattr $C$DW$T$53, DW_AT_decl_column(0x05)
    2841                            .dwendtag $C$DW$T$53
    2842                    
    2843                    
    2844                    $C$DW$T$55      .dwtag  DW_TAG_structure_type
    2845                            .dwattr $C$DW$T$55, DW_AT_name("HeapRegion")
    2846                            .dwattr $C$DW$T$55, DW_AT_byte_size(0x08)
    2847                    $C$DW$255       .dwtag  DW_TAG_member
    2848                            .dwattr $C$DW$255, DW_AT_type(*$C$DW$T$23)
    2849                            .dwattr $C$DW$255, DW_AT_name("pucStartAddress")
    2850                            .dwattr $C$DW$255, DW_AT_TI_symbol_name("pucStartAddress")
    2851                            .dwattr $C$DW$255, DW_AT_data_member_location[DW_OP_plus_uconst 0x0]
    2852                            .dwattr $C$DW$255, DW_AT_accessibility(DW_ACCESS_public)
    2853                            .dwattr $C$DW$255, DW_AT_decl_file("C:\TI_ARM_Tiva_Projects\Source\include\portable.h")
TI ARM Assembler PC v15.12.1 Thu Oct 27 13:57:51 2016

Tools Copyright (c) 1996-2015 Texas Instruments Incorporated
Task_gyro.asm                                                        PAGE   53

    2854                            .dwattr $C$DW$255, DW_AT_decl_line(0x96)
    2855                            .dwattr $C$DW$255, DW_AT_decl_column(0x0b)
    2856                    
    2857                    $C$DW$256       .dwtag  DW_TAG_member
    2858                            .dwattr $C$DW$256, DW_AT_type(*$C$DW$T$54)
    2859                            .dwattr $C$DW$256, DW_AT_name("xSizeInBytes")
    2860                            .dwattr $C$DW$256, DW_AT_TI_symbol_name("xSizeInBytes")
    2861                            .dwattr $C$DW$256, DW_AT_data_member_location[DW_OP_plus_uconst 0x4]
    2862                            .dwattr $C$DW$256, DW_AT_accessibility(DW_ACCESS_public)
    2863                            .dwattr $C$DW$256, DW_AT_decl_file("C:\TI_ARM_Tiva_Projects\Source\include\portable.h")
    2864                            .dwattr $C$DW$256, DW_AT_decl_line(0x97)
    2865                            .dwattr $C$DW$256, DW_AT_decl_column(0x09)
    2866                    
    2867                            .dwattr $C$DW$T$55, DW_AT_decl_file("C:\TI_ARM_Tiva_Projects\Source\include\portable.h")
    2868                            .dwattr $C$DW$T$55, DW_AT_decl_line(0x94)
    2869                            .dwattr $C$DW$T$55, DW_AT_decl_column(0x10)
    2870                            .dwendtag $C$DW$T$55
    2871                    
    2872                    $C$DW$T$98      .dwtag  DW_TAG_typedef
    2873                            .dwattr $C$DW$T$98, DW_AT_name("HeapRegion_t")
    2874                            .dwattr $C$DW$T$98, DW_AT_type(*$C$DW$T$55)
    2875                            .dwattr $C$DW$T$98, DW_AT_language(DW_LANG_C)
    2876                            .dwattr $C$DW$T$98, DW_AT_decl_file("C:\TI_ARM_Tiva_Projects\Source\include\portable.h")
    2877                            .dwattr $C$DW$T$98, DW_AT_decl_line(0x98)
    2878                            .dwattr $C$DW$T$98, DW_AT_decl_column(0x03)
    2879                    
    2880                    
    2881                    $C$DW$T$56      .dwtag  DW_TAG_structure_type
    2882                            .dwattr $C$DW$T$56, DW_AT_name("ReportData_Item")
    2883                            .dwattr $C$DW$T$56, DW_AT_byte_size(0x18)
    2884                    $C$DW$257       .dwtag  DW_TAG_member
    2885                            .dwattr $C$DW$257, DW_AT_type(*$C$DW$T$24)
    2886                            .dwattr $C$DW$257, DW_AT_name("TimeStamp")
    2887                            .dwattr $C$DW$257, DW_AT_TI_symbol_name("TimeStamp")
    2888                            .dwattr $C$DW$257, DW_AT_data_member_location[DW_OP_plus_uconst 0x0]
    2889                            .dwattr $C$DW$257, DW_AT_accessibility(DW_ACCESS_public)
    2890                            .dwattr $C$DW$257, DW_AT_decl_file("C:/TI_ARM_Tiva_Projects/Proj2_Magnetometer/Tasks/Task_Repo
    2891                            .dwattr $C$DW$257, DW_AT_decl_line(0x20)
    2892                            .dwattr $C$DW$257, DW_AT_decl_column(0x2b)
    2893                    
    2894                    $C$DW$258       .dwtag  DW_TAG_member
    2895                            .dwattr $C$DW$258, DW_AT_type(*$C$DW$T$24)
    2896                            .dwattr $C$DW$258, DW_AT_name("ReportName")
    2897                            .dwattr $C$DW$258, DW_AT_TI_symbol_name("ReportName")
    2898                            .dwattr $C$DW$258, DW_AT_data_member_location[DW_OP_plus_uconst 0x4]
    2899                            .dwattr $C$DW$258, DW_AT_accessibility(DW_ACCESS_public)
    2900                            .dwattr $C$DW$258, DW_AT_decl_file("C:/TI_ARM_Tiva_Projects/Proj2_Magnetometer/Tasks/Task_Repo
    2901                            .dwattr $C$DW$258, DW_AT_decl_line(0x21)
    2902                            .dwattr $C$DW$258, DW_AT_decl_column(0x13)
    2903                    
    2904                    $C$DW$259       .dwtag  DW_TAG_member
    2905                            .dwattr $C$DW$259, DW_AT_type(*$C$DW$T$24)
    2906                            .dwattr $C$DW$259, DW_AT_name("ReportValue_0")
    2907                            .dwattr $C$DW$259, DW_AT_TI_symbol_name("ReportValue_0")
    2908                            .dwattr $C$DW$259, DW_AT_data_member_location[DW_OP_plus_uconst 0x8]
TI ARM Assembler PC v15.12.1 Thu Oct 27 13:57:51 2016

Tools Copyright (c) 1996-2015 Texas Instruments Incorporated
Task_gyro.asm                                                        PAGE   54

    2909                            .dwattr $C$DW$259, DW_AT_accessibility(DW_ACCESS_public)
    2910                            .dwattr $C$DW$259, DW_AT_decl_file("C:/TI_ARM_Tiva_Projects/Proj2_Magnetometer/Tasks/Task_Repo
    2911                            .dwattr $C$DW$259, DW_AT_decl_line(0x22)
    2912                            .dwattr $C$DW$259, DW_AT_decl_column(0x13)
    2913                    
    2914                    $C$DW$260       .dwtag  DW_TAG_member
    2915                            .dwattr $C$DW$260, DW_AT_type(*$C$DW$T$24)
    2916                            .dwattr $C$DW$260, DW_AT_name("ReportValue_1")
    2917                            .dwattr $C$DW$260, DW_AT_TI_symbol_name("ReportValue_1")
    2918                            .dwattr $C$DW$260, DW_AT_data_member_location[DW_OP_plus_uconst 0xc]
    2919                            .dwattr $C$DW$260, DW_AT_accessibility(DW_ACCESS_public)
    2920                            .dwattr $C$DW$260, DW_AT_decl_file("C:/TI_ARM_Tiva_Projects/Proj2_Magnetometer/Tasks/Task_Repo
    2921                            .dwattr $C$DW$260, DW_AT_decl_line(0x23)
    2922                            .dwattr $C$DW$260, DW_AT_decl_column(0x13)
    2923                    
    2924                    $C$DW$261       .dwtag  DW_TAG_member
    2925                            .dwattr $C$DW$261, DW_AT_type(*$C$DW$T$24)
    2926                            .dwattr $C$DW$261, DW_AT_name("ReportValue_2")
    2927                            .dwattr $C$DW$261, DW_AT_TI_symbol_name("ReportValue_2")
    2928                            .dwattr $C$DW$261, DW_AT_data_member_location[DW_OP_plus_uconst 0x10]
    2929                            .dwattr $C$DW$261, DW_AT_accessibility(DW_ACCESS_public)
    2930                            .dwattr $C$DW$261, DW_AT_decl_file("C:/TI_ARM_Tiva_Projects/Proj2_Magnetometer/Tasks/Task_Repo
    2931                            .dwattr $C$DW$261, DW_AT_decl_line(0x24)
    2932                            .dwattr $C$DW$261, DW_AT_decl_column(0x13)
    2933                    
    2934                    $C$DW$262       .dwtag  DW_TAG_member
    2935                            .dwattr $C$DW$262, DW_AT_type(*$C$DW$T$24)
    2936                            .dwattr $C$DW$262, DW_AT_name("ReportValue_3")
    2937                            .dwattr $C$DW$262, DW_AT_TI_symbol_name("ReportValue_3")
    2938                            .dwattr $C$DW$262, DW_AT_data_member_location[DW_OP_plus_uconst 0x14]
    2939                            .dwattr $C$DW$262, DW_AT_accessibility(DW_ACCESS_public)
    2940                            .dwattr $C$DW$262, DW_AT_decl_file("C:/TI_ARM_Tiva_Projects/Proj2_Magnetometer/Tasks/Task_Repo
    2941                            .dwattr $C$DW$262, DW_AT_decl_line(0x25)
    2942                            .dwattr $C$DW$262, DW_AT_decl_column(0x13)
    2943                    
    2944                            .dwattr $C$DW$T$56, DW_AT_decl_file("C:/TI_ARM_Tiva_Projects/Proj2_Magnetometer/Tasks/Task_Rep
    2945                            .dwattr $C$DW$T$56, DW_AT_decl_line(0x20)
    2946                            .dwattr $C$DW$T$56, DW_AT_decl_column(0x10)
    2947                            .dwendtag $C$DW$T$56
    2948                    
    2949                    $C$DW$T$99      .dwtag  DW_TAG_typedef
    2950                            .dwattr $C$DW$T$99, DW_AT_name("ReportData_Item")
    2951                            .dwattr $C$DW$T$99, DW_AT_type(*$C$DW$T$56)
    2952                            .dwattr $C$DW$T$99, DW_AT_language(DW_LANG_C)
    2953                            .dwattr $C$DW$T$99, DW_AT_decl_file("C:/TI_ARM_Tiva_Projects/Proj2_Magnetometer/Tasks/Task_Rep
    2954                            .dwattr $C$DW$T$99, DW_AT_decl_line(0x25)
    2955                            .dwattr $C$DW$T$99, DW_AT_decl_column(0x24)
    2956                    
    2957                    
    2958                    $C$DW$T$101     .dwtag  DW_TAG_enumeration_type
    2959                            .dwattr $C$DW$T$101, DW_AT_name("ReportData_OutputFormat")
    2960                            .dwattr $C$DW$T$101, DW_AT_byte_size(0x01)
    2961                    $C$DW$263       .dwtag  DW_TAG_enumerator
    2962                            .dwattr $C$DW$263, DW_AT_name("Excel_CSV")
    2963                            .dwattr $C$DW$263, DW_AT_const_value(0x00)
TI ARM Assembler PC v15.12.1 Thu Oct 27 13:57:51 2016

Tools Copyright (c) 1996-2015 Texas Instruments Incorporated
Task_gyro.asm                                                        PAGE   55

    2964                            .dwattr $C$DW$263, DW_AT_decl_file("C:/TI_ARM_Tiva_Projects/Proj2_Magnetometer/Tasks/Task_Repo
    2965                            .dwattr $C$DW$263, DW_AT_decl_line(0x27)
    2966                            .dwattr $C$DW$263, DW_AT_decl_column(0x28)
    2967                    
    2968                    $C$DW$264       .dwtag  DW_TAG_enumerator
    2969                            .dwattr $C$DW$264, DW_AT_name("Mathematica_List")
    2970                            .dwattr $C$DW$264, DW_AT_const_value(0x01)
    2971                            .dwattr $C$DW$264, DW_AT_decl_file("C:/TI_ARM_Tiva_Projects/Proj2_Magnetometer/Tasks/Task_Repo
    2972                            .dwattr $C$DW$264, DW_AT_decl_line(0x27)
    2973                            .dwattr $C$DW$264, DW_AT_decl_column(0x33)
    2974                    
    2975                            .dwattr $C$DW$T$101, DW_AT_decl_file("C:/TI_ARM_Tiva_Projects/Proj2_Magnetometer/Tasks/Task_Re
    2976                            .dwattr $C$DW$T$101, DW_AT_decl_line(0x27)
    2977                            .dwattr $C$DW$T$101, DW_AT_decl_column(0x0e)
    2978                            .dwendtag $C$DW$T$101
    2979                    
    2980                    $C$DW$T$102     .dwtag  DW_TAG_typedef
    2981                            .dwattr $C$DW$T$102, DW_AT_name("ReportData_OutputFormat")
    2982                            .dwattr $C$DW$T$102, DW_AT_type(*$C$DW$T$101)
    2983                            .dwattr $C$DW$T$102, DW_AT_language(DW_LANG_C)
    2984                            .dwattr $C$DW$T$102, DW_AT_decl_file("C:/TI_ARM_Tiva_Projects/Proj2_Magnetometer/Tasks/Task_Re
    2985                            .dwattr $C$DW$T$102, DW_AT_decl_line(0x27)
    2986                            .dwattr $C$DW$T$102, DW_AT_decl_column(0x46)
    2987                    
    2988                    $C$DW$T$2       .dwtag  DW_TAG_unspecified_type
    2989                            .dwattr $C$DW$T$2, DW_AT_name("void")
    2990                    
    2991                    $C$DW$T$3       .dwtag  DW_TAG_pointer_type
    2992                            .dwattr $C$DW$T$3, DW_AT_type(*$C$DW$T$2)
    2993                            .dwattr $C$DW$T$3, DW_AT_address_class(0x20)
    2994                    
    2995                    $C$DW$T$103     .dwtag  DW_TAG_typedef
    2996                            .dwattr $C$DW$T$103, DW_AT_name("QueueHandle_t")
    2997                            .dwattr $C$DW$T$103, DW_AT_type(*$C$DW$T$3)
    2998                            .dwattr $C$DW$T$103, DW_AT_language(DW_LANG_C)
    2999                            .dwattr $C$DW$T$103, DW_AT_decl_file("C:/TI_ARM_Tiva_Projects/Source/include/queue.h")
    3000                            .dwattr $C$DW$T$103, DW_AT_decl_line(0x58)
    3001                            .dwattr $C$DW$T$103, DW_AT_decl_column(0x10)
    3002                    
    3003                    $C$DW$T$104     .dwtag  DW_TAG_typedef
    3004                            .dwattr $C$DW$T$104, DW_AT_name("QueueSetHandle_t")
    3005                            .dwattr $C$DW$T$104, DW_AT_type(*$C$DW$T$3)
    3006                            .dwattr $C$DW$T$104, DW_AT_language(DW_LANG_C)
    3007                            .dwattr $C$DW$T$104, DW_AT_decl_file("C:/TI_ARM_Tiva_Projects/Source/include/queue.h")
    3008                            .dwattr $C$DW$T$104, DW_AT_decl_line(0x5f)
    3009                            .dwattr $C$DW$T$104, DW_AT_decl_column(0x10)
    3010                    
    3011                    $C$DW$T$105     .dwtag  DW_TAG_typedef
    3012                            .dwattr $C$DW$T$105, DW_AT_name("QueueSetMemberHandle_t")
    3013                            .dwattr $C$DW$T$105, DW_AT_type(*$C$DW$T$3)
    3014                            .dwattr $C$DW$T$105, DW_AT_language(DW_LANG_C)
    3015                            .dwattr $C$DW$T$105, DW_AT_decl_file("C:/TI_ARM_Tiva_Projects/Source/include/queue.h")
